(dp0
S'single_99'
p1
(lp2
(lp3
F184.75887040000003
aF179.3722429
aF129.900755
aF175.5912705
aF127.1486889
aF137.3976629
aF160.726627
aF132.613294
aF121.85552040000002
aF176.0654416
aF149.57689600000003
aF129.19747
aa(lp4
F128.64614899999998
aF124.1020892
aF121.32930580000001
aF130.28892209999998
aF134.09727149999998
aF160.499722
aF126.0544242
aF132.05126080000002
aF127.11355199999998
aF136.8859065
aF127.09357360000001
aF130.26217189999997
aa(lp5
F134.6697602
aF141.4044432
aF122.68905849999999
aF131.7103588
aF129.042979
aF128.1464794
aF134.4155824
aF149.7193332
aF130.9433943
aF151.9024747
aF124.92970360000001
aF127.95862559999999
aa(lp6
F144.0127568
aF130.0600576
aF131.3203168
aF134.300875
aF131.9433126
aF130.997852
aF149.6482284
aF144.9563903
aF135.9886214
aF131.7987482
aF145.07163680000002
aF137.2283538
aa(lp7
F147.4103512
aF131.425167
aF132.08564170000002
aF129.07819639999997
aF131.0842307
aF133.19447200000002
aF134.461544
aF135.996845
aF132.61935640000002
aF130.9826489
aF137.25795050000002
aF131.9074978
aa(lp8
F140.8345655
aF143.34430350000002
aF135.2691246
aF132.542619
aF146.850803
aF142.8290805
aF140.0985466
aF145.21156580000002
aF144.75253700000002
aF167.70919700000002
aF155.8050895
aF136.78780640000002
aa(lp9
F167.895874
aF174.032184
aF156.6815242
aF148.4185074
aF170.58175759999997
aF143.8916628
aF147.139562
aF160.339908
aF168.8592634
aF145.7220916
aF151.364683
aF161.78397280000002
aa(lp10
F177.2455288
aF166.840018
aF156.8540114
aF153.52717760000002
aF178.2791638
aF186.3780876
aF174.78387329999998
aF172.3189038
aF162.88553000000002
aF169.0939398
aF168.3263818
aF174.26739650000002
aa(lp11
F183.35410640000003
aF182.6960168
aF184.5131325
aF211.111796
aF196.2186458
aF179.15082579999998
aF164.800783
aF222.4675077
aF175.29742419999997
aF172.565478
aF183.4425344
aF181.6785008
aa(lp12
F219.06289449999997
aF178.216652
aF191.2133362
aF195.4037142
aF237.0762957
aF199.2493176
aF195.11630290000002
aF188.703658
aF231.107654
aF209.72617709999997
aF190.66118649999999
aF199.203958
aa(lp13
F465.17586739999996
aF230.1401602
aF228.26315619999997
aF224.57375199999998
aF233.5225378
aF283.3599442
aF504.67245900000006
aF384.01371589999997
aF224.539784
aF234.05339119999996
aF281.72346939999994
aF256.820818
aa(lp14
F1049.6104874
aF746.5990166
aF466.58844339999996
aF357.2194224
aF468.05612350000007
aF550.5482813000001
aF678.84298
aF366.584552
aF313.62465499999996
aF450.766756
aF426.0120195
aF513.0206064
aa(lp15
F1103.3572100000001
aF347.76967569999994
aF1007.0726742
aF1011.7609028000002
aF401.3189116
aF596.82604
aF653.8922524
aF723.4899987
aF674.1115496
aF1179.5193537
aF621.9745432
aF517.9787072
aa(lp16
F600.9215098000001
aF886.4608282
aF1041.1420575
aF1220.8303262
aF811.0892125
aF1628.4458736000001
aF628.7008364999999
aF1242.169357
aF749.355668
aF771.6646192
aF1097.7140625
aF1080.0290321
aa(lp17
F2129.201086
aF1296.6130744000002
aF2232.1057109
aF2133.8538082
aF2169.9486616
aF1564.8868836
aF1899.1722546
aF2091.6153768000004
aF1261.2145407
aF1721.5034309999999
aF1636.5211325
aF1785.9150956
aa(lp18
F2378.8977035
aF2301.1511648
aF2003.8121416
aF2429.3053756
aF2412.914923
aF2345.7781199
aF2251.0904565
aF2293.6799304
aF1939.2215688000001
aF2066.1633856000003
aF2388.3701352
aF1960.4592768000002
aa(lp19
F2559.3408563999997
aF2181.0610970000002
aF2167.6715771
aF2934.2547368000005
aF2405.6783128000006
aF2797.0586576
aF2347.5540153999996
aF1941.930801
aF2616.1521556
aF2663.678144
aF2308.4341368
aF3180.6100605
aa(lp20
F2729.0771688
aF3032.5104011999997
aF2830.1151448
aF2881.0273277000006
aF3141.0707380000003
aF2650.8568980000005
aF2770.9528069999997
aF2517.94556
aF2935.4711715
aF2738.5919280000003
aF2150.006201
aF3004.0715532000004
aa(lp21
F2829.2587355
aF3783.0472464
aF3013.5229818
aF3465.4797151999996
aF3105.2324121
aF3330.10793
aF3359.7821161
aF3413.0208254
aF3166.9533392000003
aF2809.8658047
aF3307.359811
aF3452.0495164000004
aa(lp22
F3724.6089254999997
aF3570.8493909000003
aF3323.297861
aF3172.5785693
aF3153.8445152000004
aF3894.8110452
aF3416.4744978999997
aF3294.2655200000004
aF3726.1678156000003
aF3445.3064394
aF3311.0157585999996
aF3296.3641620000003
aasS'random_99'
p23
(lp24
(lp25
F126.4908513
aF169.72191020000002
aF164.6437889
aF170.76674749999995
aF219.7141658
aF162.3234376
aF135.46132519999998
aF217.4581322
aF132.119872
aF181.54434319999996
aF133.89620760000003
aF165.54828200000003
aa(lp26
F122.77336239999997
aF124.3941284
aF129.198241
aF126.5958096
aF114.82219629999999
aF133.49940959999998
aF129.37643100000003
aF129.8265422
aF135.34268
aF133.7613468
aF148.546375
aF128.6837645
aa(lp27
F129.95396190000002
aF125.60819359999999
aF131.68331700000002
aF128.516186
aF125.90252250000002
aF133.22796
aF130.45034760000001
aF122.89231040000001
aF125.6349975
aF131.81655370000001
aF126.80802740000001
aF126.06306599999999
aa(lp28
F149.6819118
aF131.5540574
aF131.2389909
aF134.67067200000002
aF130.9392039
aF144.022718
aF132.6180106
aF138.72651150000002
aF128.89856469999998
aF126.6112374
aF126.906188
aF153.4672334
aa(lp29
F138.6085119
aF167.935064
aF142.51140479999998
aF136.80077519999998
aF136.739936
aF138.0690157
aF130.36612159999999
aF147.6608352
aF149.342925
aF138.78861750000002
aF135.2286785
aF134.14793429999997
aa(lp30
F162.19456250000002
aF143.4221486
aF133.6886916
aF141.018868
aF143.34496400000003
aF154.15957999999998
aF152.43424380000002
aF141.3425008
aF139.272744
aF137.39298540000001
aF167.01402539999998
aF137.9995194
aa(lp31
F153.9114255
aF148.8251537
aF141.51415119999996
aF161.04092400000002
aF150.7434888
aF141.76064839999998
aF153.0474532
aF140.822214
aF145.96293219999998
aF159.7528617
aF165.4763976
aF144.7661848
aa(lp32
F179.5895093
aF178.34059240000002
aF174.6319053
aF172.31365240000002
aF214.25455
aF155.22575949999998
aF163.2751024
aF149.813468
aF160.40105
aF174.17671059999998
aF154.138194
aF158.741949
aa(lp33
F214.5154164
aF196.04560799999996
aF214.093345
aF161.93236140000002
aF166.0007982
aF160.61952179999997
aF175.91856900000002
aF194.9721549
aF193.5007888
aF164.54722000000004
aF189.9252113
aF170.8651018
aa(lp34
F215.18271710000005
aF211.3467962
aF186.6601284
aF182.10122279999996
aF216.1652952
aF204.0448268
aF219.13309249999998
aF227.86929249999997
aF255.4661612
aF193.75940299999996
aF173.370473
aF192.243223
aa(lp35
F244.41375
aF202.7789467
aF234.231504
aF230.7769868
aF264.5930359
aF411.4924324
aF236.815088
aF263.7790859
aF237.56207539999997
aF252.44512049999997
aF307.2928492
aF316.55733599999996
aa(lp36
F328.38055499999996
aF408.0839552
aF411.0939901
aF477.5248386999999
aF229.12340540000002
aF287.095776
aF273.73166
aF618.7392632
aF290.6313412
aF268.3171491
aF312.89081009999995
aF404.28609079999995
aa(lp37
F441.90626199999997
aF782.7428551999999
aF581.6878816
aF287.80737860000005
aF628.994859
aF1113.6634434999999
aF728.5282500000001
aF991.7707619999999
aF592.7217346000001
aF1334.3743587
aF723.1986952
aF1074.259831
aa(lp38
F929.2723175
aF867.3054092
aF1765.6313018999997
aF2164.3995950000003
aF828.4993534
aF1626.5138618
aF932.1950272
aF1587.5943876
aF1189.303584
aF1006.0836200000001
aF1856.7932199999998
aF965.9935609999999
aa(lp39
F1668.4368842000001
aF1438.3462342
aF2107.8895092
aF1221.4033450000002
aF2074.4499024
aF1971.3114531
aF1275.8309556000002
aF2051.4841170000004
aF1847.8323031
aF1824.9141141999999
aF1499.1318800000001
aF2054.6333076
aa(lp40
F2012.4517199999998
aF2407.3552196
aF2181.54415
aF2028.425904
aF1869.4401973999998
aF1993.9950448
aF2467.1749710000004
aF2306.8413105
aF2483.8836164
aF1628.8582375
aF2685.0840477
aF2873.251808
aa(lp41
F1984.1150974000004
aF2627.8795265
aF2279.217358
aF2573.613438
aF2341.8377358
aF2789.261565
aF1992.865576
aF2609.6442859999997
aF2092.1262153000007
aF2924.4822332000003
aF2637.1168924999997
aF2140.0941035
aa(lp42
F2933.272104
aF2778.0353265
aF2956.920388
aF2905.8918097
aF2906.8176992
aF3068.4757336000002
aF2947.3653408
aF2427.6702144999995
aF2500.9957181
aF3250.3139732
aF3375.272421
aF3135.3022497999996
aa(lp43
F3581.7166096000005
aF2665.023538
aF3525.6504954
aF2810.5202124999996
aF3417.6715702
aF3468.4383179
aF3159.7417895999997
aF3320.2844464
aF3322.2974237
aF3540.5307073
aF3247.3130384
aF3270.2708850000004
aa(lp44
F3300.0655578
aF3488.69333
aF3736.9638253000003
aF3292.269024
aF3377.9418668
aF3718.7063128
aF3505.2705318
aF3570.9258320000004
aF3680.6019188
aF3699.5223792000006
aF3415.2949554
aF3905.4281981
aasS'single_95'
p45
(lp46
(lp47
F84.5309164
aF95.9702809
aF86.1078366
aF113.78356450000001
aF104.98549739999999
aF102.9968954
aF110.97702100000001
aF101.85969850000001
aF99.60903820000001
aF95.99032120000001
aF91.5321644
aF95.46227199999998
aa(lp48
F98.89988799999999
aF95.6439196
aF92.7300832
aF101.38499489999998
aF87.9010705
aF103.18345
aF90.4515954
aF104.5092674
aF99.6225024
aF98.121865
aF85.3502698
aF87.5095508
aa(lp49
F99.80761580000001
aF104.3555989
aF96.88028919999999
aF108.1528402
aF94.157191
aF104.66765260000001
aF98.754616
aF105.4696745
aF102.4083066
aF102.2941956
aF99.01555
aF99.1513212
aa(lp50
F110.94182100000002
aF106.0442948
aF106.4152556
aF110.4623386
aF112.05823500000001
aF104.8643168
aF110.7656748
aF113.8768572
aF111.987576
aF109.83780709999999
aF118.93267940000001
aF105.20429460000001
aa(lp51
F119.6948504
aF112.47418499999999
aF109.91434710000001
aF106.13451009999999
aF109.02299690000001
aF116.22212300000001
aF115.344106
aF113.88093380000001
aF114.7264374
aF110.8851134
aF114.6335425
aF106.988314
aa(lp52
F117.873938
aF112.89013650000001
aF115.2118125
aF115.2716352
aF118.46455100000001
aF118.10619059999999
aF118.8870766
aF121.67890600000001
aF113.83933160000001
aF120.381602
aF118.81511900000001
aF113.756204
aa(lp53
F127.19706
aF125.09755
aF121.1338619
aF125.3795761
aF126.9447108
aF123.9025776
aF121.688843
aF125.95678600000002
aF124.84142409999998
aF119.0556234
aF121.12638550000001
aF124.3091536
aa(lp54
F131.5777932
aF126.7701164
aF125.5605821
aF124.64273600000001
aF131.5026169
aF131.2081015
aF135.6176702
aF131.17680059999998
aF130.151142
aF129.0798522
aF130.0457189
aF143.8110368
aa(lp55
F139.874364
aF141.52897520000002
aF143.145228
aF152.4199238
aF150.2066549
aF143.759649
aF137.164291
aF153.265131
aF139.1215674
aF133.994583
aF142.2463976
aF137.3897088
aa(lp56
F149.62301
aF149.49504249999998
aF150.23709599999998
aF143.4188694
aF172.7853891
aF156.0782664
aF154.89066030000004
aF148.90393799999998
aF168.9573875
aF151.27994789999997
aF153.488114
aF143.777301
aa(lp57
F385.2820169
aF180.1187911
aF173.00067839999997
aF175.88293839999997
aF172.6055484
aF221.87171739999997
aF363.554186
aF183.2437916
aF180.58119920000001
aF188.97101809999995
aF217.0279378
aF204.86439460000003
aa(lp58
F781.4253464000001
aF628.1869436
aF360.51936639999997
aF267.177486
aF403.71349090000007
aF390.9183644000001
aF375.19052
aF291.28938
aF229.42153430000002
aF349.17921279999996
aF282.794665
aF421.99859999999995
aa(lp59
F900.398264
aF267.7316209
aF857.7337933
aF865.9568009000002
aF327.57685219999996
aF457.7091126
aF567.6660386
aF485.73025879999994
aF469.17922200000004
aF912.9228441
aF486.7465368
aF384.39059080000004
aa(lp60
F493.55483260000005
aF730.5146828
aF857.1442452000001
aF1091.8222190000001
aF716.6323675000001
aF1255.5806172
aF495.8804565
aF980.8634338000002
aF561.2132555000001
aF623.3060828
aF733.8206250000001
aF815.9140666999999
aa(lp61
F1545.1298070000003
aF1121.5456702000001
aF1722.6058742999999
aF1721.9803175000002
aF1612.3907584
aF1418.4111094
aF1357.0089294000002
aF1631.8342200000004
aF1005.3720249999999
aF1429.0274709999999
aF1493.793593
aF1352.2743114
aa(lp62
F1747.219001
aF1688.6023247999997
aF1453.7297376
aF1779.7157316
aF1692.70117
aF1717.7805464
aF1722.2310017
aF1912.0617408
aF1634.1543084
aF1444.8980032
aF1936.5182583999997
aF1580.6039808
aa(lp63
F1913.9630963999998
aF1638.6240550000002
aF1565.0326193
aF2251.4020406000004
aF1946.3620708000003
aF2130.8511464000003
aF1875.332539
aF1587.2082541999998
aF2071.713713
aF1926.419362
aF1971.7304391999999
aF2328.108197
aa(lp64
F2222.1509880000003
aF2506.0267568
aF2078.7845349
aF2152.4852279
aF2587.0125775
aF2241.8726132
aF2342.3911415
aF1895.061752
aF2015.844748
aF2150.535342
aF1795.0028595
aF2204.0717860000004
aa(lp65
F2434.4097237
aF2615.70474
aF2627.3560643
aF2869.7427955999997
aF2481.7971254999998
aF2454.7608225
aF2984.3138647
aF2699.4565319999997
aF2708.8114256000003
aF2227.6637481000002
aF2480.9594439999996
aF2546.5189124000003
aa(lp66
F2878.6945968
aF2620.3395873000004
aF2484.8749664
aF2592.6665766
aF2582.614994
aF2672.0774034
aF2901.1284394
aF2993.880179
aF2701.864403
aF2642.6223366
aF2596.2705778
aF2659.2346736000004
aasS'single_50'
p67
(lp68
(lp69
F72.1013834
aF74.6518586
aF71.4529194
aF73.34734850000001
aF72.2709951
aF72.77566039999999
aF73.2490135
aF72.2461466
aF70.5473844
aF72.7427056
aF69.988988
aF71.3128876
aa(lp70
F72.571243
aF73.2304364
aF72.4872226
aF71.880864
aF71.557223
aF73.60085799999999
aF72.4647496
aF73.2537468
aF72.7776928
aF73.9608415
aF72.47201650000001
aF72.7575086
aa(lp71
F74.2361444
aF73.1699475
aF74.1078457
aF72.9609604
aF72.561227
aF74.3750404
aF74.0881648
aF72.7516632
aF73.5605715
aF73.0349848
aF73.1289256
aF73.4125956
aa(lp72
F74.24425620000001
aF73.2023944
aF73.56691799999999
aF73.8315052
aF73.37350980000001
aF73.234272
aF74.3132808
aF73.6837768
aF74.3353266
aF74.4231431
aF73.3803656
aF73.5547858
aa(lp73
F75.12166719999999
aF73.47342599999999
aF74.14217430000001
aF73.68575959999998
aF74.4528161
aF74.99231
aF74.65467999999998
aF74.649422
aF74.14558
aF74.6166896
aF73.7644515
aF73.9333732
aa(lp74
F74.288197
aF74.138801
aF74.2729152
aF74.6500632
aF75.53385800000001
aF74.3487239
aF75.24996279999999
aF75.10420260000001
aF74.8275032
aF74.911541
aF74.6504339
aF74.5193762
aa(lp75
F76.070634
aF75.195908
aF75.1620648
aF75.23932719999999
aF75.6674356
aF74.912431
aF75.6088145
aF75.7308332
aF75.76122459999999
aF75.21126480000001
aF75.261289
aF76.0594768
aa(lp76
F76.4772892
aF76.182827
aF76.4720279
aF76.3740512
aF76.9882456
aF76.5799462
aF76.40577259999999
aF76.35529439999999
aF76.716532
aF76.5460194
aF75.444546
aF77.3524225
aa(lp77
F77.0332008
aF77.3015576
aF77.58100200000001
aF77.1739338
aF77.758226
aF76.7526124
aF77.4363295
aF77.3993869
aF78.0406256
aF77.48150550000001
aF77.45266720000001
aF78.1205152
aa(lp78
F79.83552499999999
aF78.68769499999999
aF78.8135494
aF79.65620820000001
aF78.69523609999999
aF79.2218448
aF78.69930880000001
aF79.012654
aF79.7595309
aF78.8341638
aF79.1213745
aF78.52568600000001
aa(lp79
F83.0791718
aF81.9989386
aF81.2614818
aF81.555812
aF81.56301680000001
aF81.93612159999999
aF83.13887700000001
aF82.83662530000001
aF81.5285312
aF82.58117999999999
aF82.212094
aF82.93569819999999
aa(lp80
F93.1397078
aF88.3229372
aF88.33203699999999
aF87.0085074
aF92.0305227
aF85.66004840000001
aF84.465838
aF88.0917496
aF84.0194111
aF85.002994
aF85.800043
aF88.12236899999999
aa(lp81
F92.264882
aF95.1349384
aF97.24932749999999
aF94.1353838
aF97.24565559999999
aF95.8809514
aF118.24037659999999
aF100.9158214
aF107.75856240000002
aF92.41467270000001
aF96.8435203
aF93.26407590000001
aa(lp82
F110.65216660000002
aF107.02638900000001
aF105.9950283
aF107.21766099999999
aF126.3185875
aF110.9472468
aF113.61527099999998
aF115.68589540000002
aF120.8436335
aF107.30825340000001
aF110.67
aF106.00293070000001
aa(lp83
F118.686569
aF119.59368280000001
aF126.8579901
aF131.9830886
aF112.2038248
aF132.6607771
aF123.7980498
aF121.55400560000001
aF122.1603294
aF123.050974
aF124.205984
aF136.81689260000002
aa(lp84
F172.085675
aF152.4996496
aF181.7919856
aF129.2958772
aF118.16136599999999
aF172.6878704
aF129.31196
aF135.73154879999998
aF129.4725264
aF126.83087359999999
aF132.65667399999998
aF129.82331520000002
aa(lp85
F194.8380882
aF173.95123800000002
aF210.2054783
aF196.59930000000003
aF190.3315456
aF182.9475008
aF140.719204
aF165.08548000000002
aF163.54433699999998
aF155.51635800000003
aF172.2782096
aF152.4273848
aa(lp86
F196.1922792
aF191.9845401
aF192.4264405
aF156.92691440000002
aF160.984508
aF250.88318280000004
aF207.2409606
aF305.110232
aF179.140225
aF204.55957
aF177.01152080000003
aF244.91413320000004
aa(lp87
F257.19944150000003
aF195.1269692
aF254.8726185
aF205.77360999999996
aF322.40658659999997
aF335.76085250000006
aF178.1062759
aF279.757544
aF213.915097
aF202.2689802
aF253.951141
aF227.687031
aa(lp88
F440.0191989
aF324.0395344
aF338.1052526
aF336.2252137
aF633.9525848000001
aF328.113645
aF265.50145449999997
aF297.13214
aF347.3947075
aF482.54472109999995
aF461.2529791999999
aF422.451324
aasS'random_50'
p89
(lp90
(lp91
F71.2115892
aF72.3796657
aF75.09251929999999
aF73.78127749999999
aF72.60295439999999
aF71.8727344
aF73.0643568
aF72.6057782
aF72.035178
aF72.18500479999999
aF72.6890802
aF73.95724150000001
aa(lp92
F72.5189388
aF71.89389320000001
aF73.6912802
aF72.2022699
aF72.9135127
aF73.53584
aF72.750657
aF73.0135676
aF72.48046719999999
aF72.5746934
aF73.1032
aF73.7590951
aa(lp93
F73.4205441
aF73.77247039999999
aF73.253446
aF72.8916405
aF71.586915
aF73.38409999999999
aF73.6602653
aF72.5302112
aF73.0782906
aF72.4801537
aF73.4114919
aF73.62253799999999
aa(lp94
F73.0648556
aF73.5680538
aF74.2963483
aF73.370859
aF73.1703071
aF73.37037140000001
aF73.0084836
aF74.2755405
aF73.5697863
aF74.131349
aF73.7834444
aF72.760748
aa(lp95
F73.5210573
aF74.1214496
aF74.1245328
aF74.6395296
aF74.618128
aF74.3308605
aF73.8043054
aF74.033385
aF74.233445
aF74.4002555
aF74.4500421
aF74.7363372
aa(lp96
F74.768125
aF75.60259190000001
aF74.5564258
aF74.918284
aF75.473312
aF74.42518999999999
aF74.9040436
aF74.9144888
aF74.8434
aF74.55729690000001
aF75.5205524
aF74.73362470000001
aa(lp97
F75.94534250000001
aF74.9668284
aF75.58170279999999
aF74.9230173
aF74.79466959999999
aF74.9714312
aF75.79921730000001
aF74.924373
aF75.17207719999999
aF75.9551883
aF74.952219
aF75.6032424
aa(lp98
F76.7183661
aF76.492126
aF75.7878508
aF76.4680872
aF76.37594
aF76.95647749999999
aF76.23804319999999
aF76.02873740000001
aF75.2798132
aF76.53906599999999
aF75.828888
aF76.750059
aa(lp99
F78.0358804
aF77.68069599999998
aF78.03547
aF77.53804020000001
aF76.5275673
aF76.6868073
aF76.812917
aF77.40404339999999
aF77.2710544
aF77.76390190000001
aF78.7169869
aF78.0863124
aa(lp100
F79.2958088
aF79.00825359999999
aF79.4123764
aF78.7434408
aF78.65999640000001
aF78.712562
aF79.02530999999999
aF79.50415749999999
aF80.12107040000001
aF78.0510548
aF78.422192
aF78.02373300000001
aa(lp101
F80.86453999999999
aF80.6843576
aF81.78732
aF81.08123180000001
aF81.6390993
aF83.2675392
aF79.775192
aF81.8449928
aF81.18602339999998
aF82.9021089
aF80.3117443
aF84.62083679999999
aa(lp102
F83.1834717
aF83.56107259999999
aF89.54126649999999
aF86.77279659999999
aF86.383538
aF87.84537599999999
aF85.38460999999998
aF88.3231735
aF85.16685100000001
aF85.335564
aF89.3612698
aF84.8206648
aa(lp103
F95.2452955
aF98.83901039999999
aF94.2729224
aF100.19509980000001
aF95.46305219999999
aF91.134163
aF98.131305
aF100.18632
aF95.940958
aF89.2809201
aF100.43084479999999
aF94.16092
aa(lp104
F104.8331967
aF124.51869110000001
aF104.08965269999999
aF99.3397828
aF112.5926418
aF99.0467228
aF108.22498800000001
aF103.06582230000001
aF105.7962498
aF126.39824000000002
aF118.8410413
aF113.66053819999999
aa(lp105
F120.5076769
aF112.0893832
aF118.21752679999999
aF119.73373750000002
aF126.1716946
aF121.2966882
aF117.79085680000001
aF112.45763540000002
aF125.9883747
aF124.41163019999999
aF176.6264375
aF114.8851612
aa(lp106
F147.06109049999998
aF128.2111796
aF149.252812
aF131.897907
aF134.64517099999998
aF159.0068752
aF135.358192
aF168.8711814
aF162.53570240000002
aF139.00172500000002
aF122.07383430000002
aF126.052562
aa(lp107
F152.80152520000001
aF154.4091689
aF141.94053639999998
aF173.6600356
aF164.79763680000002
aF164.1947775
aF180.84916099999998
aF170.8796405
aF158.16703770000004
aF159.48638420000003
aF168.7292675
aF176.71563709999998
aa(lp108
F171.092904
aF257.39857839999996
aF191.44763110000002
aF203.98169919999998
aF226.105956
aF202.90469320000003
aF195.7683911
aF195.02236689999998
aF152.8309442
aF190.6860973
aF196.2417735
aF193.6164696
aa(lp109
F236.00953600000003
aF252.74510999999998
aF254.3149562
aF262.4713
aF269.331093
aF216.5113316
aF227.9310176
aF195.6951184
aF295.03270519999995
aF210.1244501
aF200.9711584
aF214.8656217
aa(lp110
F385.20863700000007
aF358.71982519999995
aF251.80278230000002
aF358.2740028
aF242.67931239999996
aF317.99396079999997
aF384.871188
aF216.37348
aF244.5875138
aF302.17197630000004
aF384.6349048
aF359.3910404
aasS'random_95'
p111
(lp112
(lp113
F87.8756266
aF107.23693130000001
aF113.6080535
aF87.74492
aF121.67219719999999
aF91.7172448
aF87.86576679999999
aF109.41958459999998
aF86.08426800000001
aF110.91103279999999
aF91.5398346
aF111.27305940000002
aa(lp114
F86.90139199999999
aF95.2615352
aF95.2977321
aF96.3598963
aF96.5668915
aF96.1895824
aF88.721472
aF89.0783814
aF107.0496112
aF85.9492382
aF92.094325
aF94.5633093
aa(lp115
F108.98034990000002
aF97.8625376
aF96.155437
aF99.62726599999999
aF92.30714250000001
aF103.64161999999999
aF101.57873420000001
aF92.619248
aF97.4057349
aF98.187649
aF100.1640947
aF108.29005199999999
aa(lp116
F115.20611530000001
aF105.74469619999999
aF110.1511157
aF103.970719
aF98.76991179999999
aF108.5695374
aF109.318984
aF117.1936365
aF109.51754079999998
aF105.67075159999999
aF98.404976
aF110.6862968
aa(lp117
F108.6787386
aF120.55137599999999
aF114.1937374
aF114.728006
aF115.62838400000001
aF116.03027619999999
aF110.5275832
aF112.35375690000001
aF120.36782500000001
aF109.07236700000001
aF114.87437370000002
aF112.24343909999999
aa(lp118
F120.952125
aF121.412552
aF116.8169169
aF121.006036
aF118.65710000000001
aF120.77778499999998
aF121.02630400000001
aF118.09616
aF113.46132
aF114.8535441
aF123.1642124
aF116.93441899999999
aa(lp119
F126.2124925
aF120.3123239
aF120.28861959999998
aF125.6581899
aF120.25997439999998
aF115.9379576
aF124.8139556
aF119.1617185
aF122.08601669999999
aF127.13869410000001
aF121.93920220000001
aF124.30108480000001
aa(lp120
F137.2149267
aF129.2605492
aF131.27098460000002
aF135.27883150000002
aF155.610984
aF130.41530369999998
aF125.4630008
aF124.4514446
aF127.87772240000001
aF130.4455282
aF126.64396860000001
aF126.346935
aa(lp121
F155.6458852
aF148.58431199999998
aF153.56894499999999
aF132.5190264
aF132.9605704
aF129.1883391
aF132.832605
aF140.62557239999998
aF135.8748688
aF129.7140079
aF154.687954
aF135.0063234
aa(lp122
F165.30288710000002
aF158.3476724
aF150.01391999999998
aF147.4633998
aF157.2464088
aF157.6897784
aF160.2673625
aF158.44534
aF192.09604159999998
aF147.2804524
aF144.05699149999998
aF151.91675
aa(lp123
F195.34362999999996
aF165.3061487
aF184.633152
aF177.381377
aF212.73862780000002
aF328.2088488
aF165.149936
aF195.40672089999998
aF181.806269
aF203.31179809999998
aF210.7771436
aF229.808156
aa(lp124
F220.62418160000001
aF231.3918662
aF314.19865
aF402.74508399999996
aF185.06681229999998
aF216.77018399999997
aF220.47598499999998
aF460.7218182999999
aF223.01993419999997
aF218.45561759999998
aF258.77627709999996
aF284.59536579999997
aa(lp125
F344.81271819999995
aF706.5425595999999
aF443.8384704
aF233.41663
aF496.58944219999995
aF948.3768954999999
aF635.9964825
aF851.5610831999999
aF490.5671970000001
aF1262.8574391
aF542.8971696
aF872.8312135
aa(lp126
F810.8504353999999
aF725.8442243000001
aF1494.6301932
aF1605.2581136
aF725.1509414
aF1292.9054384
aF722.6267184
aF1258.7277050999999
aF1067.2591776
aF930.4976600000001
aF1325.0563705999998
aF774.7688813999999
aa(lp127
F1211.2046262000001
aF1168.1685472
aF1676.1809241999997
aF1130.469425
aF1721.0784958
aF1681.0425993000001
aF973.7918000000002
aF1661.2068552000005
aF1392.4283578
aF1295.9722583999999
aF1247.484275
aF1461.7812948
aa(lp128
F1792.419306
aF2076.4952084
aF1673.5925449999997
aF1649.616291
aF1515.4685462
aF1406.3080336
aF1786.9454110000001
aF1849.9030598999998
aF1819.7539456000002
aF1355.045775
aF1959.9578628000002
aF2265.000054
aa(lp129
F1735.3783462000004
aF1956.2804720000001
aF1951.6816995999998
aF1939.7602176
aF2025.981616
aF2153.0240249999997
aF1477.871437
aF2140.8560975
aF1692.1606410000004
aF2083.7040026
aF1860.1953349999997
aF1829.3673001
aa(lp130
F2137.26228
aF2024.5553343
aF2041.6649545999999
aF2281.8457888000003
aF2301.485648
aF2288.0032904
aF2281.7938341
aF2074.0715994999996
aF2202.7381699
aF2457.9238069
aF2554.4788335000003
aF2284.604646
aa(lp131
F2697.1311056000004
aF2185.167648
aF2592.1557966
aF2403.1860775
aF2717.4874722
aF2661.633836
aF2636.4650312
aF2873.4234864
aF2561.5188556999997
aF2519.301693
aF2537.4445352000002
aF2540.137533
aa(lp132
F2763.9131190000003
aF2521.8599576
aF3082.3457465
aF2708.774766
aF2927.6990108
aF2944.3224034
aF2537.5801575
aF2876.1160080000004
aF2589.0503813
aF2949.7157533000004
aF2885.4258541
aF2921.1592459000003
aasS'minimum_x'
p133
(lp134
(lp135
I5
aI5
aI5
aI5
aI5
aI5
aI5
aI5
aI5
aI5
aI5
aI5
aa(lp136
I10
aI10
aI10
aI10
aI10
aI10
aI10
aI10
aI10
aI10
aI10
aI10
aa(lp137
I15
aI15
aI15
aI15
aI15
aI15
aI15
aI15
aI15
aI15
aI15
aI15
aa(lp138
I20
aI20
aI20
aI20
aI20
aI20
aI20
aI20
aI20
aI20
aI20
aI20
aa(lp139
I25
aI25
aI25
aI25
aI25
aI25
aI25
aI25
aI25
aI25
aI25
aI25
aa(lp140
I30
aI30
aI30
aI30
aI30
aI30
aI30
aI30
aI30
aI30
aI30
aI30
aa(lp141
I35
aI35
aI35
aI35
aI35
aI35
aI35
aI35
aI35
aI35
aI35
aI35
aa(lp142
I40
aI40
aI40
aI40
aI40
aI40
aI40
aI40
aI40
aI40
aI40
aI40
aa(lp143
I45
aI45
aI45
aI45
aI45
aI45
aI45
aI45
aI45
aI45
aI45
aI45
aa(lp144
I50
aI50
aI50
aI50
aI50
aI50
aI50
aI50
aI50
aI50
aI50
aI50
aa(lp145
I55
aI55
aI55
aI55
aI55
aI55
aI55
aI55
aI55
aI55
aI55
aI55
aa(lp146
I60
aI60
aI60
aI60
aI60
aI60
aI60
aI60
aI60
aI60
aI60
aI60
aa(lp147
I65
aI65
aI65
aI65
aI65
aI65
aI65
aI65
aI65
aI65
aI65
aI65
aa(lp148
I70
aI70
aI70
aI70
aI70
aI70
aI70
aI70
aI70
aI70
aI70
aI70
aa(lp149
I75
aI75
aI75
aI75
aI75
aI75
aI75
aI75
aI75
aI75
aI75
aI75
aa(lp150
I80
aI80
aI80
aI80
aI80
aI80
aI80
aI80
aI80
aI80
aI80
aI80
aa(lp151
I85
aI85
aI85
aI85
aI85
aI85
aI85
aI85
aI85
aI85
aI85
aI85
aa(lp152
I90
aI90
aI90
aI90
aI90
aI90
aI90
aI90
aI90
aI90
aI90
aI90
aa(lp153
I95
aI95
aI95
aI95
aI95
aI95
aI95
aI95
aI95
aI95
aI95
aI95
aa(lp154
I100
aI100
aI100
aI100
aI100
aI100
aI100
aI100
aI100
aI100
aI100
aI100
aasS'minimum_99'
p155
(lp156
(lp157
F137.87460370000002
aF166.5438464
aF125.25231840000001
aF180.1317932
aF137.10389479999998
aF161.2806684
aF137.2675632
aF188.26657400000002
aF119.0752595
aF134.07569039999998
aF156.55175759999997
aF126.9822229
aa(lp158
F145.41316899999998
aF129.648162
aF134.19741900000002
aF169.7369372
aF133.7266805
aF134.159352
aF132.4024994
aF116.839606
aF135.39336880000002
aF133.335136
aF148.63906079999998
aF133.852159
aa(lp159
F149.4664305
aF156.3156872
aF128.3253288
aF145.7168828
aF139.04994399999998
aF132.72922450000002
aF130.0113
aF133.2987228
aF122.40945340000002
aF125.8654234
aF129.0452545
aF133.3376592
aa(lp160
F133.4314815
aF135.03881379999999
aF126.15577400000002
aF128.9009566
aF131.60864
aF136.34952049999998
aF141.4398937
aF125.8760207
aF142.89708819999998
aF129.7098741
aF139.48206679999998
aF133.827968
aa(lp161
F157.8760616
aF132.5276288
aF134.6975094
aF135.91823870000002
aF129.676715
aF137.05908620000002
aF139.10604
aF131.008663
aF133.467354
aF132.19114
aF133.83889779999998
aF130.011732
aa(lp162
F144.9251812
aF141.53089310000001
aF143.5444044
aF139.70765999999998
aF137.797304
aF148.01710219999998
aF140.91234359999999
aF143.5530154
aF134.9018838
aF137.6604336
aF159.5766488
aF146.137076
aa(lp163
F146.5651834
aF154.24723379999998
aF152.8849831
aF146.18569000000002
aF149.8738645
aF148.33452699999998
aF149.0035128
aF157.7173935
aF141.6173145
aF145.6945745
aF155.4843285
aF142.12705400000002
aa(lp164
F154.58558639999998
aF173.62090300000003
aF171.19745
aF156.2798414
aF172.28766280000002
aF167.1437751
aF151.2764648
aF163.0053315
aF177.31866399999996
aF175.77590560000002
aF166.7946925
aF159.9171284
aa(lp165
F179.52428
aF179.4357097
aF174.61617120000003
aF182.09944499999997
aF217.691943
aF187.87953280000002
aF231.97788379999997
aF167.4585726
aF168.625452
aF191.09348
aF180.9918254
aF172.101416
aa(lp166
F230.99962949999997
aF204.0979316
aF215.7277053
aF327.3871694
aF268.5759444
aF222.85301
aF212.36132840000002
aF327.012096
aF227.58773960000002
aF181.00404120000002
aF182.7135844
aF269.5121536
aa(lp167
F330.18868960000003
aF282.087755
aF253.87244920000003
aF206.817406
aF307.02080750000005
aF415.4923812
aF256.24467000000004
aF287.8959752
aF226.7580512
aF579.4286435
aF222.79210079999996
aF259.57370349999997
aa(lp168
F631.6039599999999
aF550.9037012
aF655.5102461
aF250.687389
aF312.0577105
aF536.9906024
aF424.3760626
aF664.056333
aF379.47594719999995
aF280.06269000000003
aF368.1204652
aF322.45455519999996
aa(lp169
F1236.8511214000002
aF1064.0960897
aF758.63796
aF348.948279
aF832.4593693
aF322.333451
aF742.48661
aF536.7154848000001
aF556.0662376
aF1431.9718991
aF477.7733905
aF418.20556860000005
aa(lp170
F1467.6765704
aF850.0095222
aF753.6175431
aF1314.9942717
aF1299.5572904
aF1773.9461866
aF1201.4757851
aF932.954986
aF1087.3401634000002
aF591.5552045000001
aF959.8820748
aF1144.2573771999998
aa(lp171
F1960.06127
aF1739.5227395
aF1633.9503312000002
aF1672.0839675999998
aF1669.9377797999998
aF1871.0988544
aF2409.909948
aF2414.2161564000003
aF1548.6067159999998
aF1152.1728434000001
aF1750.7609803999999
aF1302.8982281
aa(lp172
F2165.3273405
aF1779.3460804999997
aF2455.3874978
aF1723.6174119999998
aF2288.2002665
aF1865.1430029
aF1831.187626
aF2602.6261440000003
aF2239.6699432
aF1780.6375725999999
aF1938.8446615
aF2674.2850035
aa(lp173
F2346.0789772000003
aF2680.491987
aF2495.4309835999998
aF2549.8319605
aF2353.309695
aF2918.4073274
aF2349.3850145
aF2561.3358778
aF2737.6169630000004
aF2430.7802315000004
aF2672.241609
aF2056.2142976
aa(lp174
F2501.0255336
aF2962.7749802000003
aF2912.7687866
aF3022.3967652
aF3151.0292767999995
aF3101.430384
aF2399.8224686999997
aF2828.8629441
aF2394.1890734999997
aF2694.5317093999997
aF3360.7304432
aF3422.494618
aa(lp175
F3245.5196825000003
aF3166.5256864
aF3431.9962133000004
aF3322.0379244
aF3560.8341182
aF3093.9032116000003
aF3572.9811792
aF3267.3525909
aF2922.3487416000003
aF3096.6541857999996
aF3414.482395
aF3262.7207125
aa(lp176
F3575.777452
aF3509.5667727999994
aF3643.1850641
aF3882.3076349000003
aF3605.2601855999997
aF3928.1433211999997
aF3842.458049899999
aF3670.0335676
aF4016.3113388000006
aF3731.838073
aF3771.0833151
aF3163.8264904
aasS'minimum_50'
p177
(lp178
(lp179
F73.5558778
aF72.3741824
aF70.8611288
aF72.3971088
aF72.71709179999999
aF72.89076159999999
aF73.5480728
aF72.76949780000001
aF71.309519
aF71.6770068
aF72.893968
aF72.551281
aa(lp180
F71.8848301
aF74.2877625
aF72.4841534
aF72.4411051
aF74.44082929999999
aF73.59171359999999
aF72.7728098
aF73.163353
aF73.2488972
aF72.483709
aF73.0499752
aF73.131441
aa(lp181
F74.5844541
aF73.2063992
aF74.3822024
aF73.630896
aF73.2157491
aF74.177992
aF73.6098826
aF73.9387108
aF72.7785926
aF72.2604716
aF73.256697
aF72.181524
aa(lp182
F73.7867813
aF74.2493485
aF72.9684216
aF73.7774156
aF73.3205624
aF73.4280455
aF73.63316900000001
aF72.4407295
aF73.8771704
aF73.2927943
aF73.6838672
aF73.5488596
aa(lp183
F74.5462634
aF73.9256096
aF74.2439559
aF73.67471570000001
aF73.68474599999999
aF75.2113814
aF74.256868
aF74.360087
aF74.304982
aF74.64669799999999
aF74.9661575
aF73.619676
aa(lp184
F74.96483380000001
aF74.3648606
aF74.9157024
aF75.17824499999999
aF74.3304455
aF74.3947982
aF74.759665
aF74.5560649
aF74.43366180000001
aF74.5496912
aF75.3519738
aF74.0693524
aa(lp185
F75.3592675
aF75.50332739999999
aF74.9662867
aF75.17035369999999
aF75.366082
aF75.374119
aF75.6098664
aF75.3778695
aF75.4863965
aF75.1124044
aF75.6367197
aF75.173846
aa(lp186
F76.0206944
aF76.3602194
aF76.0695
aF76.3904507
aF76.85848440000001
aF76.4652417
aF75.4686749
aF76.5924669
aF76.1286154
aF76.3899768
aF76.5572789
aF76.5076072
aa(lp187
F77.77958000000001
aF77.5230226
aF77.2212872
aF77.5173085
aF77.33431680000001
aF76.9932878
aF77.0519978
aF77.1612171
aF77.90394
aF77.87856500000001
aF77.47665620000001
aF76.73288
aa(lp188
F78.573101
aF78.6751432
aF77.7208825
aF80.08511720000001
aF79.55089000000001
aF80.4074354
aF80.0482708
aF78.9984
aF80.4574112
aF78.6392688
aF79.27166120000001
aF79.5473732
aa(lp189
F81.48780640000001
aF82.9661873
aF81.16691080000001
aF79.6916149
aF81.2422341
aF81.84122819999999
aF81.3773334
aF82.7340628
aF82.8163904
aF80.96990050000001
aF81.95088489999999
aF81.6500665
aa(lp190
F85.01464
aF87.44147140000001
aF87.5994145
aF83.95419369999999
aF87.5009695
aF86.95950289999999
aF88.37956679999999
aF86.744399
aF86.089676
aF86.2756575
aF85.8768256
aF86.7911824
aa(lp191
F89.46482080000001
aF98.718636
aF90.8337669
aF89.2376061
aF110.17820130000001
aF99.179891
aF91.24671000000001
aF96.1968032
aF96.3553776
aF94.2098106
aF98.4888775
aF96.0573858
aa(lp192
F107.1606292
aF116.63547539999999
aF112.62712379999999
aF108.1780395
aF109.7427032
aF124.66505349999998
aF105.8171405
aF115.39876860000001
aF128.4592768
aF110.33050600000001
aF105.70225920000001
aF121.2794868
aa(lp193
F125.612465
aF124.03413049999999
aF120.13490560000001
aF117.78470639999998
aF127.95979679999999
aF115.06556
aF111.1538296
aF117.2618408
aF116.444036
aF140.56037490000003
aF119.3699882
aF139.8953357
aa(lp194
F133.6836391
aF129.18613689999998
aF148.5594106
aF141.4503925
aF137.2880296
aF134.8058312
aF148.357894
aF122.55053760000001
aF131.6566178
aF130.5729466
aF145.1744501
aF138.6319015
aa(lp195
F158.0112676
aF164.18122169999998
aF147.4674944
aF217.0223385
aF167.60804960000002
aF142.437884
aF169.19363750000002
aF148.5851149
aF155.69987
aF174.4007736
aF164.28552500000004
aF187.1602332
aa(lp196
F267.12529440000003
aF154.3957231
aF190.58664700000003
aF188.93830989999998
aF230.9717408
aF193.271872
aF257.755908
aF274.3604886
aF274.066179
aF194.350269
aF264.53867679999996
aF186.54211600000002
aa(lp197
F270.1969214
aF235.3479764
aF305.3144936
aF278.1034392
aF237.958973
aF244.5685345
aF184.3602732
aF305.7209115
aF293.64388959999997
aF270.1061097
aF337.24369
aF336.79407910000003
aa(lp198
F460.89604799999995
aF231.62590079999998
aF373.9075819
aF318.0650852
aF297.3282752
aF210.622613
aF326.5161946999999
aF250.0737774
aF297.5982065
aF258.754215
aF358.7358253
aF403.0800392
aasS'random_x'
p199
(lp200
(lp201
I5
aI5
aI5
aI5
aI5
aI5
aI5
aI5
aI5
aI5
aI5
aI5
aa(lp202
I10
aI10
aI10
aI10
aI10
aI10
aI10
aI10
aI10
aI10
aI10
aI10
aa(lp203
I15
aI15
aI15
aI15
aI15
aI15
aI15
aI15
aI15
aI15
aI15
aI15
aa(lp204
I20
aI20
aI20
aI20
aI20
aI20
aI20
aI20
aI20
aI20
aI20
aI20
aa(lp205
I25
aI25
aI25
aI25
aI25
aI25
aI25
aI25
aI25
aI25
aI25
aI25
aa(lp206
I30
aI30
aI30
aI30
aI30
aI30
aI30
aI30
aI30
aI30
aI30
aI30
aa(lp207
I35
aI35
aI35
aI35
aI35
aI35
aI35
aI35
aI35
aI35
aI35
aI35
aa(lp208
I40
aI40
aI40
aI40
aI40
aI40
aI40
aI40
aI40
aI40
aI40
aI40
aa(lp209
I45
aI45
aI45
aI45
aI45
aI45
aI45
aI45
aI45
aI45
aI45
aI45
aa(lp210
I50
aI50
aI50
aI50
aI50
aI50
aI50
aI50
aI50
aI50
aI50
aI50
aa(lp211
I55
aI55
aI55
aI55
aI55
aI55
aI55
aI55
aI55
aI55
aI55
aI55
aa(lp212
I60
aI60
aI60
aI60
aI60
aI60
aI60
aI60
aI60
aI60
aI60
aI60
aa(lp213
I65
aI65
aI65
aI65
aI65
aI65
aI65
aI65
aI65
aI65
aI65
aI65
aa(lp214
I70
aI70
aI70
aI70
aI70
aI70
aI70
aI70
aI70
aI70
aI70
aI70
aa(lp215
I75
aI75
aI75
aI75
aI75
aI75
aI75
aI75
aI75
aI75
aI75
aI75
aa(lp216
I80
aI80
aI80
aI80
aI80
aI80
aI80
aI80
aI80
aI80
aI80
aI80
aa(lp217
I85
aI85
aI85
aI85
aI85
aI85
aI85
aI85
aI85
aI85
aI85
aI85
aa(lp218
I90
aI90
aI90
aI90
aI90
aI90
aI90
aI90
aI90
aI90
aI90
aI90
aa(lp219
I95
aI95
aI95
aI95
aI95
aI95
aI95
aI95
aI95
aI95
aI95
aI95
aa(lp220
I100
aI100
aI100
aI100
aI100
aI100
aI100
aI100
aI100
aI100
aI100
aI100
aasS'single_x'
p221
(lp222
(lp223
I5
aI5
aI5
aI5
aI5
aI5
aI5
aI5
aI5
aI5
aI5
aI5
aa(lp224
I10
aI10
aI10
aI10
aI10
aI10
aI10
aI10
aI10
aI10
aI10
aI10
aa(lp225
I15
aI15
aI15
aI15
aI15
aI15
aI15
aI15
aI15
aI15
aI15
aI15
aa(lp226
I20
aI20
aI20
aI20
aI20
aI20
aI20
aI20
aI20
aI20
aI20
aI20
aa(lp227
I25
aI25
aI25
aI25
aI25
aI25
aI25
aI25
aI25
aI25
aI25
aI25
aa(lp228
I30
aI30
aI30
aI30
aI30
aI30
aI30
aI30
aI30
aI30
aI30
aI30
aa(lp229
I35
aI35
aI35
aI35
aI35
aI35
aI35
aI35
aI35
aI35
aI35
aI35
aa(lp230
I40
aI40
aI40
aI40
aI40
aI40
aI40
aI40
aI40
aI40
aI40
aI40
aa(lp231
I45
aI45
aI45
aI45
aI45
aI45
aI45
aI45
aI45
aI45
aI45
aI45
aa(lp232
I50
aI50
aI50
aI50
aI50
aI50
aI50
aI50
aI50
aI50
aI50
aI50
aa(lp233
I55
aI55
aI55
aI55
aI55
aI55
aI55
aI55
aI55
aI55
aI55
aI55
aa(lp234
I60
aI60
aI60
aI60
aI60
aI60
aI60
aI60
aI60
aI60
aI60
aI60
aa(lp235
I65
aI65
aI65
aI65
aI65
aI65
aI65
aI65
aI65
aI65
aI65
aI65
aa(lp236
I70
aI70
aI70
aI70
aI70
aI70
aI70
aI70
aI70
aI70
aI70
aI70
aa(lp237
I75
aI75
aI75
aI75
aI75
aI75
aI75
aI75
aI75
aI75
aI75
aI75
aa(lp238
I80
aI80
aI80
aI80
aI80
aI80
aI80
aI80
aI80
aI80
aI80
aI80
aa(lp239
I85
aI85
aI85
aI85
aI85
aI85
aI85
aI85
aI85
aI85
aI85
aI85
aa(lp240
I90
aI90
aI90
aI90
aI90
aI90
aI90
aI90
aI90
aI90
aI90
aI90
aa(lp241
I95
aI95
aI95
aI95
aI95
aI95
aI95
aI95
aI95
aI95
aI95
aI95
aa(lp242
I100
aI100
aI100
aI100
aI100
aI100
aI100
aI100
aI100
aI100
aI100
aI100
aasS'minimum_95'
p243
(lp244
(lp245
F94.9046624
aF107.4173568
aF103.47185730000001
aF95.6661924
aF105.71787259999999
aF86.658836
aF115.6664628
aF113.76216930000001
aF84.6958175
aF86.9050764
aF110.61900039999998
aF103.51539310000001
aa(lp246
F102.172075
aF93.17952299999999
aF111.61939500000001
aF103.4531276
aF103.19284729999998
aF93.8612016
aF105.3772832
aF88.08924999999999
aF107.30237120000001
aF100.110581
aF103.9699888
aF109.41611900000001
aa(lp247
F108.95621459999998
aF103.53894160000002
aF102.46487199999999
aF106.865066
aF100.47286059999999
aF97.67908650000001
aF100.2304684
aF107.0580308
aF90.3687986
aF97.45889740000001
aF96.58764099999999
aF108.1142424
aa(lp248
F104.98510189999999
aF106.36504309999998
aF101.5938016
aF108.78738560000001
aF109.51351120000001
aF111.0456155
aF118.09835029999999
aF107.6254298
aF111.5678554
aF106.26406639999999
aF101.662358
aF109.771486
aa(lp249
F114.30374359999999
aF112.55516560000001
aF110.4593241
aF114.83307200000002
aF109.7720555
aF117.61198230000001
aF110.441796
aF109.183122
aF116.63153359999998
aF110.83527699999999
aF115.89476499999998
aF108.4840155
aa(lp250
F121.6186
aF118.92199910000001
aF117.7763972
aF118.80376499999998
aF113.908772
aF114.29545759999999
aF114.636251
aF115.95423519999999
aF112.7078688
aF118.30195040000001
aF120.95284299999999
aF116.482788
aa(lp251
F122.50372150000001
aF125.71258799999998
aF120.94371609999999
aF122.17331010000001
aF125.541775
aF119.3965705
aF122.32831200000001
aF124.749057
aF118.9166705
aF123.34040630000001
aF122.85704199999999
aF121.04132500000001
aa(lp252
F121.6688672
aF134.0880204
aF131.59412500000002
aF125.1938144
aF132.09598540000002
aF132.2255697
aF122.1108686
aF128.2391449
aF131.01008459999997
aF131.8049286
aF130.9151999
aF126.68645849999999
aa(lp253
F138.33767
aF139.033147
aF140.44082920000002
aF141.5710905
aF145.491518
aF148.1435995
aF147.0579272
aF135.6622656
aF138.198738
aF144.9109898
aF142.56138800000002
aF138.2534615
aa(lp254
F165.0153145
aF157.1395656
aF163.6983951
aF237.09467840000002
aF179.89716190000001
aF164.5574244
aF170.7081048
aF225.901184
aF179.5933544
aF139.6719276
aF143.1244264
aF180.74669120000001
aa(lp255
F209.05171760000002
aF210.37430329999998
aF187.2080032
aF159.2533345
aF216.9416739
aF313.726638
aF165.4634234
aF207.88635920000002
aF176.94076160000003
aF482.2335360000001
aF175.3991272
aF180.27392049999997
aa(lp256
F372.039504
aF451.24822300000005
aF405.4384584
aF190.0831488
aF240.7944235
aF422.65005199999996
aF350.4945416
aF454.75145699999996
aF256.5635958
aF209.6576925
aF295.6278424
aF247.6139536
aa(lp257
F1145.8851108000001
aF813.7073755
aF527.3597031
aF266.0449848
aF708.8239959
aF255.97079100000002
aF274.90744
aF403.83413040000005
aF384.9823232
aF1166.3507315
aF409.5128773
aF277.8031096
aa(lp258
F1052.2228488
aF723.1204727999999
aF689.4498318000001
aF1143.048674
aF1057.7580044
aF1491.2175132999998
aF883.0770160999999
aF670.9826376999999
aF948.3221492
aF472.68720980000006
aF670.754226
aF1053.2347988
aa(lp259
F1758.0905149999999
aF1220.3241819999998
aF1401.4195904
aF1233.5765238
aF1380.9673238999999
aF1299.6804992
aF1889.2857399999998
aF1698.4893408
aF1195.8337708
aF895.2593388000001
aF1473.466115
aF1048.9513940000002
aa(lp260
F1673.0933550000002
aF1336.4338186999998
aF1902.0154422
aF1193.365273
aF1591.1611936999998
aF1348.6307271
aF1423.761579
aF1926.0237696000002
aF1745.9293880999999
aF1518.6946893
aF1603.9671181
aF1979.9724039999999
aa(lp261
F1904.4576135999998
aF1973.0757770999996
aF2090.2762172
aF1932.246921
aF2001.5934080000002
aF2098.2274952000002
aF1654.8107705000002
aF1895.9425813
aF2215.9771520000004
aF2108.4770261000003
aF1768.1334370000004
aF1650.7979404000002
aa(lp262
F2012.180836
aF2162.1582776
aF2329.1273623
aF2270.9662977
aF2265.7838432
aF2208.410648
aF1763.5034588999995
aF2329.0364531
aF2018.957817
aF2287.0969004999997
aF2476.9103536000002
aF2420.9751625000004
aa(lp263
F2517.2652614
aF2268.5270596
aF2420.6077484
aF2388.4785738
aF2870.8868341999996
aF2384.1862438000003
aF2571.987888
aF2259.8980835999996
aF2532.00142
aF2237.6654819
aF2579.0247725
aF2657.8314628000003
aa(lp264
F2780.3535727999997
aF2629.549792
aF2502.6766852
aF2883.242738
aF2593.6793088
aF2828.53724
aF2840.9573062999993
aF2583.8727928
aF3035.6407395000006
aF2946.8424609999997
aF2873.6367139
aF2569.3711952
aas.