(dp0
S'single_99'
p1
(lp2
(lp3
F90.9552252
aF0.0
aF91.1831994
aa(lp4
F113.9151372
aF113.1071637
aF112.1630935
aa(lp5
F122.44814559999999
aF122.41017900000001
aF122.3358384
aa(lp6
F125.9445968
aF126.37889200000001
aF125.97910000000002
aa(lp7
F129.6380044
aF128.7016312
aF128.4600064
aa(lp8
F130.8323379
aF131.4708032
aF131.2299523
aa(lp9
F133.8693332
aF134.87864760000002
aF135.27311699999998
aa(lp10
F139.958655
aF141.2021216
aF140.0701128
aa(lp11
F146.79272740000002
aF148.030709
aF147.22760580000002
aa(lp12
F156.9482708
aF156.6646525
aF157.604187
aa(lp13
F167.56429500000002
aF169.2496761
aF171.2701218
aa(lp14
F180.83198760000002
aF180.68799380000002
aF180.0916896
aa(lp15
F195.34667560000003
aF194.955909
aF198.11139980000002
aa(lp16
F221.7510636
aF223.425656
aF219.6044776
aa(lp17
F256.111137
aF252.151407
aF251.2387646
aa(lp18
F289.4323724
aF301.40004799999997
aF297.58570399999996
aa(lp19
F364.6817823
aF392.09003040000005
aF379.6023688
aa(lp20
F644.2816782
aF569.64971
aF570.5229954000001
aa(lp21
F1507.4381815999998
aF982.7763242
aF1783.0884512
aa(lp22
F8272.103932
aF7050.0877472
aF8743.1560034
aasS'minimum_50'
p23
(lp24
(lp25
F75.217512
aF75.2203136
aF75.3238799
aa(lp26
F75.3042148
aF75.281992
aF75.2090104
aa(lp27
F75.44675079999999
aF75.45119679999999
aF75.5030554
aa(lp28
F75.5820675
aF75.59058
aF75.5612769
aa(lp29
F75.79578620000001
aF75.851248
aF75.85054009999999
aa(lp30
F76.03164960000001
aF76.1358556
aF76.0924082
aa(lp31
F76.431439
aF76.48339279999999
aF76.45807500000001
aa(lp32
F76.7887725
aF76.75812400000001
aF76.80363700000001
aa(lp33
F77.3570852
aF77.3253978
aF77.299172
aa(lp34
F77.93333190000001
aF77.8971263
aF77.8545
aa(lp35
F78.82450879999999
aF78.7186344
aF78.624052
aa(lp36
F79.7286992
aF79.8805476
aF79.7557534
aa(lp37
F81.26648
aF81.3279474
aF81.16355519999999
aa(lp38
F83.6213171
aF83.768975
aF83.8448061
aa(lp39
F87.74751
aF88.762735
aF88.32388879999999
aa(lp40
F98.5918178
aF99.8867184
aF98.84799699999999
aa(lp41
F114.1254208
aF115.1201785
aF115.89785359999999
aa(lp42
F137.7353017
aF136.881645
aF138.0085492
aa(lp43
F221.3653736
aF209.1543308
aF223.2774897
aa(lp44
F1271.1237072000001
aF1074.367444
aF1113.5850044000001
aasS'random_99'
p45
(lp46
(lp47
F90.9004948
aF91.128436
aF90.76390520000001
aa(lp48
F112.99659709999999
aF113.34749090000001
aF113.73571960000001
aa(lp49
F122.30767660000001
aF122.19204099999999
aF123.1756817
aa(lp50
F125.90176000000001
aF125.6414682
aF125.6896964
aa(lp51
F127.7302602
aF128.69590010000002
aF128.7740304
aa(lp52
F131.4225553
aF131.61677809999998
aF131.32775199999998
aa(lp53
F134.5654215
aF134.5936872
aF135.3890654
aa(lp54
F139.92870499999998
aF140.3616695
aF138.8161275
aa(lp55
F149.1628926
aF148.6754642
aF147.9715648
aa(lp56
F157.57929339999998
aF157.104589
aF156.2943786
aa(lp57
F168.5543883
aF168.0415838
aF170.02430169999997
aa(lp58
F179.0419946
aF182.7986124
aF181.19031620000004
aa(lp59
F200.46683520000002
aF197.4497389
aF195.28384319999998
aa(lp60
F219.82542610000002
aF223.13955180000002
aF217.0954532
aa(lp61
F253.4710576
aF241.66648689999997
aF246.6406778
aa(lp62
F302.3588993
aF313.0859628
aF299.79343120000004
aa(lp63
F417.3092966000001
aF389.5390725
aF371.38961439999997
aa(lp64
F554.848828
aF597.9596925
aF576.3952211999999
aa(lp65
F1421.3772476
aF908.8828949999998
aF1598.849887
aa(lp66
F8792.068645
aF6967.0124884
aF8755.532297
aasS'random_soj_95'
p67
(lp68
(lp69
F74.1142
aF76.91900000000001
aF74.282
aa(lp70
F75.2807
aF77.5939
aF75.5298
aa(lp71
F76.9359
aF76.76079999999999
aF77.83160000000001
aa(lp72
F84.5432
aF81.624
aF76.0524
aa(lp73
F90.5421
aF86.64519999999999
aF87.94659999999999
aa(lp74
F95.7572
aF104.017
aF91.73750000000001
aa(lp75
F100.8831
aF102.68520000000001
aF100.3948
aa(lp76
F110.5445
aF107.933
aF109.51809999999999
aa(lp77
F118.7832
aF123.1006
aF107.598
aa(lp78
F114.6884
aF115.0484
aF111.4358
aa(lp79
F117.989
aF117.66
aF123.24019999999999
aa(lp80
F125.702
aF130.3207
aF126.5495
aa(lp81
F146.6592
aF137.865
aF144.2084
aa(lp82
F157.56
aF159.5988
aF157.7525
aa(lp83
F187.791
aF176.99
aF170.793
aa(lp84
F211.4396
aF217.8656
aF206.84349999999998
aa(lp85
F266.3023
aF267.3795
aF259.7296
aa(lp86
F382.94739999999996
aF383.97679999999997
aF364.304
aa(lp87
F1066.9865
aF661.5026
aF962.2399999999999
aa(lp88
F5949.8412
aF4630.263
aF6399.3604000000005
aasS'single_soj_95'
p89
(lp90
(lp91
F76.625
aF0.0
aF76.5172
aa(lp92
F75.3378
aF74.1505
aF75.1927
aa(lp93
F79.28659999999999
aF77.76259999999999
aF74.892
aa(lp94
F81.7338
aF82.09039999999999
aF75.738
aa(lp95
F91.2918
aF85.45
aF88.4136
aa(lp96
F96.0692
aF94.08099999999999
aF101.36800000000001
aa(lp97
F100.655
aF99.53859999999999
aF101.1688
aa(lp98
F107.319
aF108.62759999999999
aF104.37
aa(lp99
F111.25599999999999
aF107.4244
aF115.40979999999999
aa(lp100
F126.7991
aF119.16940000000001
aF119.1128
aa(lp101
F119.50399999999999
aF120.4264
aF121.8408
aa(lp102
F130.4275
aF140.35649999999998
aF128.836
aa(lp103
F149.13
aF147.2412
aF140.07600000000002
aa(lp104
F159.382
aF157.26559999999998
aF157.3653
aa(lp105
F179.6324
aF179.8668
aF180.01839999999999
aa(lp106
F205.4016
aF213.544
aF216.2634
aa(lp107
F257.04
aF273.0
aF266.22270000000003
aa(lp108
F405.1741
aF368.7732
aF385.925
aa(lp109
F760.6854000000001
aF664.7128
aF1089.4687000000001
aa(lp110
F6867.5508
aF5707.5864
aF5606.2292
aasS'random_soj_99'
p111
(lp112
(lp113
F78.65719999999999
aF82.19
aF78.7596
aa(lp114
F98.7047
aF101.19630000000001
aF98.06840000000001
aa(lp115
F105.1553
aF105.382
aF107.7226
aa(lp116
F118.16
aF113.628
aF105.64580000000001
aa(lp117
F119.8653
aF113.9669
aF115.3852
aa(lp118
F117.4451
aF127.6789
aF113.7
aa(lp119
F119.6153
aF120.9024
aF118.80460000000001
aa(lp120
F129.3225
aF126.5003
aF127.0561
aa(lp121
F143.4452
aF148.25959999999998
aF128.478
aa(lp122
F141.8978
aF140.8952
aF136.50979999999998
aa(lp123
F149.3098
aF150.1814
aF157.3782
aa(lp124
F160.6511
aF167.6946
aF164.2081
aa(lp125
F190.7556
aF178.1547
aF185.1328
aa(lp126
F205.0664
aF210.8612
aF202.913
aa(lp127
F252.42719999999997
aF229.2345
aF229.45319999999998
aa(lp128
F285.1436
aF296.8676
aF280.3884
aa(lp129
F400.09060000000005
aF365.7125
aF352.8688
aa(lp130
F551.4168
aF579.1505
aF557.3739999999999
aa(lp131
F1400.7538000000002
aF906.2458
aF1576.0759999999998
aa(lp132
F8774.47
aF6965.706
aF8732.1777
aasS'single_soj_99'
p133
(lp134
(lp135
F81.3374
aF0.0
aF81.3948
aa(lp136
F97.55160000000001
aF96.3643
aF97.5073
aa(lp137
F109.56020000000001
aF107.6699
aF103.7106
aa(lp138
F112.6608
aF114.29599999999999
aF104.25
aa(lp139
F121.1574
aF113.236
aF117.6888
aa(lp140
F118.1588
aF115.49919999999999
aF123.40320000000001
aa(lp141
F118.012
aF115.9816
aF119.057
aa(lp142
F126.3825
aF126.96719999999999
aF121.94000000000001
aa(lp143
F132.0304
aF127.921
aF137.55259999999998
aa(lp144
F156.4254
aF146.4142
aF147.213
aa(lp145
F151.89999999999998
aF153.11239999999998
aF156.00080000000003
aa(lp146
F167.0727
aF180.1815
aF165.3664
aa(lp147
F191.57999999999998
aF189.756
aF181.7824
aa(lp148
F210.169
aF208.30399999999997
aF205.3704
aa(lp149
F241.871
aF237.5468
aF239.6024
aa(lp150
F277.7536
aF289.032
aF294.3648
aa(lp151
F353.0656
aF376.5
aF366.9651
aa(lp152
F625.4114
aF552.64
aF563.7587
aa(lp153
F1489.2756000000002
aF962.1525999999999
aF1761.2544
aa(lp154
F8244.952
aF7033.0152
aF8713.5734
aasS'single_95'
p155
(lp156
(lp157
F85.36125
aF0.0
aF85.4876366
aa(lp158
F86.3933226
aF85.9493295
aF86.06540650000001
aa(lp159
F87.1952048
aF87.59214600000001
aF87.562288
aa(lp160
F90.2552048
aF90.0384508
aF90.2605336
aa(lp161
F98.09017080000001
aF96.82469
aF96.41342079999998
aa(lp162
F105.70216110000001
aF106.656176
aF107.4808895
aa(lp163
F113.8437455
aF114.88821210000002
aF114.7468728
aa(lp164
F119.060226
aF120.20939280000002
aF119.73198440000002
aa(lp165
F123.029086
aF123.64750760000001
aF123.43803340000001
aa(lp166
F127.39152820000001
aF127.04969249999999
aF127.4181272
aa(lp167
F131.97068520000002
aF133.1317846
aF133.16926180000002
aa(lp168
F140.67037000000002
aF140.9934038
aF139.92710399999999
aa(lp169
F151.97041660000002
aF151.5951543
aF152.72511450000002
aa(lp170
F167.93164080000003
aF168.96987839999997
aF167.8172707
aa(lp171
F190.7684028
aF190.603207
aF189.4936286
aa(lp172
F213.93615440000002
aF223.102816
aF220.39416949999998
aa(lp173
F266.2955075
aF285.0435408
aF276.5264776
aa(lp174
F419.4914083
aF381.7060173
aF391.4093500000001
aa(lp175
F771.7192643999998
aF680.7345576
aF1104.0987051
aa(lp176
F6891.393405299998
aF5722.5995104
aF5628.014569199999
aasS'single_50'
p177
(lp178
(lp179
F75.19038599999999
aF0.0
aF75.20162020000001
aa(lp180
F75.26877959999999
aF75.24075260000001
aF75.2196145
aa(lp181
F75.40102239999999
aF75.467601
aF75.4522512
aa(lp182
F75.5698976
aF75.67044940000001
aF75.53000740000002
aa(lp183
F76.01315199999999
aF75.9078135
aF75.74786559999998
aa(lp184
F76.0464228
aF76.1383392
aF76.10632890000001
aa(lp185
F76.4208059
aF76.5150375
aF76.37430989999999
aa(lp186
F76.7029632
aF76.8400332
aF76.8679608
aa(lp187
F77.3247073
aF77.1541151
aF77.34044560000001
aa(lp188
F78.0209146
aF77.9353475
aF77.9588888
aa(lp189
F78.72310200000001
aF78.8636747
aF78.685032
aa(lp190
F79.88949920000002
aF79.9519454
aF79.802928
aa(lp191
F81.37287280000001
aF81.0941009
aF81.15071710000001
aa(lp192
F83.854887
aF83.79342159999999
aF83.7988651
aa(lp193
F88.66398949999999
aF89.224529
aF88.58907740000001
aa(lp194
F99.54986780000002
aF99.77886720000001
aF99.06528699999998
aa(lp195
F115.181691
aF114.26043360000001
aF114.7545928
aa(lp196
F144.1258717
aF139.8332908
aF138.91724240000002
aa(lp197
F220.55821279999998
aF214.67010979999998
aF236.1458704
aa(lp198
F1108.3648761999998
aF951.6551696
aF1095.2878028999999
aasS'random_50'
p199
(lp200
(lp201
F74.849075
aF74.80054480000001
aF74.7987428
aa(lp202
F74.9949257
aF74.9362415
aF74.9620225
aa(lp203
F75.16832740000001
aF75.13661439999998
aF75.1863101
aa(lp204
F75.3656512
aF75.3206885
aF75.2508952
aa(lp205
F75.4968348
aF75.66044210000001
aF75.6427668
aa(lp206
F75.8524792
aF75.9350205
aF75.8101162
aa(lp207
F76.278978
aF76.22527980000001
aF76.3222199
aa(lp208
F76.690055
aF76.7200785
aF76.602915
aa(lp209
F77.26765180000001
aF77.1279724
aF77.188624
aa(lp210
F77.88908459999999
aF77.79356999999999
aF77.7224265
aa(lp211
F78.69368879999999
aF78.6824216
aF78.7665141
aa(lp212
F79.77905419999999
aF79.6537002
aF79.81568440000001
aa(lp213
F81.23925120000001
aF81.4086137
aF81.2582979
aa(lp214
F83.61615330000001
aF83.76668910000001
aF83.7471744
aa(lp215
F88.72441839999999
aF88.3922504
aF88.29879740000001
aa(lp216
F99.8082348
aF100.21397
aF99.16356920000001
aa(lp217
F115.62567140000002
aF114.59549699999998
aF114.90939829999999
aa(lp218
F140.078101
aF139.9485325
aF138.89577559999998
aa(lp219
F234.82971360000002
aF216.0061725
aF229.73539
aa(lp220
F1209.6819112
aF1255.418223
aF1029.786679
aasS'random_95'
p221
(lp222
(lp223
F85.1731578
aF85.1716036
aF85.271434
aa(lp224
F86.06296509999999
aF85.7961877
aF86.13805620000001
aa(lp225
F87.60136980000001
aF87.5108204
aF87.6561222
aa(lp226
F89.8637152
aF89.3189856
aF89.8097592
aa(lp227
F95.79631140000001
aF96.7805908
aF97.18422319999999
aa(lp228
F106.30311160000001
aF107.359193
aF106.092463
aa(lp229
F113.9522305
aF113.76115809999999
aF114.64866520000001
aa(lp230
F119.60358099999999
aF119.381145
aF119.26717749999999
aa(lp231
F123.7466116
aF123.55890869999999
aF123.5781568
aa(lp232
F127.3248652
aF127.5321755
aF127.57356060000001
aa(lp233
F132.8811815
aF132.23322000000002
aF133.0377987
aa(lp234
F140.006372
aF141.4350858
aF140.25759900000003
aa(lp235
F153.8378864
aF152.821255
aF151.9643571
aa(lp236
F168.82081500000004
aF168.5931382
aF168.419241
aa(lp237
F188.946778
aF186.12759799999998
aF183.9143345
aa(lp238
F223.8911973
aF229.3667568
aF220.934033
aa(lp239
F280.06797530000006
aF285.23643229999993
aF274.0716748
aa(lp240
F386.011229
aF398.876068
aF377.65255519999994
aa(lp241
F1083.385423
aF665.3373149999999
aF978.3248799999999
aa(lp242
F5963.425804199999
aF4632.7615182
aF6417.730643999999
aasS'minimum_x'
p243
(lp244
(lp245
I5
aI5
aI5
aa(lp246
I10
aI10
aI10
aa(lp247
I15
aI15
aI15
aa(lp248
I20
aI20
aI20
aa(lp249
I25
aI25
aI25
aa(lp250
I30
aI30
aI30
aa(lp251
I35
aI35
aI35
aa(lp252
I40
aI40
aI40
aa(lp253
I45
aI45
aI45
aa(lp254
I50
aI50
aI50
aa(lp255
I55
aI55
aI55
aa(lp256
I60
aI60
aI60
aa(lp257
I65
aI65
aI65
aa(lp258
I70
aI70
aI70
aa(lp259
I75
aI75
aI75
aa(lp260
I80
aI80
aI80
aa(lp261
I85
aI85
aI85
aa(lp262
I90
aI90
aI90
aa(lp263
I95
aI95
aI95
aa(lp264
I100
aI100
aI100
aasS'minimum_soj_95'
p265
(lp266
(lp267
F72.94720000000001
aF75.756
aF70.7885
aa(lp268
F74.964
aF72.5532
aF73.58080000000001
aa(lp269
F76.6747
aF76.0955
aF74.66
aa(lp270
F78.9992
aF82.3343
aF80.172
aa(lp271
F83.416
aF86.94659999999999
aF87.4496
aa(lp272
F94.8329
aF94.79
aF101.6385
aa(lp273
F100.1008
aF105.7
aF108.25999999999999
aa(lp274
F107.2339
aF108.4648
aF102.13300000000001
aa(lp275
F113.205
aF110.4195
aF109.6746
aa(lp276
F118.8688
aF109.7752
aF113.8299
aa(lp277
F117.9888
aF120.8596
aF121.96549999999999
aa(lp278
F128.30360000000002
aF131.1386
aF129.9657
aa(lp279
F143.7861
aF139.1133
aF140.5557
aa(lp280
F159.11260000000001
aF157.6986
aF156.6401
aa(lp281
F176.6
aF182.92690000000002
aF174.072
aa(lp282
F212.2952
aF216.2928
aF206.7955
aa(lp283
F267.06
aF264.9296
aF287.9336
aa(lp284
F382.58500000000004
aF346.35339999999997
aF361.47020000000003
aa(lp285
F971.3216
aF693.1216000000001
aF761.1152000000001
aa(lp286
F4064.8
aF6894.02
aF4580.8733
aasS'minimum_99'
p287
(lp288
(lp289
F90.33651520000001
aF91.2522572
aF90.8417762
aa(lp290
F113.950217
aF113.62471199999999
aF114.4077174
aa(lp291
F122.2190328
aF122.27662280000001
aF122.72260690000002
aa(lp292
F126.06263750000001
aF126.48567
aF125.8343603
aa(lp293
F129.02660840000001
aF128.972512
aF129.2614207
aa(lp294
F131.9102416
aF131.19186100000002
aF130.96804120000002
aa(lp295
F134.9666131
aF134.396367
aF134.4233625
aa(lp296
F138.939806
aF139.205768
aF140.57980120000002
aa(lp297
F147.3667644
aF147.07306350000002
aF148.36320759999998
aa(lp298
F159.3502674
aF157.46011489999998
aF157.41700000000003
aa(lp299
F170.2829024
aF169.0012898
aF169.47635200000002
aa(lp300
F179.83251679999998
aF183.9419316
aF180.59326650000003
aa(lp301
F198.88186360000003
aF194.3907242
aF195.46744460000002
aa(lp302
F223.88563080000003
aF222.0322595
aF226.069818
aa(lp303
F254.729241
aF269.8181425
aF249.37597999999997
aa(lp304
F290.8559878
aF309.2687088
aF298.336527
aa(lp305
F388.0265328
aF382.9249177
aF445.0671206
aa(lp306
F672.8015763000001
aF495.80444
aF548.5814548
aa(lp307
F1473.801491
aF948.3011038999999
aF1053.8805147
aa(lp308
F7059.696414
aF9168.819088
aF6850.443344
aasS'random_soj_50'
p309
(lp310
(lp311
F65.925
aF67.742
aF65.7444
aa(lp312
F65.6549
aF68.29050000000001
aF66.4025
aa(lp313
F66.82669999999999
aF66.5488
aF67.3378
aa(lp314
F71.0192
aF69.28999999999999
aF64.0444
aa(lp315
F71.9022
aF68.5649
aF69.2359
aa(lp316
F69.4664
aF73.36449999999999
aF65.3825
aa(lp317
F66.6476
aF69.86160000000001
aF66.3751
aa(lp318
F70.89750000000001
aF70.1789
aF71.2426
aa(lp319
F73.6836
aF76.5912
aF67.89
aa(lp320
F70.2282
aF71.576
aF67.9145
aa(lp321
F70.4128
aF69.0248
aF73.14859999999999
aa(lp322
F71.77969999999999
aF74.4983
aF70.9422
aa(lp323
F78.0036
aF73.3951
aF77.41159999999999
aa(lp324
F78.19919999999999
aF79.8794
aF79.196
aa(lp325
F87.3948
aF85.05199999999999
aF81.37559999999999
aa(lp326
F94.8896
aF95.99
aF93.2794
aa(lp327
F105.9974
aF106.505
aF107.4016
aa(lp328
F137.55059999999997
aF130.1345
aF132.362
aa(lp329
F229.0368
aF209.9619
aF221.72
aa(lp330
F1202.8432
aF1251.195
aF1022.9039000000001
aasS'single_soj_50'
p331
(lp332
(lp333
F68.057
aF0.0
aF67.70840000000001
aa(lp334
F66.3588
aF65.3914
aF65.9191
aa(lp335
F69.1583
aF67.3481
aF64.8558
aa(lp336
F69.0081
aF69.3572
aF63.9795
aa(lp337
F70.392
aF67.2175
aF69.5352
aa(lp338
F70.0016
aF67.74019999999999
aF72.2576
aa(lp339
F68.219
aF67.975
aF67.7279
aa(lp340
F68.6808
aF70.73939999999999
aF67.34
aa(lp341
F71.3008
aF68.34190000000001
aF72.50319999999999
aa(lp342
F77.3123
aF73.98580000000001
aF73.0712
aa(lp343
F71.03999999999999
aF71.31479999999999
aF72.992
aa(lp344
F74.9684
aF79.11449999999999
aF74.152
aa(lp345
F80.03999999999999
aF78.1156
aF74.3048
aa(lp346
F80.0425
aF77.4344
aF79.4829
aa(lp347
F82.3785
aF84.8596
aF82.6456
aa(lp348
F95.7792
aF94.6448
aF93.5044
aa(lp349
F109.552
aF107.875
aF108.1131
aa(lp350
F135.3859
aF132.1472
aF135.2372
aa(lp351
F214.8648
aF205.74939999999998
aF230.72480000000002
aa(lp352
F1098.3832
aF944.0436000000001
aF1084.8479
aasS'minimum_soj_99'
p353
(lp354
(lp355
F76.9344
aF80.4594
aF74.97900000000001
aa(lp356
F97.02
aF95.704
aF95.9334
aa(lp357
F106.29379999999999
aF104.7422
aF102.0515
aa(lp358
F110.589
aF114.3599
aF110.7848
aa(lp359
F110.648
aF114.74669999999999
aF114.3384
aa(lp360
F116.9396
aF115.825
aF125.78299999999999
aa(lp361
F117.5952
aF123.4
aF126.7298
aa(lp362
F124.102
aF125.632
aF119.43660000000001
aa(lp363
F134.49
aF131.11950000000002
aF131.16660000000002
aa(lp364
F148.2744
aF134.8177
aF140.26839999999999
aa(lp365
F151.70080000000002
aF152.87380000000002
aF156.4494
aa(lp366
F163.5137
aF170.1941
aF165.6285
aa(lp367
F186.3338
aF178.0686
aF182.1533
aa(lp368
F209.25080000000003
aF207.1026
aF210.146
aa(lp369
F239.45759999999999
aF254.2961
aF231.29999999999998
aa(lp370
F286.22479999999996
aF292.0496
aF286.4047
aa(lp371
F370.68
aF366.7088
aF428.2829
aa(lp372
F658.9975000000001
aF476.6176
aF530.3084
aa(lp373
F1452.936
aF929.1688
aF1053.2048
aa(lp374
F7040.85
aF9143.5904
aF6835.124
aasS'random_x'
p375
(lp376
(lp377
I5
aI5
aI5
aa(lp378
I10
aI10
aI10
aa(lp379
I15
aI15
aI15
aa(lp380
I20
aI20
aI20
aa(lp381
I25
aI25
aI25
aa(lp382
I30
aI30
aI30
aa(lp383
I35
aI35
aI35
aa(lp384
I40
aI40
aI40
aa(lp385
I45
aI45
aI45
aa(lp386
I50
aI50
aI50
aa(lp387
I55
aI55
aI55
aa(lp388
I60
aI60
aI60
aa(lp389
I65
aI65
aI65
aa(lp390
I70
aI70
aI70
aa(lp391
I75
aI75
aI75
aa(lp392
I80
aI80
aI80
aa(lp393
I85
aI85
aI85
aa(lp394
I90
aI90
aI90
aa(lp395
I95
aI95
aI95
aa(lp396
I100
aI100
aI100
aasS'single_x'
p397
(lp398
(lp399
I5
aI5
aI5
aa(lp400
I10
aI10
aI10
aa(lp401
I15
aI15
aI15
aa(lp402
I20
aI20
aI20
aa(lp403
I25
aI25
aI25
aa(lp404
I30
aI30
aI30
aa(lp405
I35
aI35
aI35
aa(lp406
I40
aI40
aI40
aa(lp407
I45
aI45
aI45
aa(lp408
I50
aI50
aI50
aa(lp409
I55
aI55
aI55
aa(lp410
I60
aI60
aI60
aa(lp411
I65
aI65
aI65
aa(lp412
I70
aI70
aI70
aa(lp413
I75
aI75
aI75
aa(lp414
I80
aI80
aI80
aa(lp415
I85
aI85
aI85
aa(lp416
I90
aI90
aI90
aa(lp417
I95
aI95
aI95
aa(lp418
I100
aI100
aI100
aasS'minimum_95'
p419
(lp420
(lp421
F85.1710976
aF85.527728
aF85.3811603
aa(lp422
F86.2144294
aF86.0916896
aF85.7617888
aa(lp423
F87.08855319999999
aF87.434317
aF87.434036
aa(lp424
F89.72961000000001
aF89.92119000000001
aF89.9555545
aa(lp425
F96.6583128
aF96.615376
aF97.6191408
aa(lp426
F107.2239184
aF106.7360892
aF105.86607140000001
aa(lp427
F114.5296749
aF114.69883349999999
aF114.65025
aa(lp428
F119.4241767
aF119.5552952
aF119.562906
aa(lp429
F123.6457198
aF123.8779635
aF124.02929559999998
aa(lp430
F127.6980048
aF127.35704239999998
aF127.37325000000001
aa(lp431
F133.45976639999998
aF133.0015316
aF132.23374
aa(lp432
F140.29435039999998
aF141.4448136
aF141.22221330000002
aa(lp433
F153.17823420000002
aF151.3430751
aF150.61271340000002
aa(lp434
F170.65622260000004
aF168.9871295
aF169.2560733
aa(lp435
F188.3495
aF194.82663250000002
aF188.8004432
aa(lp436
F215.9349822
aF229.09095840000003
aF216.53115499999998
aa(lp437
F279.7823176
aF276.53755839999997
aF300.1485104
aa(lp438
F393.0315858
aF361.23671
aF375.0569794
aa(lp439
F986.3310296
aF708.9077348
aF762.1410903
aa(lp440
F4077.049632
aF6913.0685875
aF4591.1303348
aasS'minimum_soj_50'
p441
(lp442
(lp443
F65.26400000000001
aF67.2872
aF63.0705
aa(lp444
F66.28800000000001
aF63.464
aF65.3464
aa(lp445
F66.85929999999999
aF66.2432
aF65.399
aa(lp446
F66.6986
aF69.7826
aF67.8904
aa(lp447
F65.864
aF69.10679999999999
aF68.9512
aa(lp448
F66.9001
aF68.47
aF73.00049999999999
aa(lp449
F67.488
aF71.36
aF72.58519999999999
aa(lp450
F70.3825
aF71.076
aF66.9285
aa(lp451
F71.67
aF68.8746
aF68.402
aa(lp452
F72.63640000000001
aF68.62989999999999
aF70.2534
aa(lp453
F67.9696
aF72.5864
aF72.3269
aa(lp454
F74.3678
aF74.5601
aF74.2886
aa(lp455
F76.84
aF75.7542
aF76.14959999999999
aa(lp456
F77.13210000000001
aF78.33
aF76.20169999999999
aa(lp457
F81.336
aF81.9862
aF79.148
aa(lp458
F96.5048
aF94.2128
aF92.2717
aa(lp459
F108.48
aF110.50399999999999
aF109.4924
aa(lp460
F130.35250000000002
aF129.17329999999998
aF130.8236
aa(lp461
F215.5456
aF200.3536
aF221.6048
aa(lp462
F1265.08
aF1071.3152
aF1111.1199
aas.