(dp0
S'single_NodeRedirections'
p1
(lp2
(lp3
F0.0
aF0.0
aF0.0
aa(lp4
F0.0
aF0.0
aF0.0
aa(lp5
F0.0
aF0.0
aF0.0
aa(lp6
F0.0
aF0.0
aF0.0
aa(lp7
F0.0
aF0.0
aF0.0
aa(lp8
F0.0
aF0.0
aF0.0
aa(lp9
F0.0
aF0.0
aF0.0
aa(lp10
F0.0
aF0.0
aF0.0
aa(lp11
F0.0
aF0.0
aF0.0
aa(lp12
F0.0
aF0.0
aF0.0
aa(lp13
F0.0
aF0.0
aF0.0
aa(lp14
F0.0
aF0.0
aF0.0
aa(lp15
F0.0
aF0.0
aF0.0
aa(lp16
F0.0
aF0.0
aF0.0
aa(lp17
F0.0
aF0.0
aF0.0
aa(lp18
F0.0
aF0.0
aF0.0
aa(lp19
F0.0
aF0.0
aF0.0
aa(lp20
F0.0
aF0.0
aF0.0
aa(lp21
F0.0
aF0.0
aF0.0
aa(lp22
F0.0
aF0.0
aasS'random_NodeTotal'
p23
(lp24
(lp25
F0.0
aF0.0
aF0.0
aa(lp26
F0.0
aF0.0
aF0.0
aa(lp27
F0.0
aF0.0
aF0.0
aa(lp28
F0.0
aF0.0
aF0.0
aa(lp29
F0.0
aF0.0
aF0.0
aa(lp30
F0.0
aF0.0
aF0.0
aa(lp31
F0.0
aF0.0
aF0.0
aa(lp32
F0.0
aF0.0
aF0.0
aa(lp33
F0.0
aF0.0
aF0.0
aa(lp34
F0.0
aF0.0
aF0.0
aa(lp35
F0.0
aF0.0
aF0.0
aa(lp36
F0.0
aF0.0
aF0.0
aa(lp37
F0.0
aF0.0
aF0.0
aa(lp38
F0.0
aF0.0
aF0.0
aa(lp39
F0.0
aF0.0
aF0.0
aa(lp40
F0.0
aF0.0
aF0.0
aa(lp41
F0.0
aF0.0
aF0.0
aa(lp42
F0.0
aF0.0
aF0.0
aa(lp43
F0.0
aF0.0
aF0.0
aa(lp44
F0.0
aF0.0
aF0.0
aasS'minimum_AggRedirections'
p45
(lp46
(lp47
F555.0
aF553.0
aF539.0
aa(lp48
F1138.0
aF1106.0
aF1081.0
aa(lp49
F1630.0
aF1660.0
aF1674.0
aa(lp50
F2101.0
aF2177.0
aF2181.0
aa(lp51
F2716.0
aF2677.0
aF2601.0
aa(lp52
F3298.0
aF3255.0
aF3315.0
aa(lp53
F3718.0
aF3700.0
aF3820.0
aa(lp54
F4404.0
aF4155.0
aF4145.0
aa(lp55
F4736.0
aF4753.0
aF4789.0
aa(lp56
F5231.0
aF5232.0
aF5245.0
aa(lp57
F5581.0
aF5700.0
aF5683.0
aa(lp58
F6165.0
aF6213.0
aF6260.0
aa(lp59
F6722.0
aF6532.0
aF6646.0
aa(lp60
F7151.0
aF7103.0
aF7080.0
aa(lp61
F7557.0
aF7485.0
aF7531.0
aa(lp62
F7958.0
aF7972.0
aF7941.0
aa(lp63
F8292.0
aF8311.0
aF8147.0
aa(lp64
F8817.0
aF8650.0
aF8853.0
aa(lp65
F9037.0
aF9075.0
aF9128.0
aa(lp66
F9412.0
aF9177.0
aF9490.0
aasS'single_AggRedirections'
p67
(lp68
(lp69
F520.0
aF528.0
aF502.0
aa(lp70
F1068.0
aF1061.0
aF1020.0
aa(lp71
F1593.0
aF1581.0
aF1536.0
aa(lp72
F1990.0
aF2020.0
aF1997.0
aa(lp73
F2550.0
aF2513.0
aF2490.0
aa(lp74
F3074.0
aF3023.0
aF3032.0
aa(lp75
F3644.0
aF3590.0
aF3623.0
aa(lp76
F4174.0
aF3982.0
aF3953.0
aa(lp77
F4558.0
aF4443.0
aF4417.0
aa(lp78
F4903.0
aF4961.0
aF5014.0
aa(lp79
F5343.0
aF5241.0
aF5486.0
aa(lp80
F5750.0
aF5750.0
aF5756.0
aa(lp81
F6172.0
aF6244.0
aF6170.0
aa(lp82
F6545.0
aF6563.0
aF6650.0
aa(lp83
F6940.0
aF6856.0
aF6981.0
aa(lp84
F7343.0
aF7314.0
aF7362.0
aa(lp85
F7665.0
aF7629.0
aF7672.0
aa(lp86
F7810.0
aF8197.0
aF7983.0
aa(lp87
F8244.0
aF8516.0
aF8260.0
aa(lp88
F8415.0
aF8612.0
aasS'minimum_NodeRedirections'
p89
(lp90
(lp91
F0.0
aF0.0
aF0.0
aa(lp92
F0.0
aF0.0
aF0.0
aa(lp93
F0.0
aF0.0
aF0.0
aa(lp94
F0.0
aF0.0
aF0.0
aa(lp95
F0.0
aF0.0
aF0.0
aa(lp96
F0.0
aF0.0
aF0.0
aa(lp97
F0.0
aF0.0
aF0.0
aa(lp98
F0.0
aF0.0
aF0.0
aa(lp99
F0.0
aF0.0
aF0.0
aa(lp100
F0.0
aF0.0
aF0.0
aa(lp101
F0.0
aF0.0
aF0.0
aa(lp102
F0.0
aF0.0
aF0.0
aa(lp103
F0.0
aF0.0
aF0.0
aa(lp104
F0.0
aF0.0
aF0.0
aa(lp105
F0.0
aF0.0
aF0.0
aa(lp106
F0.0
aF0.0
aF0.0
aa(lp107
F0.0
aF0.0
aF0.0
aa(lp108
F0.0
aF0.0
aF0.0
aa(lp109
F0.0
aF0.0
aF0.0
aa(lp110
F0.0
aF0.0
aF0.0
aasS'random_x'
p111
(lp112
(lp113
I5
aI5
aI5
aa(lp114
I10
aI10
aI10
aa(lp115
I15
aI15
aI15
aa(lp116
I20
aI20
aI20
aa(lp117
I25
aI25
aI25
aa(lp118
I30
aI30
aI30
aa(lp119
I35
aI35
aI35
aa(lp120
I40
aI40
aI40
aa(lp121
I45
aI45
aI45
aa(lp122
I50
aI50
aI50
aa(lp123
I55
aI55
aI55
aa(lp124
I60
aI60
aI60
aa(lp125
I65
aI65
aI65
aa(lp126
I70
aI70
aI70
aa(lp127
I75
aI75
aI75
aa(lp128
I80
aI80
aI80
aa(lp129
I85
aI85
aI85
aa(lp130
I90
aI90
aI90
aa(lp131
I95
aI95
aI95
aa(lp132
I100
aI100
aI100
aasS'minimum_x'
p133
(lp134
(lp135
I5
aI5
aI5
aa(lp136
I10
aI10
aI10
aa(lp137
I15
aI15
aI15
aa(lp138
I20
aI20
aI20
aa(lp139
I25
aI25
aI25
aa(lp140
I30
aI30
aI30
aa(lp141
I35
aI35
aI35
aa(lp142
I40
aI40
aI40
aa(lp143
I45
aI45
aI45
aa(lp144
I50
aI50
aI50
aa(lp145
I55
aI55
aI55
aa(lp146
I60
aI60
aI60
aa(lp147
I65
aI65
aI65
aa(lp148
I70
aI70
aI70
aa(lp149
I75
aI75
aI75
aa(lp150
I80
aI80
aI80
aa(lp151
I85
aI85
aI85
aa(lp152
I90
aI90
aI90
aa(lp153
I95
aI95
aI95
aa(lp154
I100
aI100
aI100
aasS'single_x'
p155
(lp156
(lp157
I5
aI5
aI5
aa(lp158
I10
aI10
aI10
aa(lp159
I15
aI15
aI15
aa(lp160
I20
aI20
aI20
aa(lp161
I25
aI25
aI25
aa(lp162
I30
aI30
aI30
aa(lp163
I35
aI35
aI35
aa(lp164
I40
aI40
aI40
aa(lp165
I45
aI45
aI45
aa(lp166
I50
aI50
aI50
aa(lp167
I55
aI55
aI55
aa(lp168
I60
aI60
aI60
aa(lp169
I65
aI65
aI65
aa(lp170
I70
aI70
aI70
aa(lp171
I75
aI75
aI75
aa(lp172
I80
aI80
aI80
aa(lp173
I85
aI85
aI85
aa(lp174
I90
aI95
aI90
aa(lp175
I95
aI100
aI95
aa(lp176
I100
aI100
aasS'random_NodeRedirections'
p177
(lp178
(lp179
F0.0
aF0.0
aF0.0
aa(lp180
F0.0
aF0.0
aF0.0
aa(lp181
F0.0
aF0.0
aF0.0
aa(lp182
F0.0
aF0.0
aF0.0
aa(lp183
F0.0
aF0.0
aF0.0
aa(lp184
F0.0
aF0.0
aF0.0
aa(lp185
F0.0
aF0.0
aF0.0
aa(lp186
F0.0
aF0.0
aF0.0
aa(lp187
F0.0
aF0.0
aF0.0
aa(lp188
F0.0
aF0.0
aF0.0
aa(lp189
F0.0
aF0.0
aF0.0
aa(lp190
F0.0
aF0.0
aF0.0
aa(lp191
F0.0
aF0.0
aF0.0
aa(lp192
F0.0
aF0.0
aF0.0
aa(lp193
F0.0
aF0.0
aF0.0
aa(lp194
F0.0
aF0.0
aF0.0
aa(lp195
F0.0
aF0.0
aF0.0
aa(lp196
F0.0
aF0.0
aF0.0
aa(lp197
F0.0
aF0.0
aF0.0
aa(lp198
F0.0
aF0.0
aF0.0
aasS'minimum_EdgeTotal'
p199
(lp200
(lp201
F145009.0
aF145179.0
aF145253.0
aa(lp202
F145420.0
aF145395.0
aF145320.0
aa(lp203
F145977.0
aF145904.0
aF145825.0
aa(lp204
F145924.0
aF145840.0
aF146129.0
aa(lp205
F146189.0
aF146125.0
aF146442.0
aa(lp206
F146548.0
aF146740.0
aF146765.0
aa(lp207
F147186.0
aF146878.0
aF146915.0
aa(lp208
F146704.0
aF147231.0
aF147160.0
aa(lp209
F147367.0
aF147435.0
aF147397.0
aa(lp210
F147599.0
aF147650.0
aF147376.0
aa(lp211
F147921.0
aF148245.0
aF147737.0
aa(lp212
F148076.0
aF147968.0
aF148029.0
aa(lp213
F148352.0
aF148512.0
aF148445.0
aa(lp214
F148660.0
aF148341.0
aF148332.0
aa(lp215
F148765.0
aF148901.0
aF149063.0
aa(lp216
F148943.0
aF149009.0
aF149105.0
aa(lp217
F149280.0
aF149248.0
aF149501.0
aa(lp218
F149499.0
aF149321.0
aF149301.0
aa(lp219
F149743.0
aF149828.0
aF149920.0
aa(lp220
F149779.0
aF149776.0
aF150059.0
aasS'minimum_NodeTotal'
p221
(lp222
(lp223
F0.0
aF0.0
aF0.0
aa(lp224
F0.0
aF0.0
aF0.0
aa(lp225
F0.0
aF0.0
aF0.0
aa(lp226
F0.0
aF0.0
aF0.0
aa(lp227
F0.0
aF0.0
aF0.0
aa(lp228
F0.0
aF0.0
aF0.0
aa(lp229
F0.0
aF0.0
aF0.0
aa(lp230
F0.0
aF0.0
aF0.0
aa(lp231
F0.0
aF0.0
aF0.0
aa(lp232
F0.0
aF0.0
aF0.0
aa(lp233
F0.0
aF0.0
aF0.0
aa(lp234
F0.0
aF0.0
aF0.0
aa(lp235
F0.0
aF0.0
aF0.0
aa(lp236
F0.0
aF0.0
aF0.0
aa(lp237
F0.0
aF0.0
aF0.0
aa(lp238
F0.0
aF0.0
aF0.0
aa(lp239
F0.0
aF0.0
aF0.0
aa(lp240
F0.0
aF0.0
aF0.0
aa(lp241
F0.0
aF0.0
aF0.0
aa(lp242
F0.0
aF0.0
aF0.0
aasS'single_NodeTotal'
p243
(lp244
(lp245
F0.0
aF0.0
aF0.0
aa(lp246
F0.0
aF0.0
aF0.0
aa(lp247
F0.0
aF0.0
aF0.0
aa(lp248
F0.0
aF0.0
aF0.0
aa(lp249
F0.0
aF0.0
aF0.0
aa(lp250
F0.0
aF0.0
aF0.0
aa(lp251
F0.0
aF0.0
aF0.0
aa(lp252
F0.0
aF0.0
aF0.0
aa(lp253
F0.0
aF0.0
aF0.0
aa(lp254
F0.0
aF0.0
aF0.0
aa(lp255
F0.0
aF0.0
aF0.0
aa(lp256
F0.0
aF0.0
aF0.0
aa(lp257
F0.0
aF0.0
aF0.0
aa(lp258
F0.0
aF0.0
aF0.0
aa(lp259
F0.0
aF0.0
aF0.0
aa(lp260
F0.0
aF0.0
aF0.0
aa(lp261
F0.0
aF0.0
aF0.0
aa(lp262
F0.0
aF0.0
aF0.0
aa(lp263
F0.0
aF0.0
aF0.0
aa(lp264
F0.0
aF0.0
aasS'single_AggTotal'
p265
(lp266
(lp267
F130399.0
aF130420.0
aF130434.0
aa(lp268
F130389.0
aF130549.0
aF130891.0
aa(lp269
F131655.0
aF131329.0
aF131039.0
aa(lp270
F131366.0
aF131838.0
aF131162.0
aa(lp271
F132165.0
aF131784.0
aF132097.0
aa(lp272
F132192.0
aF132225.0
aF132179.0
aa(lp273
F132405.0
aF132780.0
aF133256.0
aa(lp274
F133445.0
aF133444.0
aF132869.0
aa(lp275
F133634.0
aF133533.0
aF133440.0
aa(lp276
F134099.0
aF134060.0
aF134067.0
aa(lp277
F134602.0
aF134309.0
aF134281.0
aa(lp278
F134393.0
aF135208.0
aF134751.0
aa(lp279
F135322.0
aF135518.0
aF135388.0
aa(lp280
F136112.0
aF136062.0
aF136056.0
aa(lp281
F136390.0
aF136481.0
aF135774.0
aa(lp282
F136889.0
aF136169.0
aF136189.0
aa(lp283
F137181.0
aF137653.0
aF136588.0
aa(lp284
F137674.0
aF138233.0
aF136827.0
aa(lp285
F137724.0
aF138551.0
aF138199.0
aa(lp286
F138665.0
aF138438.0
aasS'minimum_AggTotal'
p287
(lp288
(lp289
F130335.0
aF130877.0
aF130822.0
aa(lp290
F131573.0
aF131285.0
aF131187.0
aa(lp291
F132409.0
aF132213.0
aF132196.0
aa(lp292
F132622.0
aF132780.0
aF133012.0
aa(lp293
F133514.0
aF133480.0
aF133806.0
aa(lp294
F134334.0
aF134590.0
aF134739.0
aa(lp295
F135772.0
aF135292.0
aF135385.0
aa(lp296
F135453.0
aF136009.0
aF136107.0
aa(lp297
F136683.0
aF136529.0
aF136775.0
aa(lp298
F137486.0
aF137385.0
aF137023.0
aa(lp299
F138071.0
aF138560.0
aF137656.0
aa(lp300
F138705.0
aF138470.0
aF138795.0
aa(lp301
F139640.0
aF139639.0
aF139568.0
aa(lp302
F140260.0
aF139697.0
aF139702.0
aa(lp303
F140697.0
aF140775.0
aF141062.0
aa(lp304
F141265.0
aF141620.0
aF141592.0
aa(lp305
F141709.0
aF142186.0
aF142318.0
aa(lp306
F142529.0
aF142265.0
aF142179.0
aa(lp307
F143524.0
aF143329.0
aF143497.0
aa(lp308
F143663.0
aF143555.0
aF144028.0
aasS'minimum_CoreRedirections'
p309
(lp310
(lp311
F267.0
aF268.0
aF274.0
aa(lp312
F478.0
aF472.0
aF461.0
aa(lp313
F781.0
aF781.0
aF681.0
aa(lp314
F981.0
aF1082.0
aF1021.0
aa(lp315
F1291.0
aF1192.0
aF1274.0
aa(lp316
F1496.0
aF1541.0
aF1462.0
aa(lp317
F1764.0
aF1698.0
aF1682.0
aa(lp318
F2004.0
aF1909.0
aF1969.0
aa(lp319
F2136.0
aF2284.0
aF2217.0
aa(lp320
F2401.0
aF2380.0
aF2422.0
aa(lp321
F2660.0
aF2715.0
aF2639.0
aa(lp322
F2826.0
aF2805.0
aF2768.0
aa(lp323
F3101.0
aF3043.0
aF3085.0
aa(lp324
F3263.0
aF3337.0
aF3285.0
aa(lp325
F3432.0
aF3375.0
aF3607.0
aa(lp326
F3573.0
aF3646.0
aF3715.0
aa(lp327
F3880.0
aF3823.0
aF3694.0
aa(lp328
F3939.0
aF4027.0
aF3948.0
aa(lp329
F4147.0
aF4272.0
aF4116.0
aa(lp330
F4343.0
aF4272.0
aF4364.0
aasS'minimum_EdgeRedirections'
p331
(lp332
(lp333
F613.0
aF640.0
aF582.0
aa(lp334
F1205.0
aF1198.0
aF1189.0
aa(lp335
F1939.0
aF1817.0
aF1823.0
aa(lp336
F2401.0
aF2544.0
aF2402.0
aa(lp337
F3077.0
aF3023.0
aF2917.0
aa(lp338
F3582.0
aF3552.0
aF3598.0
aa(lp339
F4293.0
aF4306.0
aF4192.0
aa(lp340
F4783.0
aF4787.0
aF4928.0
aa(lp341
F5270.0
aF5371.0
aF5305.0
aa(lp342
F5926.0
aF5920.0
aF5878.0
aa(lp343
F6565.0
aF6553.0
aF6343.0
aa(lp344
F7042.0
aF6956.0
aF7049.0
aa(lp345
F7623.0
aF7651.0
aF7573.0
aa(lp346
F8172.0
aF7793.0
aF8064.0
aa(lp347
F8607.0
aF8626.0
aF8540.0
aa(lp348
F8903.0
aF9211.0
aF9144.0
aa(lp349
F9394.0
aF9464.0
aF9679.0
aa(lp350
F9754.0
aF9816.0
aF9699.0
aa(lp351
F10349.0
aF10280.0
aF10343.0
aa(lp352
F10737.0
aF10619.0
aF10847.0
aasS'single_EdgeTotal'
p353
(lp354
(lp355
F144983.0
aF145096.0
aF145242.0
aa(lp356
F144910.0
aF144986.0
aF145185.0
aa(lp357
F145599.0
aF145321.0
aF145147.0
aa(lp358
F145267.0
aF145614.0
aF145118.0
aa(lp359
F145654.0
aF145503.0
aF145620.0
aa(lp360
F145418.0
aF145285.0
aF145463.0
aa(lp361
F145519.0
aF145730.0
aF145986.0
aa(lp362
F145933.0
aF146032.0
aF145602.0
aa(lp363
F145802.0
aF145826.0
aF145815.0
aa(lp364
F145975.0
aF145884.0
aF146013.0
aa(lp365
F146196.0
aF146043.0
aF145875.0
aa(lp366
F146004.0
aF146388.0
aF146406.0
aa(lp367
F146460.0
aF146590.0
aF146351.0
aa(lp368
F146665.0
aF146538.0
aF146721.0
aa(lp369
F146779.0
aF146750.0
aF146230.0
aa(lp370
F146963.0
aF146573.0
aF146626.0
aa(lp371
F146868.0
aF147267.0
aF146563.0
aa(lp372
F147277.0
aF147520.0
aF146599.0
aa(lp373
F147086.0
aF147666.0
aF147556.0
aa(lp374
F147490.0
aF147338.0
aasS'random_CoreRedirections'
p375
(lp376
(lp377
F218.0
aF265.0
aF248.0
aa(lp378
F511.0
aF504.0
aF479.0
aa(lp379
F703.0
aF719.0
aF733.0
aa(lp380
F984.0
aF978.0
aF974.0
aa(lp381
F1181.0
aF1104.0
aF1178.0
aa(lp382
F1400.0
aF1363.0
aF1393.0
aa(lp383
F1650.0
aF1604.0
aF1670.0
aa(lp384
F1821.0
aF1815.0
aF1870.0
aa(lp385
F2018.0
aF2143.0
aF2157.0
aa(lp386
F2316.0
aF2182.0
aF2242.0
aa(lp387
F2413.0
aF2544.0
aF2484.0
aa(lp388
F2691.0
aF2750.0
aF2733.0
aa(lp389
F2879.0
aF2776.0
aF2663.0
aa(lp390
F3051.0
aF3033.0
aF3168.0
aa(lp391
F3180.0
aF3223.0
aF3057.0
aa(lp392
F3302.0
aF3395.0
aF3261.0
aa(lp393
F3315.0
aF3335.0
aF3456.0
aa(lp394
F3625.0
aF3606.0
aF3621.0
aa(lp395
F3827.0
aF3667.0
aF3669.0
aa(lp396
F3859.0
aF3841.0
aF3958.0
aasS'single_EdgeRedirections'
p397
(lp398
(lp399
F3725.0
aF3705.0
aF3667.0
aa(lp400
F7059.0
aF6946.0
aF6939.0
aa(lp401
F10333.0
aF10259.0
aF10248.0
aa(lp402
F13263.0
aF13277.0
aF13078.0
aa(lp403
F16065.0
aF16171.0
aF16146.0
aa(lp404
F18839.0
aF18895.0
aF18750.0
aa(lp405
F21368.0
aF21441.0
aF21381.0
aa(lp406
F23719.0
aF23807.0
aF23657.0
aa(lp407
F25838.0
aF25969.0
aF25976.0
aa(lp408
F28108.0
aF28258.0
aF27952.0
aa(lp409
F30356.0
aF29886.0
aF29841.0
aa(lp410
F31762.0
aF32010.0
aF31977.0
aa(lp411
F33760.0
aF33643.0
aF33794.0
aa(lp412
F35118.0
aF35067.0
aF35401.0
aa(lp413
F36864.0
aF36745.0
aF36468.0
aa(lp414
F38097.0
aF38371.0
aF38016.0
aa(lp415
F39540.0
aF39717.0
aF39426.0
aa(lp416
F40446.0
aF41836.0
aF40577.0
aa(lp417
F41964.0
aF42736.0
aF41424.0
aa(lp418
F42415.0
aF42688.0
aasS'single_CoreRedirections'
p419
(lp420
(lp421
F230.0
aF254.0
aF224.0
aa(lp422
F503.0
aF483.0
aF510.0
aa(lp423
F750.0
aF709.0
aF759.0
aa(lp424
F917.0
aF998.0
aF999.0
aa(lp425
F1183.0
aF1160.0
aF1197.0
aa(lp426
F1373.0
aF1428.0
aF1334.0
aa(lp427
F1582.0
aF1656.0
aF1637.0
aa(lp428
F1853.0
aF1893.0
aF1880.0
aa(lp429
F1952.0
aF2082.0
aF2038.0
aa(lp430
F2206.0
aF2306.0
aF2185.0
aa(lp431
F2489.0
aF2417.0
aF2445.0
aa(lp432
F2615.0
aF2628.0
aF2704.0
aa(lp433
F2806.0
aF2776.0
aF2796.0
aa(lp434
F3021.0
aF2965.0
aF3022.0
aa(lp435
F3139.0
aF3261.0
aF3123.0
aa(lp436
F3341.0
aF3240.0
aF3263.0
aa(lp437
F3481.0
aF3462.0
aF3386.0
aa(lp438
F3597.0
aF3867.0
aF3523.0
aa(lp439
F3845.0
aF3842.0
aF3745.0
aa(lp440
F3984.0
aF3958.0
aasS'random_AggTotal'
p441
(lp442
(lp443
F126196.0
aF125786.0
aF125756.0
aa(lp444
F126649.0
aF126120.0
aF126700.0
aa(lp445
F127111.0
aF126881.0
aF127107.0
aa(lp446
F127774.0
aF127847.0
aF127925.0
aa(lp447
F128767.0
aF128969.0
aF128630.0
aa(lp448
F129684.0
aF129503.0
aF129605.0
aa(lp449
F130048.0
aF130267.0
aF129848.0
aa(lp450
F130919.0
aF130499.0
aF131048.0
aa(lp451
F131601.0
aF131515.0
aF131452.0
aa(lp452
F132217.0
aF131926.0
aF132509.0
aa(lp453
F133167.0
aF133427.0
aF133439.0
aa(lp454
F133450.0
aF134013.0
aF133546.0
aa(lp455
F134416.0
aF133965.0
aF134152.0
aa(lp456
F135164.0
aF134587.0
aF134978.0
aa(lp457
F135774.0
aF135133.0
aF135028.0
aa(lp458
F136371.0
aF136201.0
aF136572.0
aa(lp459
F136805.0
aF136410.0
aF136962.0
aa(lp460
F137219.0
aF137545.0
aF137087.0
aa(lp461
F137750.0
aF137457.0
aF137858.0
aa(lp462
F138225.0
aF138203.0
aF137623.0
aasS'random_CoreTotal'
p463
(lp464
(lp465
F58214.0
aF57979.0
aF58013.0
aa(lp466
F58537.0
aF58240.0
aF58569.0
aa(lp467
F58875.0
aF58764.0
aF58860.0
aa(lp468
F59319.0
aF59331.0
aF59302.0
aa(lp469
F59774.0
aF59966.0
aF59790.0
aa(lp470
F60478.0
aF60337.0
aF60447.0
aa(lp471
F60673.0
aF60871.0
aF60549.0
aa(lp472
F61306.0
aF61022.0
aF61322.0
aa(lp473
F61696.0
aF61610.0
aF61543.0
aa(lp474
F62049.0
aF61880.0
aF62281.0
aa(lp475
F62739.0
aF62808.0
aF62837.0
aa(lp476
F62844.0
aF63212.0
aF62897.0
aa(lp477
F63401.0
aF63155.0
aF63316.0
aa(lp478
F63911.0
aF63532.0
aF63827.0
aa(lp479
F64376.0
aF63815.0
aF63907.0
aa(lp480
F64579.0
aF64618.0
aF64854.0
aa(lp481
F64915.0
aF64568.0
aF65112.0
aa(lp482
F65199.0
aF65491.0
aF65187.0
aa(lp483
F65597.0
aF65324.0
aF65576.0
aa(lp484
F65804.0
aF65850.0
aF65468.0
aasS'random_AggRedirections'
p485
(lp486
(lp487
F537.0
aF536.0
aF551.0
aa(lp488
F1041.0
aF962.0
aF1035.0
aa(lp489
F1579.0
aF1616.0
aF1570.0
aa(lp490
F2017.0
aF2029.0
aF2100.0
aa(lp491
F2548.0
aF2574.0
aF2598.0
aa(lp492
F3067.0
aF3067.0
aF3073.0
aa(lp493
F3604.0
aF3531.0
aF3516.0
aa(lp494
F4039.0
aF4090.0
aF4000.0
aa(lp495
F4585.0
aF4409.0
aF4406.0
aa(lp496
F4850.0
aF4803.0
aF5049.0
aa(lp497
F5453.0
aF5373.0
aF5425.0
aa(lp498
F5730.0
aF5717.0
aF5786.0
aa(lp499
F6188.0
aF6097.0
aF6247.0
aa(lp500
F6577.0
aF6685.0
aF6482.0
aa(lp501
F6960.0
aF6805.0
aF6939.0
aa(lp502
F7215.0
aF7328.0
aF7215.0
aa(lp503
F7663.0
aF7514.0
aF7617.0
aa(lp504
F7903.0
aF7950.0
aF7893.0
aa(lp505
F8264.0
aF8144.0
aF8229.0
aa(lp506
F8508.0
aF8403.0
aF8354.0
aasS'single_CoreTotal'
p507
(lp508
(lp509
F60341.0
aF60322.0
aF60287.0
aa(lp510
F60457.0
aF60488.0
aF60681.0
aa(lp511
F61184.0
aF61015.0
aF60870.0
aa(lp512
F61073.0
aF61274.0
aF60971.0
aa(lp513
F61566.0
aF61355.0
aF61538.0
aa(lp514
F61751.0
aF61851.0
aF61713.0
aa(lp515
F61897.0
aF62067.0
aF62335.0
aa(lp516
F62551.0
aF62470.0
aF62183.0
aa(lp517
F62828.0
aF62653.0
aF62584.0
aa(lp518
F63110.0
aF63124.0
aF63033.0
aa(lp519
F63414.0
aF63197.0
aF63273.0
aa(lp520
F63298.0
aF63797.0
aF63452.0
aa(lp521
F63856.0
aF64004.0
aF64020.0
aa(lp522
F64444.0
aF64474.0
aF64359.0
aa(lp523
F64620.0
aF64636.0
aF64399.0
aa(lp524
F64925.0
aF64515.0
aF64471.0
aa(lp525
F65230.0
aF65390.0
aF64839.0
aa(lp526
F65357.0
aF65833.0
aF65071.0
aa(lp527
F65551.0
aF65959.0
aF65758.0
aa(lp528
F66128.0
aF66023.0
aasS'minimum_CoreTotal'
p529
(lp530
(lp531
F60250.0
aF60632.0
aF60583.0
aa(lp532
F61083.0
aF60880.0
aF60802.0
aa(lp533
F61458.0
aF61385.0
aF61400.0
aa(lp534
F61600.0
aF61805.0
aF61915.0
aa(lp535
F62234.0
aF62265.0
aF62374.0
aa(lp536
F62769.0
aF62893.0
aF63020.0
aa(lp537
F63606.0
aF63413.0
aF63418.0
aa(lp538
F63581.0
aF63813.0
aF63873.0
aa(lp539
F64292.0
aF64120.0
aF64376.0
aa(lp540
F64839.0
aF64670.0
aF64475.0
aa(lp541
F65090.0
aF65421.0
aF64868.0
aa(lp542
F65548.0
aF65416.0
aF65619.0
aa(lp543
F66172.0
aF66113.0
aF66082.0
aa(lp544
F66488.0
aF66216.0
aF66249.0
aa(lp545
F66796.0
aF66764.0
aF67010.0
aa(lp546
F67204.0
aF67455.0
aF67384.0
aa(lp547
F67396.0
aF67791.0
aF67760.0
aa(lp548
F67956.0
aF67847.0
aF67757.0
aa(lp549
F68656.0
aF68447.0
aF68550.0
aa(lp550
F68674.0
aF68610.0
aF68901.0
aasS'random_EdgeTotal'
p551
(lp552
(lp553
F143066.0
aF142812.0
aF142822.0
aa(lp554
F143210.0
aF142798.0
aF143182.0
aa(lp555
F143141.0
aF142968.0
aF143159.0
aa(lp556
F143418.0
aF143535.0
aF143555.0
aa(lp557
F144009.0
aF144112.0
aF143783.0
aa(lp558
F144164.0
aF144257.0
aF144158.0
aa(lp559
F144309.0
aF144474.0
aF144267.0
aa(lp560
F144636.0
aF144461.0
aF144778.0
aa(lp561
F144989.0
aF144966.0
aF144897.0
aa(lp562
F145271.0
aF144967.0
aF145221.0
aa(lp563
F145458.0
aF145583.0
aF145596.0
aa(lp564
F145601.0
aF145750.0
aF145636.0
aa(lp565
F145993.0
aF145831.0
aF145813.0
aa(lp566
F146235.0
aF145989.0
aF146104.0
aa(lp567
F146348.0
aF146348.0
aF145856.0
aa(lp568
F146893.0
aF146560.0
aF146695.0
aa(lp569
F146949.0
aF146911.0
aF146702.0
aa(lp570
F147035.0
aF147079.0
aF146835.0
aa(lp571
F147121.0
aF147142.0
aF147420.0
aa(lp572
F147300.0
aF147272.0
aF146989.0
aasS'random_EdgeRedirections'
p573
(lp574
(lp575
F37818.0
aF37720.0
aF37906.0
aa(lp576
F38157.0
aF37973.0
aF37762.0
aa(lp577
F38493.0
aF38303.0
aF38638.0
aa(lp578
F38498.0
aF38473.0
aF38571.0
aa(lp579
F38823.0
aF38813.0
aF39116.0
aa(lp580
F39116.0
aF39454.0
aF39084.0
aa(lp581
F39344.0
aF39616.0
aF39582.0
aa(lp582
F39818.0
aF39681.0
aF39627.0
aa(lp583
F40029.0
aF40052.0
aF39713.0
aa(lp584
F40534.0
aF40298.0
aF40778.0
aa(lp585
F40761.0
aF40667.0
aF40319.0
aa(lp586
F40771.0
aF40879.0
aF40657.0
aa(lp587
F41036.0
aF41123.0
aF41163.0
aa(lp588
F41413.0
aF41343.0
aF41641.0
aa(lp589
F41873.0
aF41504.0
aF41371.0
aa(lp590
F41872.0
aF41789.0
aF41686.0
aa(lp591
F41940.0
aF42460.0
aF42134.0
aa(lp592
F42133.0
aF42282.0
aF42039.0
aa(lp593
F42238.0
aF42148.0
aF42525.0
aa(lp594
F42666.0
aF42618.0
aF42663.0
aas.