(dp0
S'single_99'
p1
(lp2
(lp3
F108.7009302
aF109.88859730000001
aF109.2171272
aa(lp4
F121.80684929999998
aF122.0183408
aF121.4880127
aa(lp5
F125.79334499999999
aF125.37308349999999
aF125.1521008
aa(lp6
F128.2263671
aF128.99219520000003
aF128.5059218
aa(lp7
F132.03324840000002
aF131.68910929999998
aF131.32497
aa(lp8
F134.9223802
aF134.86358660000002
aF134.5733702
aa(lp9
F139.9823031
aF141.52538220000002
aF141.416409
aa(lp10
F154.6129901
aF152.1877872
aF153.870712
aa(lp11
F162.6647698
aF160.7792256
aF163.7085285
aa(lp12
F169.3289588
aF170.73649799999998
aF171.61967979999997
aa(lp13
F178.59545520000003
aF180.46994009999997
aF177.2850353
aa(lp14
F188.88226350000002
aF186.9557799
aF190.26509799999997
aa(lp15
F207.86859710000002
aF214.7563907
aF213.45066680000002
aa(lp16
F234.8808889
aF231.86962319999998
aF228.8854375
aa(lp17
F265.3806528
aF267.959927
aF264.28073800000004
aa(lp18
F322.76178439999995
aF323.39786949999996
aF311.28588959999996
aa(lp19
F409.9313840000001
aF382.8781648
aF377.7442186
aa(lp20
F593.432064
aF585.539214
aF632.3309547000001
aa(lp21
F1421.2388455
aF1090.9461502
aF1202.392584
aa(lp22
F9317.43223
aF7569.7992316
aF7668.0838297
aasS'minimum_50'
p23
(lp24
(lp25
F75.1689902
aF75.21151499999999
aF75.1437784
aa(lp26
F75.333492
aF75.415006
aF75.46267080000001
aa(lp27
F75.55107999999998
aF75.580136
aF75.5863754
aa(lp28
F75.691438
aF75.6544688
aF75.8422218
aa(lp29
F76.0306062
aF75.9181352
aF76.02314100000001
aa(lp30
F76.2515275
aF76.4175616
aF76.4908878
aa(lp31
F76.7591084
aF76.763874
aF76.6371536
aa(lp32
F77.0910733
aF77.29970879999999
aF77.11908249999999
aa(lp33
F77.74706280000001
aF77.7758656
aF77.67684560000001
aa(lp34
F78.23047020000001
aF78.31787399999999
aF78.33491599999999
aa(lp35
F79.1299875
aF79.0377296
aF79.0651048
aa(lp36
F80.1085034
aF80.2550488
aF80.29878339999999
aa(lp37
F81.7645889
aF81.90883600000001
aF81.81724729999999
aa(lp38
F84.9503483
aF84.53506300000001
aF85.07254879999999
aa(lp39
F91.6977148
aF90.5155254
aF92.19628
aa(lp40
F104.4678291
aF104.150914
aF103.2873069
aa(lp41
F119.87867109999999
aF118.7181952
aF118.9342924
aa(lp42
F144.77659369999998
aF149.392661
aF148.9931718
aa(lp43
F225.30730179999998
aF234.6293508
aF212.87769360000001
aa(lp44
F869.1486709999999
aF913.2052332
aF1119.8170527999998
aasS'random_99'
p45
(lp46
(lp47
F107.860769
aF107.476648
aF110.1545244
aa(lp48
F121.14110960000001
aF120.737958
aF121.11179850000002
aa(lp49
F125.50072
aF125.1960622
aF125.6828934
aa(lp50
F128.23558599999998
aF128.80267400000002
aF128.7846045
aa(lp51
F131.000698
aF131.64754040000003
aF131.6166316
aa(lp52
F135.59680820000003
aF134.4003346
aF134.8154739
aa(lp53
F139.7662517
aF142.181198
aF139.9199255
aa(lp54
F153.5098092
aF152.91721350000003
aF151.84517999999997
aa(lp55
F162.14679189999998
aF161.77255559999998
aF163.2970032
aa(lp56
F170.8016614
aF168.64549749999998
aF170.1755975
aa(lp57
F179.3110256
aF178.8730275
aF179.8511088
aa(lp58
F190.87292480000002
aF187.630542
aF192.2241051
aa(lp59
F205.79718320000003
aF209.74562360000002
aF207.23377519999997
aa(lp60
F230.1993488
aF234.51420040000002
aF223.5401574
aa(lp61
F260.870885
aF262.93209360000003
aF266.06128520000004
aa(lp62
F307.6110506
aF313.57955350000003
aF318.56303099999997
aa(lp63
F383.4475566
aF387.1515552
aF375.6830323
aa(lp64
F591.8935428
aF542.5220185
aF611.1545123999999
aa(lp65
F1519.0749435999999
aF1808.8759980000002
aF1809.7776964000004
aa(lp66
F7071.672366
aF7529.065614
aF6414.2390086000005
aasS'random_soj_95'
p67
(lp68
(lp69
F76.8166
aF73.6736
aF73.9878
aa(lp70
F78.29090000000001
aF78.199
aF76.975
aa(lp71
F79.9274
aF82.19720000000001
aF81.4224
aa(lp72
F93.7582
aF90.7908
aF93.6516
aa(lp73
F102.2402
aF102.312
aF101.62509999999999
aa(lp74
F108.7213
aF105.5942
aF105.53250000000001
aa(lp75
F109.6973
aF110.2544
aF112.65599999999999
aa(lp76
F115.5228
aF113.488
aF111.6696
aa(lp77
F116.4336
aF124.943
aF116.1424
aa(lp78
F119.686
aF118.5236
aF117.2516
aa(lp79
F126.4111
aF126.7354
aF128.7664
aa(lp80
F140.02800000000002
aF139.8333
aF140.793
aa(lp81
F153.10680000000002
aF152.3788
aF152.0785
aa(lp82
F164.09599999999998
aF169.0612
aF163.3024
aa(lp83
F186.7743
aF186.0248
aF184.7014
aa(lp84
F215.357
aF225.56390000000002
aF227.2566
aa(lp85
F268.96659999999997
aF266.05920000000003
aF259.9588
aa(lp86
F391.5627
aF373.869
aF385.736
aa(lp87
F904.2560000000001
aF894.8377
aF1022.325
aa(lp88
F6271.83
aF6379.4901
aF5462.2701
aasS'single_soj_95'
p89
(lp90
(lp91
F74.1252
aF75.5836
aF73.9448
aa(lp92
F77.46539999999999
aF77.0195
aF76.04599999999999
aa(lp93
F84.0047
aF79.3304
aF78.67179999999999
aa(lp94
F93.98400000000001
aF94.1389
aF92.73
aa(lp95
F100.24
aF102.624
aF100.797
aa(lp96
F107.1084
aF106.6384
aF113.83
aa(lp97
F104.8625
aF113.834
aF108.49
aa(lp98
F123.8355
aF110.6738
aF112.7542
aa(lp99
F115.0413
aF113.5376
aF117.5336
aa(lp100
F116.297
aF118.958
aF125.45840000000001
aa(lp101
F126.984
aF126.2816
aF127.123
aa(lp102
F140.3142
aF144.046
aF137.7092
aa(lp103
F150.4045
aF152.72
aF151.06099999999998
aa(lp104
F168.64610000000002
aF167.4025
aF162.6998
aa(lp105
F192.40640000000002
aF185.5795
aF188.32969999999997
aa(lp106
F220.49530000000001
aF221.4513
aF215.5711
aa(lp107
F270.85389999999995
aF261.922
aF264.0942
aa(lp108
F412.9633
aF396.5616
aF392.26899999999995
aa(lp109
F979.1125000000001
aF780.4404
aF848.6308
aa(lp110
F6312.7946999999995
aF5671.6303
aF5460.168
aasS'random_soj_99'
p111
(lp112
(lp113
F95.7379
aF91.976
aF93.7471
aa(lp114
F107.8482
aF106.8916
aF105.1875
aa(lp115
F109.556
aF113.0306
aF112.1136
aa(lp116
F113.366
aF111.429
aF113.60700000000001
aa(lp117
F116.9028
aF117.95840000000001
aF116.6154
aa(lp118
F125.0266
aF119.7802
aF119.7775
aa(lp119
F126.13210000000001
aF128.49200000000002
aF130.6515
aa(lp120
F142.6092
aF139.423
aF136.06
aa(lp121
F147.9606
aF159.374
aF148.6448
aa(lp122
F155.53480000000002
aF152.33100000000002
aF151.71390000000002
aa(lp123
F163.9808
aF163.6575
aF165.4288
aa(lp124
F176.2208
aF178.0316
aF178.1105
aa(lp125
F194.6868
aF194.7842
aF193.406
aa(lp126
F216.01279999999997
aF220.80120000000002
aF210.0128
aa(lp127
F247.059
aF247.6752
aF248.1739
aa(lp128
F293.019
aF308.2049
aF308.75559999999996
aa(lp129
F372.4219
aF369.65520000000004
aF355.76570000000004
aa(lp130
F573.0606
aF525.095
aF594.7407999999999
aa(lp131
F1495.308
aF1792.9713000000002
aF1787.1000000000001
aa(lp132
F7044.412
aF7504.897
aF6405.612899999999
aasS'single_soj_99'
p133
(lp134
(lp135
F92.5212
aF95.6921
aF93.0378
aa(lp136
F106.8741
aF107.732
aF103.7198
aa(lp137
F115.7675
aF108.34200000000001
aF108.5008
aa(lp138
F113.6669
aF112.2808
aF112.67240000000001
aa(lp139
F115.5996
aF117.18599999999999
aF115.7366
aa(lp140
F121.35180000000001
aF121.1584
aF129.5658
aa(lp141
F120.5003
aF132.487
aF126.06700000000001
aa(lp142
F153.82150000000001
aF135.9152
aF138.7072
aa(lp143
F146.1638
aF143.1524
aF151.12220000000002
aa(lp144
F150.958
aF155.01999999999998
aF162.5772
aa(lp145
F163.6632
aF163.7544
aF163.1062
aa(lp146
F176.9478
aF179.8378
aF174.891
aa(lp147
F192.5635
aF198.0575
aF198.063
aa(lp148
F224.0591
aF218.738
aF211.88750000000002
aa(lp149
F258.40319999999997
aF252.47750000000002
aF250.45299999999997
aa(lp150
F308.1211
aF307.8727
aF297.1896
aa(lp151
F391.84799999999996
aF365.256
aF361.67130000000003
aa(lp152
F585.3568
aF563.6984
aF615.8378
aa(lp153
F1409.0545
aF1071.8658
aF1180.6680000000001
aa(lp154
F9292.89
aF7547.2661
aF7641.634
aasS'single_95'
p155
(lp156
(lp157
F85.54956419999999
aF85.6811868
aF85.62819520000001
aa(lp158
F87.1167342
aF87.0529558
aF87.197479
aa(lp159
F90.4386498
aF89.9653102
aF89.8261468
aa(lp160
F105.374256
aF107.14820660000001
aF105.730485
aa(lp161
F114.60296000000002
aF114.94208119999999
aF113.77315000000002
aa(lp162
F118.56630759999999
aF118.1264816
aF118.08677
aa(lp163
F121.4599125
aF121.55548040000001
aF121.11423
aa(lp164
F124.5084497
aF124.0024668
aF124.312582
aa(lp165
F127.5183223
aF126.7131344
aF127.73165800000001
aa(lp166
F131.1750342
aF131.1135142
aF132.0167956
aa(lp167
F137.90402400000002
aF139.2472914
aF137.7567245
aa(lp168
F150.5281515
aF149.476293
aF149.3146376
aa(lp169
F161.8068957
aF165.0920192
aF163.57849960000001
aa(lp170
F176.8386619
aF177.08215099999998
aF175.24485099999998
aa(lp171
F198.5527056
aF196.69308460000002
aF200.6252762
aa(lp172
F231.57788119999998
aF232.98547049999996
aF226.76258359999997
aa(lp173
F285.35158620000004
aF275.84480759999997
aF275.6583724
aa(lp174
F419.83405899999997
aF414.277136
aF402.51919350000003
aa(lp175
F987.7883874999999
aF794.6019676
aF866.9517903999999
aa(lp176
F6332.4865429
aF5689.3498868
aF5480.9045544
aasS'single_50'
p177
(lp178
(lp179
F75.1314495
aF75.178167
aF75.1224536
aa(lp180
F75.39576969999999
aF75.4029506
aF75.4429054
aa(lp181
F75.60534559999999
aF75.71413179999999
aF75.50272720000001
aa(lp182
F75.6890004
aF75.75106260000001
aF75.80026459999999
aa(lp183
F76.1118864
aF76.21069729999999
aF76.04865000000001
aa(lp184
F76.32420139999999
aF76.4358746
aF76.3094288
aa(lp185
F76.7014365
aF76.6909168
aF76.62407859999999
aa(lp186
F77.0867207
aF76.9773544
aF77.091667
aa(lp187
F77.6699371
aF77.5037208
aF77.6303585
aa(lp188
F78.2608322
aF78.2923916
aF78.38473359999999
aa(lp189
F79.0816576
aF79.30939649999999
aF79.0838243
aa(lp190
F80.4120405
aF80.29509
aF80.2993812
aa(lp191
F81.9339454
aF82.1044565
aF82.2160516
aa(lp192
F84.91788679999999
aF84.9134124
aF84.70372599999999
aa(lp193
F92.167176
aF91.64964940000002
aF92.8055992
aa(lp194
F104.93357119999999
aF105.905171
aF104.0446456
aa(lp195
F119.15032540000001
aF118.39077799999998
aF119.61555039999999
aa(lp196
F147.170591
aF144.39965800000002
aF145.7114724
aa(lp197
F217.16577249999997
aF221.32479339999998
aF220.71870239999998
aa(lp198
F662.2628136
aF1402.0671676
aF1135.5317192999998
aasS'random_50'
p199
(lp200
(lp201
F74.93528
aF74.8211245
aF74.8962312
aa(lp202
F75.0648288
aF75.081393
aF75.1294926
aa(lp203
F75.338986
aF75.2819476
aF75.2970687
aa(lp204
F75.5267682
aF75.56649060000001
aF75.6172478
aa(lp205
F75.826123
aF75.8413348
aF75.78472479999999
aa(lp206
F76.2249584
aF76.0551904
aF76.0139142
aa(lp207
F76.39627819999998
aF76.6073858
aF76.425533
aa(lp208
F76.8570028
aF76.915698
aF76.8593544
aa(lp209
F77.4502436
aF77.5703496
aF77.4702216
aa(lp210
F78.3531137
aF78.172687
aF78.31763000000001
aa(lp211
F79.1352328
aF79.0203711
aF79.1029888
aa(lp212
F80.34063800000001
aF80.288308
aF80.24847109999999
aa(lp213
F82.1292512
aF82.005774
aF81.9720012
aa(lp214
F84.74079259999999
aF85.3414558
aF84.55714309999999
aa(lp215
F92.450654
aF91.61870379999999
aF92.4025976
aa(lp216
F104.3548917
aF104.0711155
aF106.14883599999999
aa(lp217
F118.28977979999999
aF119.4949776
aF117.9291485
aa(lp218
F147.8888156
aF140.7605051
aF141.991977
aa(lp219
F237.3542554
aF218.89046000000002
aF231.87391950000003
aa(lp220
F1050.5677765
aF1196.924529
aF1182.4613818
aasS'random_95'
p221
(lp222
(lp223
F85.682226
aF85.5392128
aF85.6849992
aa(lp224
F87.0329652
aF87.202245
aF86.93923860000001
aa(lp225
F90.06233800000001
aF89.7639564
aF90.0258906
aa(lp226
F105.2748522
aF105.4404648
aF105.4604046
aa(lp227
F114.00305699999998
aF113.7758845
aF114.0428554
aa(lp228
F118.4102201
aF117.8913566
aF118.1900937
aa(lp229
F121.15373209999998
aF121.5900536
aF120.48855200000001
aa(lp230
F124.02032279999999
aF123.938556
aF124.03088879999999
aa(lp231
F127.05570639999999
aF127.0478442
aF126.9471316
aa(lp232
F131.140173
aF131.12976099999997
aF131.21329
aa(lp233
F138.5269102
aF138.2076738
aF139.3148064
aa(lp234
F151.194668
aF147.79605850000002
aF151.2850366
aa(lp235
F161.85426320000005
aF163.65693040000002
aF162.4502122
aa(lp236
F174.535616
aF179.59362040000002
aF173.3276717
aa(lp237
F196.8112145
aF197.7227564
aF199.65865520000003
aa(lp238
F225.85317179999998
aF229.7967385
aF234.23247849999998
aa(lp239
F277.34463239999997
aF279.3134592
aF274.6016732
aa(lp240
F404.7474626
aF387.6321587
aF397.920258
aa(lp241
F921.2246752
aF905.9921420000002
aF1037.0799673000001
aa(lp242
F6296.132315
aF6400.160186200001
aF5470.618913400001
aasS'minimum_x'
p243
(lp244
(lp245
I5
aI5
aI5
aa(lp246
I10
aI10
aI10
aa(lp247
I15
aI15
aI15
aa(lp248
I20
aI20
aI20
aa(lp249
I25
aI25
aI25
aa(lp250
I30
aI30
aI30
aa(lp251
I35
aI35
aI35
aa(lp252
I40
aI40
aI40
aa(lp253
I45
aI45
aI45
aa(lp254
I50
aI50
aI50
aa(lp255
I55
aI55
aI55
aa(lp256
I60
aI60
aI60
aa(lp257
I65
aI65
aI65
aa(lp258
I70
aI70
aI70
aa(lp259
I75
aI75
aI75
aa(lp260
I80
aI80
aI80
aa(lp261
I85
aI85
aI85
aa(lp262
I90
aI90
aI90
aa(lp263
I95
aI95
aI95
aa(lp264
I100
aI100
aI100
aasS'minimum_soj_95'
p265
(lp266
(lp267
F77.3485
aF76.3865
aF74.4528
aa(lp268
F77.71000000000001
aF74.6896
aF79.0848
aa(lp269
F78.7456
aF81.0269
aF83.8812
aa(lp270
F93.9368
aF94.8879
aF96.41579999999999
aa(lp271
F101.8522
aF100.80160000000001
aF102.6186
aa(lp272
F106.7996
aF107.16159999999999
aF104.749
aa(lp273
F107.896
aF109.6675
aF109.5732
aa(lp274
F111.54860000000001
aF120.3205
aF111.786
aa(lp275
F115.0875
aF116.678
aF117.0184
aa(lp276
F122.146
aF121.5388
aF119.3819
aa(lp277
F124.4521
aF132.99079999999998
aF125.6926
aa(lp278
F137.13400000000001
aF137.8698
aF140.3398
aa(lp279
F153.74880000000002
aF150.197
aF150.81990000000002
aa(lp280
F165.956
aF160.722
aF164.493
aa(lp281
F183.492
aF182.9829
aF188.553
aa(lp282
F212.2081
aF215.4613
aF215.6439
aa(lp283
F285.3891
aF285.42879999999997
aF280.68679999999995
aa(lp284
F393.804
aF395.6585
aF437.9705
aa(lp285
F811.122
aF935.4046999999999
aF823.309
aa(lp286
F7275.134000000001
aF4956.866999999999
aF3586.3512
aasS'minimum_99'
p287
(lp288
(lp289
F110.87803459999999
aF110.122113
aF108.6533796
aa(lp290
F122.03534800000001
aF121.5558925
aF122.37581130000001
aa(lp291
F125.80292199999998
aF125.47666699999999
aF126.080393
aa(lp292
F128.5211281
aF128.7453488
aF128.8384522
aa(lp293
F131.7420496
aF131.244284
aF131.2039977
aa(lp294
F135.32227
aF134.8996432
aF135.2576256
aa(lp295
F140.7852524
aF140.847322
aF141.4439248
aa(lp296
F154.25179839999998
aF154.6842408
aF154.45991049999998
aa(lp297
F165.251944
aF165.86835840000003
aF164.8061164
aa(lp298
F171.18246620000002
aF170.16040799999996
aF171.45572399999998
aa(lp299
F177.22458529999997
aF176.89396639999998
aF177.3075258
aa(lp300
F189.9697248
aF192.1124048
aF189.9265429
aa(lp301
F208.6680719
aF206.82890400000002
aF202.6689442
aa(lp302
F230.37558320000002
aF226.0077812
aF228.13767199999995
aa(lp303
F251.1630273
aF258.7890672
aF267.9096724
aa(lp304
F313.80028400000003
aF314.294338
aF312.53230829999995
aa(lp305
F404.47956669999996
aF466.6960192
aF420.4483245
aa(lp306
F616.9391135
aF626.9366660000001
aF656.7170334
aa(lp307
F1154.3254431999999
aF1396.777799
aF1179.3486732000001
aa(lp308
F9609.573349999999
aF5829.0667316
aF4740.259408
aasS'random_soj_50'
p309
(lp310
(lp311
F67.648
aF64.73150000000001
aF65.2758
aa(lp312
F67.9196
aF67.8286
aF67.225
aa(lp313
F67.6178
aF69.59479999999999
aF68.7448
aa(lp314
F68.35419999999999
aF64.40010000000001
aF68.1188
aa(lp315
F69.3078
aF69.10079999999999
aF68.99119999999999
aa(lp316
F68.69919999999999
aF69.6448
aF69.39500000000001
aa(lp317
F70.17660000000001
aF70.4132
aF71.84899999999999
aa(lp318
F72.2028
aF71.404
aF70.3048
aa(lp319
F71.8664
aF75.884
aF71.9024
aa(lp320
F71.9734
aF70.8012
aF70.46520000000001
aa(lp321
F71.7004
aF72.99629999999999
aF74.30879999999999
aa(lp322
F75.398
aF75.0984
aF76.0405
aa(lp323
F77.6688
aF77.253
aF77.811
aa(lp324
F80.34559999999999
aF80.26740000000001
aF80.7232
aa(lp325
F88.56360000000001
aF85.7116
aF82.1782
aa(lp326
F99.9455
aF101.5517
aF103.47359999999999
aa(lp327
F113.88069999999999
aF112.5276
aF111.4615
aa(lp328
F142.4562
aF132.837
aF134.88400000000001
aa(lp329
F228.162
aF211.351
aF225.375
aa(lp330
F1046.2730000000001
aF1192.3795
aF1175.3727
aasS'single_soj_50'
p331
(lp332
(lp333
F65.84700000000001
aF66.85900000000001
aF65.4414
aa(lp334
F67.5289
aF66.78649999999999
aF66.5596
aa(lp335
F70.6784
aF67.65360000000001
aF66.5772
aa(lp336
F68.4156
aF68.0629
aF66.5228
aa(lp337
F66.32159999999999
aF68.946
aF68.687
aa(lp338
F70.3226
aF70.47040000000001
aF73.95519999999999
aa(lp339
F67.0745
aF71.928
aF69.9718
aa(lp340
F76.6005
aF68.5604
aF71.2927
aa(lp341
F70.90010000000001
aF70.7582
aF70.7582
aa(lp342
F68.227
aF70.884
aF75.19040000000001
aa(lp343
F73.9616
aF71.79599999999999
aF73.7122
aa(lp344
F73.3434
aF77.97999999999999
aF75.0454
aa(lp345
F77.299
aF76.9625
aF74.381
aa(lp346
F80.8892
aF81.041
aF79.6748
aa(lp347
F87.344
aF86.97550000000001
aF83.1052
aa(lp348
F98.7928
aF99.9806
aF97.0706
aa(lp349
F109.43629999999999
aF109.91
aF114.9432
aa(lp350
F142.1917
aF133.1848
aF142.43759999999997
aa(lp351
F214.72750000000002
aF216.6786
aF208.9548
aa(lp352
F651.7848
aF1395.3221
aF1126.146
aasS'minimum_soj_99'
p353
(lp354
(lp355
F98.6893
aF96.7954
aF93.5376
aa(lp356
F107.409
aF102.602
aF109.53960000000001
aa(lp357
F109.09440000000001
aF111.9266
aF116.103
aa(lp358
F112.22290000000001
aF113.14110000000001
aF114.96419999999999
aa(lp359
F116.5728
aF116.00800000000001
aF117.51389999999999
aa(lp360
F121.1752
aF121.8112
aF119.4256
aa(lp361
F124.6683
aF126.211
aF128.1664
aa(lp362
F137.9792
aF148.8451
aF138.538
aa(lp363
F148.614
aF150.338
aF150.4102
aa(lp364
F158.29199999999997
aF157.236
aF155.0978
aa(lp365
F160.2177
aF171.4334
aF162.21370000000002
aa(lp366
F173.352
aF175.4604
aF176.8366
aa(lp367
F198.2844
aF191.54399999999998
aF190.9446
aa(lp368
F215.5856
aF210.2226
aF213.207
aa(lp369
F238.03879999999998
aF244.5024
aF253.7754
aa(lp370
F291.51599999999996
aF299.2181
aF298.7113
aa(lp371
F387.4409
aF448.3216
aF407.04549999999995
aa(lp372
F597.7574999999999
aF613.1642
aF638.7115
aa(lp373
F1134.9952
aF1377.0069999999998
aF1157.6542
aa(lp374
F9589.95
aF5803.289199999999
aF4717.114
aasS'random_x'
p375
(lp376
(lp377
I5
aI5
aI5
aa(lp378
I10
aI10
aI10
aa(lp379
I15
aI15
aI15
aa(lp380
I20
aI20
aI20
aa(lp381
I25
aI25
aI25
aa(lp382
I30
aI30
aI30
aa(lp383
I35
aI35
aI35
aa(lp384
I40
aI40
aI40
aa(lp385
I45
aI45
aI45
aa(lp386
I50
aI50
aI50
aa(lp387
I55
aI55
aI55
aa(lp388
I60
aI60
aI60
aa(lp389
I65
aI65
aI65
aa(lp390
I70
aI70
aI70
aa(lp391
I75
aI75
aI75
aa(lp392
I80
aI80
aI80
aa(lp393
I85
aI85
aI85
aa(lp394
I90
aI90
aI90
aa(lp395
I95
aI95
aI95
aa(lp396
I100
aI100
aI100
aasS'single_x'
p397
(lp398
(lp399
I5
aI5
aI5
aa(lp400
I10
aI10
aI10
aa(lp401
I15
aI15
aI15
aa(lp402
I20
aI20
aI20
aa(lp403
I25
aI25
aI25
aa(lp404
I30
aI30
aI30
aa(lp405
I35
aI35
aI35
aa(lp406
I40
aI40
aI40
aa(lp407
I45
aI45
aI45
aa(lp408
I50
aI50
aI50
aa(lp409
I55
aI55
aI55
aa(lp410
I60
aI60
aI60
aa(lp411
I65
aI65
aI65
aa(lp412
I70
aI70
aI70
aa(lp413
I75
aI75
aI75
aa(lp414
I80
aI80
aI80
aa(lp415
I85
aI85
aI85
aa(lp416
I90
aI90
aI90
aa(lp417
I95
aI95
aI95
aa(lp418
I100
aI100
aI100
aasS'minimum_95'
p419
(lp420
(lp421
F85.58581699999999
aF85.6450925
aF85.6714038
aa(lp422
F87.22812
aF87.152734
aF87.03394440000001
aa(lp423
F89.73052799999999
aF90.17431549999999
aF90.3137972
aa(lp424
F106.9000552
aF107.7286832
aF107.56812779999998
aa(lp425
F114.8591754
aF113.8996568
aF113.94619979999999
aa(lp426
F118.675585
aF118.75473760000001
aF118.37087400000001
aa(lp427
F121.556888
aF121.890085
aF121.61289239999999
aa(lp428
F124.78119219999999
aF125.021964
aF124.5469185
aa(lp429
F128.12065
aF128.0932704
aF127.59166880000001
aa(lp430
F131.8216081
aF131.3799264
aF131.90300200000001
aa(lp431
F137.3925669
aF137.2604368
aF137.5550284
aa(lp432
F149.8131566
aF151.2149976
aF150.9347737
aa(lp433
F162.3834488
aF162.663377
aF160.2719973
aa(lp434
F176.89128200000002
aF173.653364
aF175.68552799999998
aa(lp435
F193.653457
aF193.4196462
aF199.241218
aa(lp436
F228.0697969
aF227.20787399999998
aF226.30433490000001
aa(lp437
F298.36372329999995
aF299.2680256
aF291.1740652
aa(lp438
F407.8707272
aF404.552705
aF450.3683178
aa(lp439
F825.0569019999999
aF948.7740079
aF841.243314
aa(lp440
F7291.213222
aF4979.8562409999995
aF3606.0314464
aasS'minimum_soj_50'
p441
(lp442
(lp443
F68.5591
aF67.687
aF65.71039999999999
aa(lp444
F67.561
aF65.1664
aF69.1136
aa(lp445
F66.816
aF68.25280000000001
aF70.6134
aa(lp446
F67.542
aF67.03110000000001
aF68.7498
aa(lp447
F67.9966
aF67.5024
aF69.887
aa(lp448
F70.1634
aF68.7456
aF68.3503
aa(lp449
F68.8203
aF70.287
aF67.4048
aa(lp450
F68.7779
aF74.42859999999999
aF69.37
aa(lp451
F69.6043
aF71.842
aF72.2308
aa(lp452
F72.93199999999999
aF72.6955
aF71.0102
aa(lp453
F72.1375
aF76.51759999999999
aF71.9572
aa(lp454
F74.26599999999999
aF72.6474
aF74.2236
aa(lp455
F76.1764
aF74.596
aF76.5699
aa(lp456
F80.6414
aF76.4615
aF80.33779999999999
aa(lp457
F86.7888
aF86.13929999999999
aF86.88
aa(lp458
F97.8659
aF97.1093
aF97.13589999999999
aa(lp459
F113.7397
aF109.7696
aF112.3316
aa(lp460
F137.1465
aF146.09570000000002
aF144.7855
aa(lp461
F221.19979999999998
aF231.46439999999998
aF201.9316
aa(lp462
F862.8870000000001
aF903.5684
aF1107.7324
aas.