(dp0
S'single_NodeRedirections'
p1
(lp2
(lp3
F0.0
aF0.0
aF0.0
aa(lp4
F0.0
aF0.0
aF0.0
aa(lp5
F0.0
aF0.0
aF0.0
aa(lp6
F0.0
aF0.0
aF0.0
aa(lp7
F0.0
aF0.0
aF0.0
aa(lp8
F0.0
aF0.0
aF0.0
aa(lp9
F0.0
aF0.0
aF0.0
aa(lp10
F0.0
aF0.0
aF0.0
aa(lp11
F0.0
aF0.0
aF0.0
aa(lp12
F0.0
aF0.0
aF0.0
aa(lp13
F0.0
aF0.0
aF0.0
aa(lp14
F0.0
aF0.0
aF0.0
aa(lp15
F0.0
aF0.0
aF0.0
aa(lp16
F0.0
aF0.0
aF0.0
aa(lp17
F0.0
aF0.0
aF0.0
aa(lp18
F0.0
aF0.0
aF0.0
aa(lp19
F0.0
aF0.0
aF0.0
aa(lp20
F0.0
aF0.0
aF0.0
aa(lp21
F0.0
aF0.0
aF0.0
aa(lp22
F0.0
aF0.0
aF0.0
aasS'random_NodeTotal'
p23
(lp24
(lp25
F0.0
aF0.0
aF0.0
aa(lp26
F0.0
aF0.0
aF0.0
aa(lp27
F0.0
aF0.0
aF0.0
aa(lp28
F0.0
aF0.0
aF0.0
aa(lp29
F0.0
aF0.0
aF0.0
aa(lp30
F0.0
aF0.0
aF0.0
aa(lp31
F0.0
aF0.0
aF0.0
aa(lp32
F0.0
aF0.0
aF0.0
aa(lp33
F0.0
aF0.0
aF0.0
aa(lp34
F0.0
aF0.0
aF0.0
aa(lp35
F0.0
aF0.0
aF0.0
aa(lp36
F0.0
aF0.0
aF0.0
aa(lp37
F0.0
aF0.0
aF0.0
aa(lp38
F0.0
aF0.0
aF0.0
aa(lp39
F0.0
aF0.0
aF0.0
aa(lp40
F0.0
aF0.0
aF0.0
aa(lp41
F0.0
aF0.0
aF0.0
aa(lp42
F0.0
aF0.0
aF0.0
aa(lp43
F0.0
aF0.0
aF0.0
aa(lp44
F0.0
aF0.0
aF0.0
aasS'minimum_AggRedirections'
p45
(lp46
(lp47
F521.0
aF494.0
aF498.0
aa(lp48
F1107.0
aF1091.0
aF1081.0
aa(lp49
F1589.0
aF1579.0
aF1565.0
aa(lp50
F2038.0
aF2026.0
aF2097.0
aa(lp51
F2448.0
aF2446.0
aF2483.0
aa(lp52
F3004.0
aF2941.0
aF2950.0
aa(lp53
F3318.0
aF3348.0
aF3380.0
aa(lp54
F3647.0
aF3667.0
aF3774.0
aa(lp55
F3959.0
aF4099.0
aF4105.0
aa(lp56
F4455.0
aF4349.0
aF4467.0
aa(lp57
F4648.0
aF4652.0
aF4662.0
aa(lp58
F4873.0
aF4912.0
aF4888.0
aa(lp59
F5183.0
aF4993.0
aF5043.0
aa(lp60
F5295.0
aF5146.0
aF5134.0
aa(lp61
F5260.0
aF5361.0
aF5392.0
aa(lp62
F5259.0
aF5279.0
aF5533.0
aa(lp63
F5561.0
aF5554.0
aF5474.0
aa(lp64
F5497.0
aF5488.0
aF5502.0
aa(lp65
F5519.0
aF5512.0
aF5436.0
aa(lp66
F5529.0
aF5518.0
aF5455.0
aasS'single_AggRedirections'
p67
(lp68
(lp69
F581.0
aF515.0
aF532.0
aa(lp70
F1004.0
aF993.0
aF1039.0
aa(lp71
F1543.0
aF1487.0
aF1528.0
aa(lp72
F1951.0
aF2081.0
aF1946.0
aa(lp73
F2331.0
aF2484.0
aF2343.0
aa(lp74
F2805.0
aF2779.0
aF2846.0
aa(lp75
F3349.0
aF3202.0
aF3172.0
aa(lp76
F3546.0
aF3467.0
aF3501.0
aa(lp77
F3861.0
aF3955.0
aF3950.0
aa(lp78
F4151.0
aF4207.0
aF4090.0
aa(lp79
F4337.0
aF4379.0
aF4310.0
aa(lp80
F4325.0
aF4598.0
aF4575.0
aa(lp81
F4691.0
aF4610.0
aF4681.0
aa(lp82
F4847.0
aF4901.0
aF4851.0
aa(lp83
F5010.0
aF4991.0
aF5021.0
aa(lp84
F5126.0
aF4999.0
aF5084.0
aa(lp85
F5141.0
aF5093.0
aF5039.0
aa(lp86
F5061.0
aF5240.0
aF5152.0
aa(lp87
F5067.0
aF5164.0
aF5144.0
aa(lp88
F5197.0
aF5079.0
aF5176.0
aasS'minimum_NodeRedirections'
p89
(lp90
(lp91
F0.0
aF0.0
aF0.0
aa(lp92
F0.0
aF0.0
aF0.0
aa(lp93
F0.0
aF0.0
aF0.0
aa(lp94
F0.0
aF0.0
aF0.0
aa(lp95
F0.0
aF0.0
aF0.0
aa(lp96
F0.0
aF0.0
aF0.0
aa(lp97
F0.0
aF0.0
aF0.0
aa(lp98
F0.0
aF0.0
aF0.0
aa(lp99
F0.0
aF0.0
aF0.0
aa(lp100
F0.0
aF0.0
aF0.0
aa(lp101
F0.0
aF0.0
aF0.0
aa(lp102
F0.0
aF0.0
aF0.0
aa(lp103
F0.0
aF0.0
aF0.0
aa(lp104
F0.0
aF0.0
aF0.0
aa(lp105
F0.0
aF0.0
aF0.0
aa(lp106
F0.0
aF0.0
aF0.0
aa(lp107
F0.0
aF0.0
aF0.0
aa(lp108
F0.0
aF0.0
aF0.0
aa(lp109
F0.0
aF0.0
aF0.0
aa(lp110
F0.0
aF0.0
aF0.0
aasS'random_x'
p111
(lp112
(lp113
I5
aI5
aI5
aa(lp114
I10
aI10
aI10
aa(lp115
I15
aI15
aI15
aa(lp116
I20
aI20
aI20
aa(lp117
I25
aI25
aI25
aa(lp118
I30
aI30
aI30
aa(lp119
I35
aI35
aI35
aa(lp120
I40
aI40
aI40
aa(lp121
I45
aI45
aI45
aa(lp122
I50
aI50
aI50
aa(lp123
I55
aI55
aI55
aa(lp124
I60
aI60
aI60
aa(lp125
I65
aI65
aI65
aa(lp126
I70
aI70
aI70
aa(lp127
I75
aI75
aI75
aa(lp128
I80
aI80
aI80
aa(lp129
I85
aI85
aI85
aa(lp130
I90
aI90
aI90
aa(lp131
I95
aI95
aI95
aa(lp132
I100
aI100
aI100
aasS'minimum_x'
p133
(lp134
(lp135
I5
aI5
aI5
aa(lp136
I10
aI10
aI10
aa(lp137
I15
aI15
aI15
aa(lp138
I20
aI20
aI20
aa(lp139
I25
aI25
aI25
aa(lp140
I30
aI30
aI30
aa(lp141
I35
aI35
aI35
aa(lp142
I40
aI40
aI40
aa(lp143
I45
aI45
aI45
aa(lp144
I50
aI50
aI50
aa(lp145
I55
aI55
aI55
aa(lp146
I60
aI60
aI60
aa(lp147
I65
aI65
aI65
aa(lp148
I70
aI70
aI70
aa(lp149
I75
aI75
aI75
aa(lp150
I80
aI80
aI80
aa(lp151
I85
aI85
aI85
aa(lp152
I90
aI90
aI90
aa(lp153
I95
aI95
aI95
aa(lp154
I100
aI100
aI100
aasS'single_x'
p155
(lp156
(lp157
I5
aI5
aI5
aa(lp158
I10
aI10
aI10
aa(lp159
I15
aI15
aI15
aa(lp160
I20
aI20
aI20
aa(lp161
I25
aI25
aI25
aa(lp162
I30
aI30
aI30
aa(lp163
I35
aI35
aI35
aa(lp164
I40
aI40
aI40
aa(lp165
I45
aI45
aI45
aa(lp166
I50
aI50
aI50
aa(lp167
I55
aI55
aI55
aa(lp168
I60
aI60
aI60
aa(lp169
I65
aI65
aI65
aa(lp170
I70
aI70
aI70
aa(lp171
I75
aI75
aI75
aa(lp172
I80
aI80
aI80
aa(lp173
I85
aI85
aI85
aa(lp174
I90
aI90
aI90
aa(lp175
I95
aI95
aI95
aa(lp176
I100
aI100
aI100
aasS'random_NodeRedirections'
p177
(lp178
(lp179
F0.0
aF0.0
aF0.0
aa(lp180
F0.0
aF0.0
aF0.0
aa(lp181
F0.0
aF0.0
aF0.0
aa(lp182
F0.0
aF0.0
aF0.0
aa(lp183
F0.0
aF0.0
aF0.0
aa(lp184
F0.0
aF0.0
aF0.0
aa(lp185
F0.0
aF0.0
aF0.0
aa(lp186
F0.0
aF0.0
aF0.0
aa(lp187
F0.0
aF0.0
aF0.0
aa(lp188
F0.0
aF0.0
aF0.0
aa(lp189
F0.0
aF0.0
aF0.0
aa(lp190
F0.0
aF0.0
aF0.0
aa(lp191
F0.0
aF0.0
aF0.0
aa(lp192
F0.0
aF0.0
aF0.0
aa(lp193
F0.0
aF0.0
aF0.0
aa(lp194
F0.0
aF0.0
aF0.0
aa(lp195
F0.0
aF0.0
aF0.0
aa(lp196
F0.0
aF0.0
aF0.0
aa(lp197
F0.0
aF0.0
aF0.0
aa(lp198
F0.0
aF0.0
aF0.0
aasS'minimum_EdgeTotal'
p199
(lp200
(lp201
F145335.0
aF144977.0
aF145346.0
aa(lp202
F145298.0
aF145547.0
aF145647.0
aa(lp203
F145815.0
aF145795.0
aF145706.0
aa(lp204
F145943.0
aF146221.0
aF146312.0
aa(lp205
F146123.0
aF146014.0
aF146305.0
aa(lp206
F146497.0
aF146716.0
aF146546.0
aa(lp207
F147098.0
aF146646.0
aF146460.0
aa(lp208
F146752.0
aF146746.0
aF147115.0
aa(lp209
F147120.0
aF146888.0
aF146876.0
aa(lp210
F147056.0
aF147036.0
aF147074.0
aa(lp211
F146995.0
aF146921.0
aF147176.0
aa(lp212
F147335.0
aF147131.0
aF147435.0
aa(lp213
F147166.0
aF147416.0
aF147554.0
aa(lp214
F147368.0
aF147428.0
aF147214.0
aa(lp215
F147395.0
aF147341.0
aF147308.0
aa(lp216
F147537.0
aF147441.0
aF147492.0
aa(lp217
F147533.0
aF147736.0
aF147733.0
aa(lp218
F147719.0
aF147406.0
aF147395.0
aa(lp219
F147662.0
aF147737.0
aF147501.0
aa(lp220
F147660.0
aF147610.0
aF147477.0
aasS'minimum_NodeTotal'
p221
(lp222
(lp223
F0.0
aF0.0
aF0.0
aa(lp224
F0.0
aF0.0
aF0.0
aa(lp225
F0.0
aF0.0
aF0.0
aa(lp226
F0.0
aF0.0
aF0.0
aa(lp227
F0.0
aF0.0
aF0.0
aa(lp228
F0.0
aF0.0
aF0.0
aa(lp229
F0.0
aF0.0
aF0.0
aa(lp230
F0.0
aF0.0
aF0.0
aa(lp231
F0.0
aF0.0
aF0.0
aa(lp232
F0.0
aF0.0
aF0.0
aa(lp233
F0.0
aF0.0
aF0.0
aa(lp234
F0.0
aF0.0
aF0.0
aa(lp235
F0.0
aF0.0
aF0.0
aa(lp236
F0.0
aF0.0
aF0.0
aa(lp237
F0.0
aF0.0
aF0.0
aa(lp238
F0.0
aF0.0
aF0.0
aa(lp239
F0.0
aF0.0
aF0.0
aa(lp240
F0.0
aF0.0
aF0.0
aa(lp241
F0.0
aF0.0
aF0.0
aa(lp242
F0.0
aF0.0
aF0.0
aasS'single_NodeTotal'
p243
(lp244
(lp245
F0.0
aF0.0
aF0.0
aa(lp246
F0.0
aF0.0
aF0.0
aa(lp247
F0.0
aF0.0
aF0.0
aa(lp248
F0.0
aF0.0
aF0.0
aa(lp249
F0.0
aF0.0
aF0.0
aa(lp250
F0.0
aF0.0
aF0.0
aa(lp251
F0.0
aF0.0
aF0.0
aa(lp252
F0.0
aF0.0
aF0.0
aa(lp253
F0.0
aF0.0
aF0.0
aa(lp254
F0.0
aF0.0
aF0.0
aa(lp255
F0.0
aF0.0
aF0.0
aa(lp256
F0.0
aF0.0
aF0.0
aa(lp257
F0.0
aF0.0
aF0.0
aa(lp258
F0.0
aF0.0
aF0.0
aa(lp259
F0.0
aF0.0
aF0.0
aa(lp260
F0.0
aF0.0
aF0.0
aa(lp261
F0.0
aF0.0
aF0.0
aa(lp262
F0.0
aF0.0
aF0.0
aa(lp263
F0.0
aF0.0
aF0.0
aa(lp264
F0.0
aF0.0
aF0.0
aasS'single_AggTotal'
p265
(lp266
(lp267
F130524.0
aF130513.0
aF130557.0
aa(lp268
F130971.0
aF130665.0
aF130783.0
aa(lp269
F131318.0
aF131419.0
aF131138.0
aa(lp270
F131092.0
aF131837.0
aF131446.0
aa(lp271
F131830.0
aF131778.0
aF131738.0
aa(lp272
F132158.0
aF131764.0
aF132136.0
aa(lp273
F132360.0
aF132193.0
aF132516.0
aa(lp274
F132273.0
aF132589.0
aF132523.0
aa(lp275
F132837.0
aF132470.0
aF132642.0
aa(lp276
F132690.0
aF133094.0
aF133150.0
aa(lp277
F132582.0
aF132827.0
aF132814.0
aa(lp278
F132912.0
aF132898.0
aF132978.0
aa(lp279
F133165.0
aF132673.0
aF132896.0
aa(lp280
F132898.0
aF133149.0
aF132824.0
aa(lp281
F132884.0
aF132816.0
aF132401.0
aa(lp282
F132795.0
aF132872.0
aF132809.0
aa(lp283
F132799.0
aF132980.0
aF132622.0
aa(lp284
F132494.0
aF132389.0
aF132606.0
aa(lp285
F132038.0
aF132562.0
aF132439.0
aa(lp286
F132349.0
aF132594.0
aF132050.0
aasS'minimum_AggTotal'
p287
(lp288
(lp289
F130724.0
aF130315.0
aF130806.0
aa(lp290
F131096.0
aF131205.0
aF131778.0
aa(lp291
F132365.0
aF132251.0
aF132079.0
aa(lp292
F132791.0
aF132922.0
aF133381.0
aa(lp293
F133137.0
aF133527.0
aF133468.0
aa(lp294
F134149.0
aF134295.0
aF134307.0
aa(lp295
F135179.0
aF134627.0
aF134436.0
aa(lp296
F135090.0
aF134998.0
aF135452.0
aa(lp297
F135710.0
aF135313.0
aF135441.0
aa(lp298
F135983.0
aF135852.0
aF135940.0
aa(lp299
F136005.0
aF135876.0
aF136249.0
aa(lp300
F136578.0
aF136252.0
aF136567.0
aa(lp301
F136481.0
aF136845.0
aF136982.0
aa(lp302
F137058.0
aF136780.0
aF136669.0
aa(lp303
F137164.0
aF136885.0
aF137074.0
aa(lp304
F136803.0
aF136831.0
aF137190.0
aa(lp305
F137460.0
aF137482.0
aF137280.0
aa(lp306
F137592.0
aF136918.0
aF137346.0
aa(lp307
F137528.0
aF137402.0
aF137172.0
aa(lp308
F137498.0
aF137374.0
aF137159.0
aasS'minimum_CoreRedirections'
p309
(lp310
(lp311
F256.0
aF242.0
aF250.0
aa(lp312
F528.0
aF444.0
aF540.0
aa(lp313
F718.0
aF740.0
aF734.0
aa(lp314
F985.0
aF937.0
aF974.0
aa(lp315
F1126.0
aF1209.0
aF1134.0
aa(lp316
F1341.0
aF1363.0
aF1387.0
aa(lp317
F1612.0
aF1620.0
aF1537.0
aa(lp318
F1651.0
aF1640.0
aF1708.0
aa(lp319
F1807.0
aF1867.0
aF1823.0
aa(lp320
F2066.0
aF2011.0
aF2029.0
aa(lp321
F2076.0
aF2141.0
aF2080.0
aa(lp322
F2295.0
aF2144.0
aF2214.0
aa(lp323
F2251.0
aF2287.0
aF2333.0
aa(lp324
F2448.0
aF2432.0
aF2429.0
aa(lp325
F2381.0
aF2422.0
aF2444.0
aa(lp326
F2365.0
aF2458.0
aF2423.0
aa(lp327
F2444.0
aF2592.0
aF2624.0
aa(lp328
F2515.0
aF2551.0
aF2500.0
aa(lp329
F2488.0
aF2533.0
aF2540.0
aa(lp330
F2522.0
aF2526.0
aF2635.0
aasS'minimum_EdgeRedirections'
p331
(lp332
(lp333
F618.0
aF582.0
aF640.0
aa(lp334
F1190.0
aF1144.0
aF1202.0
aa(lp335
F1788.0
aF1787.0
aF1722.0
aa(lp336
F2284.0
aF2371.0
aF2267.0
aa(lp337
F2766.0
aF2739.0
aF2805.0
aa(lp338
F3279.0
aF3210.0
aF3340.0
aa(lp339
F3773.0
aF3744.0
aF3812.0
aa(lp340
F4070.0
aF4279.0
aF4138.0
aa(lp341
F4585.0
aF4454.0
aF4507.0
aa(lp342
F4870.0
aF4909.0
aF4900.0
aa(lp343
F5151.0
aF5115.0
aF5038.0
aa(lp344
F5371.0
aF5394.0
aF5270.0
aa(lp345
F5522.0
aF5594.0
aF5564.0
aa(lp346
F5842.0
aF5716.0
aF5808.0
aa(lp347
F6000.0
aF5755.0
aF5797.0
aa(lp348
F5972.0
aF5946.0
aF6075.0
aa(lp349
F6180.0
aF6148.0
aF6003.0
aa(lp350
F6067.0
aF6104.0
aF6109.0
aa(lp351
F6158.0
aF6090.0
aF6091.0
aa(lp352
F6068.0
aF6171.0
aF6112.0
aasS'single_EdgeTotal'
p353
(lp354
(lp355
F145058.0
aF145203.0
aF145207.0
aa(lp356
F145260.0
aF145049.0
aF145183.0
aa(lp357
F145342.0
aF145466.0
aF145219.0
aa(lp358
F145139.0
aF145486.0
aF145264.0
aa(lp359
F145540.0
aF145475.0
aF145436.0
aa(lp360
F145453.0
aF145239.0
aF145552.0
aa(lp361
F145550.0
aF145557.0
aF145779.0
aa(lp362
F145459.0
aF145514.0
aF145611.0
aa(lp363
F145931.0
aF145442.0
aF145607.0
aa(lp364
F145512.0
aF145647.0
aF145811.0
aa(lp365
F145449.0
aF145680.0
aF145517.0
aa(lp366
F145708.0
aF145656.0
aF145496.0
aa(lp367
F145480.0
aF145513.0
aF145544.0
aa(lp368
F145420.0
aF145899.0
aF145341.0
aa(lp369
F145410.0
aF145449.0
aF145313.0
aa(lp370
F145330.0
aF145339.0
aF145217.0
aa(lp371
F145522.0
aF145577.0
aF145414.0
aa(lp372
F145304.0
aF145112.0
aF145488.0
aa(lp373
F144952.0
aF145368.0
aF145163.0
aa(lp374
F145136.0
aF145177.0
aF145100.0
aasS'random_CoreRedirections'
p375
(lp376
(lp377
F228.0
aF260.0
aF271.0
aa(lp378
F472.0
aF471.0
aF498.0
aa(lp379
F687.0
aF721.0
aF745.0
aa(lp380
F951.0
aF882.0
aF884.0
aa(lp381
F1095.0
aF1108.0
aF1122.0
aa(lp382
F1319.0
aF1249.0
aF1253.0
aa(lp383
F1431.0
aF1489.0
aF1466.0
aa(lp384
F1653.0
aF1602.0
aF1651.0
aa(lp385
F1759.0
aF1824.0
aF1815.0
aa(lp386
F1965.0
aF1870.0
aF1901.0
aa(lp387
F2057.0
aF1930.0
aF1996.0
aa(lp388
F2114.0
aF2145.0
aF2218.0
aa(lp389
F2144.0
aF2195.0
aF2196.0
aa(lp390
F2320.0
aF2226.0
aF2260.0
aa(lp391
F2255.0
aF2303.0
aF2283.0
aa(lp392
F2404.0
aF2345.0
aF2266.0
aa(lp393
F2329.0
aF2394.0
aF2466.0
aa(lp394
F2388.0
aF2319.0
aF2343.0
aa(lp395
F2288.0
aF2479.0
aF2295.0
aa(lp396
F2368.0
aF2382.0
aF2350.0
aasS'single_EdgeRedirections'
p397
(lp398
(lp399
F3051.0
aF3000.0
aF2880.0
aa(lp400
F6160.0
aF5862.0
aF5883.0
aa(lp401
F8695.0
aF8648.0
aF8667.0
aa(lp402
F11385.0
aF11394.0
aF11213.0
aa(lp403
F13765.0
aF13771.0
aF13690.0
aa(lp404
F16489.0
aF16330.0
aF16389.0
aa(lp405
F18767.0
aF18761.0
aF18920.0
aa(lp406
F20974.0
aF20980.0
aF21301.0
aa(lp407
F23698.0
aF23300.0
aF23920.0
aa(lp408
F25773.0
aF25396.0
aF25720.0
aa(lp409
F27545.0
aF27699.0
aF27785.0
aa(lp410
F29569.0
aF29601.0
aF29542.0
aa(lp411
F31280.0
aF31377.0
aF31469.0
aa(lp412
F32961.0
aF33165.0
aF32811.0
aa(lp413
F34630.0
aF34412.0
aF34750.0
aa(lp414
F35983.0
aF35979.0
aF35894.0
aa(lp415
F36977.0
aF36812.0
aF37450.0
aa(lp416
F38536.0
aF38345.0
aF38282.0
aa(lp417
F39346.0
aF39426.0
aF39558.0
aa(lp418
F40024.0
aF40110.0
aF40003.0
aasS'single_CoreRedirections'
p419
(lp420
(lp421
F247.0
aF244.0
aF276.0
aa(lp422
F503.0
aF448.0
aF443.0
aa(lp423
F749.0
aF696.0
aF678.0
aa(lp424
F914.0
aF927.0
aF912.0
aa(lp425
F1118.0
aF1142.0
aF1160.0
aa(lp426
F1302.0
aF1303.0
aF1319.0
aa(lp427
F1514.0
aF1526.0
aF1482.0
aa(lp428
F1640.0
aF1631.0
aF1676.0
aa(lp429
F1781.0
aF1745.0
aF1775.0
aa(lp430
F1976.0
aF1909.0
aF1929.0
aa(lp431
F1993.0
aF2034.0
aF1976.0
aa(lp432
F2134.0
aF2089.0
aF2162.0
aa(lp433
F2199.0
aF2123.0
aF2101.0
aa(lp434
F2246.0
aF2228.0
aF2253.0
aa(lp435
F2360.0
aF2260.0
aF2381.0
aa(lp436
F2333.0
aF2430.0
aF2306.0
aa(lp437
F2444.0
aF2215.0
aF2301.0
aa(lp438
F2391.0
aF2336.0
aF2357.0
aa(lp439
F2260.0
aF2326.0
aF2340.0
aa(lp440
F2395.0
aF2427.0
aF2415.0
aasS'random_AggTotal'
p441
(lp442
(lp443
F125498.0
aF125452.0
aF126352.0
aa(lp444
F126612.0
aF126104.0
aF126365.0
aa(lp445
F127241.0
aF127138.0
aF127026.0
aa(lp446
F128042.0
aF128310.0
aF128383.0
aa(lp447
F128642.0
aF128332.0
aF128910.0
aa(lp448
F129205.0
aF128724.0
aF128484.0
aa(lp449
F129889.0
aF129800.0
aF129495.0
aa(lp450
F130127.0
aF130229.0
aF130090.0
aa(lp451
F131060.0
aF130406.0
aF130614.0
aa(lp452
F131112.0
aF131109.0
aF130878.0
aa(lp453
F131383.0
aF131454.0
aF130985.0
aa(lp454
F131898.0
aF131323.0
aF131420.0
aa(lp455
F131878.0
aF131945.0
aF131835.0
aa(lp456
F132314.0
aF131698.0
aF131712.0
aa(lp457
F132188.0
aF132022.0
aF132060.0
aa(lp458
F132182.0
aF132123.0
aF132453.0
aa(lp459
F132315.0
aF132387.0
aF131936.0
aa(lp460
F132587.0
aF131978.0
aF132627.0
aa(lp461
F132284.0
aF132590.0
aF131534.0
aa(lp462
F131829.0
aF132341.0
aF132693.0
aasS'random_CoreTotal'
p463
(lp464
(lp465
F57804.0
aF57758.0
aF58411.0
aa(lp466
F58463.0
aF58122.0
aF58338.0
aa(lp467
F58841.0
aF58824.0
aF58783.0
aa(lp468
F59491.0
aF59617.0
aF59632.0
aa(lp469
F59869.0
aF59630.0
aF59874.0
aa(lp470
F60144.0
aF59874.0
aF59766.0
aa(lp471
F60593.0
aF60576.0
aF60337.0
aa(lp472
F60768.0
aF60819.0
aF60723.0
aa(lp473
F61396.0
aF60984.0
aF61135.0
aa(lp474
F61411.0
aF61368.0
aF61239.0
aa(lp475
F61511.0
aF61556.0
aF61392.0
aa(lp476
F61876.0
aF61488.0
aF61642.0
aa(lp477
F61894.0
aF61990.0
aF61811.0
aa(lp478
F62216.0
aF61842.0
aF61717.0
aa(lp479
F62120.0
aF61976.0
aF62035.0
aa(lp480
F62049.0
aF62079.0
aF62271.0
aa(lp481
F62197.0
aF62290.0
aF61937.0
aa(lp482
F62361.0
aF61950.0
aF62317.0
aa(lp483
F62201.0
aF62279.0
aF61783.0
aa(lp484
F61928.0
aF62201.0
aF62403.0
aasS'random_AggRedirections'
p485
(lp486
(lp487
F543.0
aF534.0
aF531.0
aa(lp488
F1021.0
aF963.0
aF1055.0
aa(lp489
F1505.0
aF1504.0
aF1562.0
aa(lp490
F1996.0
aF1995.0
aF2037.0
aa(lp491
F2400.0
aF2437.0
aF2406.0
aa(lp492
F2847.0
aF2821.0
aF2884.0
aa(lp493
F3246.0
aF3190.0
aF3199.0
aa(lp494
F3486.0
aF3613.0
aF3538.0
aa(lp495
F3935.0
aF3889.0
aF3912.0
aa(lp496
F4211.0
aF4051.0
aF4039.0
aa(lp497
F4427.0
aF4343.0
aF4410.0
aa(lp498
F4523.0
aF4586.0
aF4451.0
aa(lp499
F4702.0
aF4793.0
aF4667.0
aa(lp500
F4975.0
aF4879.0
aF4774.0
aa(lp501
F4968.0
aF4938.0
aF4962.0
aa(lp502
F5134.0
aF5088.0
aF5134.0
aa(lp503
F5120.0
aF5092.0
aF5063.0
aa(lp504
F5120.0
aF5184.0
aF5235.0
aa(lp505
F5222.0
aF5192.0
aF5127.0
aa(lp506
F5264.0
aF5095.0
aF5102.0
aasS'single_CoreTotal'
p507
(lp508
(lp509
F60440.0
aF60321.0
aF60383.0
aa(lp510
F60687.0
aF60545.0
aF60627.0
aa(lp511
F60968.0
aF61028.0
aF60866.0
aa(lp512
F60979.0
aF61376.0
aF61100.0
aa(lp513
F61334.0
aF61334.0
aF61321.0
aa(lp514
F61658.0
aF61449.0
aF61632.0
aa(lp515
F61857.0
aF61695.0
aF61796.0
aa(lp516
F61815.0
aF62011.0
aF61925.0
aa(lp517
F62078.0
aF62031.0
aF62032.0
aa(lp518
F62176.0
aF62413.0
aF62381.0
aa(lp519
F62116.0
aF62216.0
aF62235.0
aa(lp520
F62283.0
aF62244.0
aF62445.0
aa(lp521
F62631.0
aF62201.0
aF62374.0
aa(lp522
F62406.0
aF62347.0
aF62447.0
aa(lp523
F62457.0
aF62363.0
aF62142.0
aa(lp524
F62449.0
aF62476.0
aF62483.0
aa(lp525
F62337.0
aF62474.0
aF62298.0
aa(lp526
F62188.0
aF62170.0
aF62159.0
aa(lp527
F62002.0
aF62298.0
aF62206.0
aa(lp528
F62230.0
aF62309.0
aF61979.0
aasS'minimum_CoreTotal'
p529
(lp530
(lp531
F60405.0
aF60275.0
aF60531.0
aa(lp532
F60727.0
aF60708.0
aF61141.0
aa(lp533
F61520.0
aF61434.0
aF61312.0
aa(lp534
F61838.0
aF61800.0
aF62156.0
aa(lp535
F62005.0
aF62344.0
aF62225.0
aa(lp536
F62672.0
aF62731.0
aF62745.0
aa(lp537
F63203.0
aF62965.0
aF62894.0
aa(lp538
F63247.0
aF63155.0
aF63393.0
aa(lp539
F63603.0
aF63435.0
aF63509.0
aa(lp540
F63897.0
aF63715.0
aF63831.0
aa(lp541
F63844.0
aF63795.0
aF64007.0
aa(lp542
F64191.0
aF64002.0
aF64140.0
aa(lp543
F64235.0
aF64374.0
aF64421.0
aa(lp544
F64528.0
aF64352.0
aF64309.0
aa(lp545
F64588.0
aF64458.0
aF64635.0
aa(lp546
F64266.0
aF64295.0
aF64608.0
aa(lp547
F64792.0
aF64785.0
aF64625.0
aa(lp548
F64823.0
aF64433.0
aF64768.0
aa(lp549
F64790.0
aF64699.0
aF64572.0
aa(lp550
F64801.0
aF64700.0
aF64597.0
aasS'random_EdgeTotal'
p551
(lp552
(lp553
F142672.0
aF142628.0
aF143022.0
aa(lp554
F143176.0
aF142909.0
aF143066.0
aa(lp555
F143469.0
aF143350.0
aF143168.0
aa(lp556
F143536.0
aF143696.0
aF143931.0
aa(lp557
F143930.0
aF143557.0
aF144080.0
aa(lp558
F144028.0
aF143841.0
aF143622.0
aa(lp559
F144333.0
aF144265.0
aF144143.0
aa(lp560
F144417.0
aF144361.0
aF144318.0
aa(lp561
F144762.0
aF144420.0
aF144442.0
aa(lp562
F144740.0
aF144793.0
aF144658.0
aa(lp563
F144918.0
aF144925.0
aF144578.0
aa(lp564
F145089.0
aF144848.0
aF144751.0
aa(lp565
F145019.0
aF145012.0
aF145002.0
aa(lp566
F145046.0
aF144865.0
aF144833.0
aa(lp567
F145103.0
aF145041.0
aF144959.0
aa(lp568
F145064.0
aF144990.0
aF145233.0
aa(lp569
F145125.0
aF145048.0
aF144948.0
aa(lp570
F145269.0
aF145072.0
aF145331.0
aa(lp571
F145025.0
aF145314.0
aF144481.0
aa(lp572
F144919.0
aF145130.0
aF145301.0
aasS'random_EdgeRedirections'
p573
(lp574
(lp575
F37878.0
aF37630.0
aF37896.0
aa(lp576
F38003.0
aF38087.0
aF38038.0
aa(lp577
F38426.0
aF38288.0
aF38138.0
aa(lp578
F38479.0
aF38517.0
aF38713.0
aa(lp579
F38705.0
aF38614.0
aF38710.0
aa(lp580
F38883.0
aF39091.0
aF39061.0
aa(lp581
F39309.0
aF39291.0
aF39294.0
aa(lp582
F39342.0
aF39461.0
aF39253.0
aa(lp583
F39846.0
aF39754.0
aF39737.0
aa(lp584
F39728.0
aF39801.0
aF39840.0
aa(lp585
F39963.0
aF39925.0
aF39829.0
aa(lp586
F40187.0
aF40192.0
aF40079.0
aa(lp587
F40196.0
aF40101.0
aF40058.0
aa(lp588
F40135.0
aF40141.0
aF40255.0
aa(lp589
F40099.0
aF40301.0
aF40295.0
aa(lp590
F40464.0
aF40263.0
aF40368.0
aa(lp591
F40445.0
aF40146.0
aF40256.0
aa(lp592
F40355.0
aF40393.0
aF40427.0
aa(lp593
F40206.0
aF40336.0
aF39976.0
aa(lp594
F40222.0
aF40238.0
aF40276.0
aas.