(dp0
S'single_NodeRedirections'
p1
(lp2
(lp3
F0.0
aF0.0
aF0.0
aa(lp4
F0.0
aF0.0
aF0.0
aa(lp5
F0.0
aF0.0
aF0.0
aa(lp6
F0.0
aF0.0
aF0.0
aa(lp7
F0.0
aF0.0
aF0.0
aa(lp8
F0.0
aF0.0
aF0.0
aa(lp9
F0.0
aF0.0
aF0.0
aa(lp10
F0.0
aF0.0
aF0.0
aa(lp11
F0.0
aF0.0
aF0.0
aa(lp12
F0.0
aF0.0
aF0.0
aa(lp13
F0.0
aF0.0
aF0.0
aa(lp14
F0.0
aF0.0
aF0.0
aa(lp15
F0.0
aF0.0
aF0.0
aa(lp16
F0.0
aF0.0
aF0.0
aa(lp17
F0.0
aF0.0
aF0.0
aa(lp18
F0.0
aF0.0
aF0.0
aa(lp19
F0.0
aF0.0
aF0.0
aa(lp20
F0.0
aF0.0
aF0.0
aa(lp21
F0.0
aF0.0
aF0.0
aa(lp22
F0.0
aF0.0
aF0.0
aasS'random_NodeTotal'
p23
(lp24
(lp25
F0.0
aF0.0
aF0.0
aa(lp26
F0.0
aF0.0
aF0.0
aa(lp27
F0.0
aF0.0
aF0.0
aa(lp28
F0.0
aF0.0
aF0.0
aa(lp29
F0.0
aF0.0
aF0.0
aa(lp30
F0.0
aF0.0
aF0.0
aa(lp31
F0.0
aF0.0
aF0.0
aa(lp32
F0.0
aF0.0
aF0.0
aa(lp33
F0.0
aF0.0
aF0.0
aa(lp34
F0.0
aF0.0
aF0.0
aa(lp35
F0.0
aF0.0
aF0.0
aa(lp36
F0.0
aF0.0
aF0.0
aa(lp37
F0.0
aF0.0
aF0.0
aa(lp38
F0.0
aF0.0
aF0.0
aa(lp39
F0.0
aF0.0
aF0.0
aa(lp40
F0.0
aF0.0
aF0.0
aa(lp41
F0.0
aF0.0
aF0.0
aa(lp42
F0.0
aF0.0
aF0.0
aa(lp43
F0.0
aF0.0
aF0.0
aa(lp44
F0.0
aF0.0
aF0.0
aasS'minimum_AggRedirections'
p45
(lp46
(lp47
F507.0
aF521.0
aF529.0
aa(lp48
F1044.0
aF1093.0
aF1062.0
aa(lp49
F1575.0
aF1561.0
aF1509.0
aa(lp50
F2057.0
aF2025.0
aF2036.0
aa(lp51
F2454.0
aF2486.0
aF2532.0
aa(lp52
F2815.0
aF2847.0
aF2925.0
aa(lp53
F3229.0
aF3301.0
aF3221.0
aa(lp54
F3600.0
aF3465.0
aF3573.0
aa(lp55
F3889.0
aF4004.0
aF3959.0
aa(lp56
F4155.0
aF4196.0
aF4224.0
aa(lp57
F4337.0
aF4401.0
aF4369.0
aa(lp58
F4581.0
aF4635.0
aF4501.0
aa(lp59
F4548.0
aF4809.0
aF4727.0
aa(lp60
F4706.0
aF4902.0
aF4743.0
aa(lp61
F4864.0
aF4832.0
aF4769.0
aa(lp62
F4892.0
aF4945.0
aF4945.0
aa(lp63
F4932.0
aF5005.0
aF4998.0
aa(lp64
F4916.0
aF5042.0
aF5038.0
aa(lp65
F4894.0
aF5141.0
aF4951.0
aa(lp66
F4933.0
aF4957.0
aF5151.0
aasS'single_AggRedirections'
p67
(lp68
(lp69
F522.0
aF506.0
aF534.0
aa(lp70
F1073.0
aF1087.0
aF1010.0
aa(lp71
F1463.0
aF1505.0
aF1416.0
aa(lp72
F1946.0
aF1877.0
aF1980.0
aa(lp73
F2380.0
aF2370.0
aF2378.0
aa(lp74
F2813.0
aF2809.0
aF2662.0
aa(lp75
F3116.0
aF2978.0
aF3203.0
aa(lp76
F3465.0
aF3442.0
aF3419.0
aa(lp77
F3679.0
aF3775.0
aF3786.0
aa(lp78
F4006.0
aF3970.0
aF3991.0
aa(lp79
F4103.0
aF4149.0
aF4230.0
aa(lp80
F4398.0
aF4323.0
aF4237.0
aa(lp81
F4476.0
aF4375.0
aF4454.0
aa(lp82
F4615.0
aF4584.0
aF4663.0
aa(lp83
F4705.0
aF4584.0
aF4678.0
aa(lp84
F4581.0
aF4772.0
aF4609.0
aa(lp85
F4640.0
aF4659.0
aF4767.0
aa(lp86
F4709.0
aF4692.0
aF4638.0
aa(lp87
F4610.0
aF4664.0
aF4550.0
aa(lp88
F4751.0
aF4708.0
aF4644.0
aasS'minimum_NodeRedirections'
p89
(lp90
(lp91
F0.0
aF0.0
aF0.0
aa(lp92
F0.0
aF0.0
aF0.0
aa(lp93
F0.0
aF0.0
aF0.0
aa(lp94
F0.0
aF0.0
aF0.0
aa(lp95
F0.0
aF0.0
aF0.0
aa(lp96
F0.0
aF0.0
aF0.0
aa(lp97
F0.0
aF0.0
aF0.0
aa(lp98
F0.0
aF0.0
aF0.0
aa(lp99
F0.0
aF0.0
aF0.0
aa(lp100
F0.0
aF0.0
aF0.0
aa(lp101
F0.0
aF0.0
aF0.0
aa(lp102
F0.0
aF0.0
aF0.0
aa(lp103
F0.0
aF0.0
aF0.0
aa(lp104
F0.0
aF0.0
aF0.0
aa(lp105
F0.0
aF0.0
aF0.0
aa(lp106
F0.0
aF0.0
aF0.0
aa(lp107
F0.0
aF0.0
aF0.0
aa(lp108
F0.0
aF0.0
aF0.0
aa(lp109
F0.0
aF0.0
aF0.0
aa(lp110
F0.0
aF0.0
aF0.0
aasS'random_x'
p111
(lp112
(lp113
I5
aI5
aI5
aa(lp114
I10
aI10
aI10
aa(lp115
I15
aI15
aI15
aa(lp116
I20
aI20
aI20
aa(lp117
I25
aI25
aI25
aa(lp118
I30
aI30
aI30
aa(lp119
I35
aI35
aI35
aa(lp120
I40
aI40
aI40
aa(lp121
I45
aI45
aI45
aa(lp122
I50
aI50
aI50
aa(lp123
I55
aI55
aI55
aa(lp124
I60
aI60
aI60
aa(lp125
I65
aI65
aI65
aa(lp126
I70
aI70
aI70
aa(lp127
I75
aI75
aI75
aa(lp128
I80
aI80
aI80
aa(lp129
I85
aI85
aI85
aa(lp130
I90
aI90
aI90
aa(lp131
I95
aI95
aI95
aa(lp132
I100
aI100
aI100
aasS'minimum_x'
p133
(lp134
(lp135
I5
aI5
aI5
aa(lp136
I10
aI10
aI10
aa(lp137
I15
aI15
aI15
aa(lp138
I20
aI20
aI20
aa(lp139
I25
aI25
aI25
aa(lp140
I30
aI30
aI30
aa(lp141
I35
aI35
aI35
aa(lp142
I40
aI40
aI40
aa(lp143
I45
aI45
aI45
aa(lp144
I50
aI50
aI50
aa(lp145
I55
aI55
aI55
aa(lp146
I60
aI60
aI60
aa(lp147
I65
aI65
aI65
aa(lp148
I70
aI70
aI70
aa(lp149
I75
aI75
aI75
aa(lp150
I80
aI80
aI80
aa(lp151
I85
aI85
aI85
aa(lp152
I90
aI90
aI90
aa(lp153
I95
aI95
aI95
aa(lp154
I100
aI100
aI100
aasS'single_x'
p155
(lp156
(lp157
I5
aI5
aI5
aa(lp158
I10
aI10
aI10
aa(lp159
I15
aI15
aI15
aa(lp160
I20
aI20
aI20
aa(lp161
I25
aI25
aI25
aa(lp162
I30
aI30
aI30
aa(lp163
I35
aI35
aI35
aa(lp164
I40
aI40
aI40
aa(lp165
I45
aI45
aI45
aa(lp166
I50
aI50
aI50
aa(lp167
I55
aI55
aI55
aa(lp168
I60
aI60
aI60
aa(lp169
I65
aI65
aI65
aa(lp170
I70
aI70
aI70
aa(lp171
I75
aI75
aI75
aa(lp172
I80
aI80
aI80
aa(lp173
I85
aI85
aI85
aa(lp174
I90
aI90
aI90
aa(lp175
I95
aI95
aI95
aa(lp176
I100
aI100
aI100
aasS'random_NodeRedirections'
p177
(lp178
(lp179
F0.0
aF0.0
aF0.0
aa(lp180
F0.0
aF0.0
aF0.0
aa(lp181
F0.0
aF0.0
aF0.0
aa(lp182
F0.0
aF0.0
aF0.0
aa(lp183
F0.0
aF0.0
aF0.0
aa(lp184
F0.0
aF0.0
aF0.0
aa(lp185
F0.0
aF0.0
aF0.0
aa(lp186
F0.0
aF0.0
aF0.0
aa(lp187
F0.0
aF0.0
aF0.0
aa(lp188
F0.0
aF0.0
aF0.0
aa(lp189
F0.0
aF0.0
aF0.0
aa(lp190
F0.0
aF0.0
aF0.0
aa(lp191
F0.0
aF0.0
aF0.0
aa(lp192
F0.0
aF0.0
aF0.0
aa(lp193
F0.0
aF0.0
aF0.0
aa(lp194
F0.0
aF0.0
aF0.0
aa(lp195
F0.0
aF0.0
aF0.0
aa(lp196
F0.0
aF0.0
aF0.0
aa(lp197
F0.0
aF0.0
aF0.0
aa(lp198
F0.0
aF0.0
aF0.0
aasS'minimum_EdgeTotal'
p199
(lp200
(lp201
F145451.0
aF145572.0
aF145344.0
aa(lp202
F145620.0
aF145519.0
aF145457.0
aa(lp203
F145841.0
aF145757.0
aF145777.0
aa(lp204
F145914.0
aF146051.0
aF145869.0
aa(lp205
F146240.0
aF146534.0
aF146415.0
aa(lp206
F146303.0
aF146516.0
aF146193.0
aa(lp207
F147026.0
aF146528.0
aF146522.0
aa(lp208
F146999.0
aF146980.0
aF146899.0
aa(lp209
F147213.0
aF146794.0
aF146652.0
aa(lp210
F146985.0
aF147254.0
aF146974.0
aa(lp211
F147204.0
aF147290.0
aF147258.0
aa(lp212
F147224.0
aF147073.0
aF147099.0
aa(lp213
F147060.0
aF147197.0
aF146882.0
aa(lp214
F146832.0
aF147577.0
aF147398.0
aa(lp215
F147268.0
aF147227.0
aF147317.0
aa(lp216
F147273.0
aF147198.0
aF147159.0
aa(lp217
F147413.0
aF147216.0
aF147509.0
aa(lp218
F147092.0
aF147123.0
aF147418.0
aa(lp219
F147292.0
aF147449.0
aF147160.0
aa(lp220
F147201.0
aF147105.0
aF147234.0
aasS'minimum_NodeTotal'
p221
(lp222
(lp223
F0.0
aF0.0
aF0.0
aa(lp224
F0.0
aF0.0
aF0.0
aa(lp225
F0.0
aF0.0
aF0.0
aa(lp226
F0.0
aF0.0
aF0.0
aa(lp227
F0.0
aF0.0
aF0.0
aa(lp228
F0.0
aF0.0
aF0.0
aa(lp229
F0.0
aF0.0
aF0.0
aa(lp230
F0.0
aF0.0
aF0.0
aa(lp231
F0.0
aF0.0
aF0.0
aa(lp232
F0.0
aF0.0
aF0.0
aa(lp233
F0.0
aF0.0
aF0.0
aa(lp234
F0.0
aF0.0
aF0.0
aa(lp235
F0.0
aF0.0
aF0.0
aa(lp236
F0.0
aF0.0
aF0.0
aa(lp237
F0.0
aF0.0
aF0.0
aa(lp238
F0.0
aF0.0
aF0.0
aa(lp239
F0.0
aF0.0
aF0.0
aa(lp240
F0.0
aF0.0
aF0.0
aa(lp241
F0.0
aF0.0
aF0.0
aa(lp242
F0.0
aF0.0
aF0.0
aasS'single_NodeTotal'
p243
(lp244
(lp245
F0.0
aF0.0
aF0.0
aa(lp246
F0.0
aF0.0
aF0.0
aa(lp247
F0.0
aF0.0
aF0.0
aa(lp248
F0.0
aF0.0
aF0.0
aa(lp249
F0.0
aF0.0
aF0.0
aa(lp250
F0.0
aF0.0
aF0.0
aa(lp251
F0.0
aF0.0
aF0.0
aa(lp252
F0.0
aF0.0
aF0.0
aa(lp253
F0.0
aF0.0
aF0.0
aa(lp254
F0.0
aF0.0
aF0.0
aa(lp255
F0.0
aF0.0
aF0.0
aa(lp256
F0.0
aF0.0
aF0.0
aa(lp257
F0.0
aF0.0
aF0.0
aa(lp258
F0.0
aF0.0
aF0.0
aa(lp259
F0.0
aF0.0
aF0.0
aa(lp260
F0.0
aF0.0
aF0.0
aa(lp261
F0.0
aF0.0
aF0.0
aa(lp262
F0.0
aF0.0
aF0.0
aa(lp263
F0.0
aF0.0
aF0.0
aa(lp264
F0.0
aF0.0
aF0.0
aasS'single_AggTotal'
p265
(lp266
(lp267
F130400.0
aF130438.0
aF130220.0
aa(lp268
F131019.0
aF130862.0
aF130966.0
aa(lp269
F131186.0
aF131232.0
aF131065.0
aa(lp270
F131750.0
aF131341.0
aF131778.0
aa(lp271
F131657.0
aF131791.0
aF132142.0
aa(lp272
F132644.0
aF132001.0
aF132124.0
aa(lp273
F132513.0
aF131859.0
aF131894.0
aa(lp274
F132372.0
aF132568.0
aF132661.0
aa(lp275
F132309.0
aF132400.0
aF132947.0
aa(lp276
F132841.0
aF132515.0
aF132357.0
aa(lp277
F132505.0
aF132747.0
aF132589.0
aa(lp278
F132883.0
aF132627.0
aF133065.0
aa(lp279
F132636.0
aF132438.0
aF132994.0
aa(lp280
F132187.0
aF132867.0
aF132867.0
aa(lp281
F132646.0
aF132303.0
aF132318.0
aa(lp282
F132106.0
aF132457.0
aF132380.0
aa(lp283
F132424.0
aF132121.0
aF132280.0
aa(lp284
F132091.0
aF132325.0
aF131790.0
aa(lp285
F131659.0
aF132192.0
aF131991.0
aa(lp286
F131480.0
aF131564.0
aF131724.0
aasS'minimum_AggTotal'
p287
(lp288
(lp289
F131040.0
aF131182.0
aF130905.0
aa(lp290
F131767.0
aF131367.0
aF131138.0
aa(lp291
F132121.0
aF131902.0
aF132150.0
aa(lp292
F132842.0
aF132701.0
aF132712.0
aa(lp293
F133382.0
aF133842.0
aF133614.0
aa(lp294
F133906.0
aF134125.0
aF133786.0
aa(lp295
F134882.0
aF134346.0
aF134262.0
aa(lp296
F135313.0
aF134927.0
aF135018.0
aa(lp297
F135624.0
aF135217.0
aF134959.0
aa(lp298
F135309.0
aF136029.0
aF135760.0
aa(lp299
F135946.0
aF136332.0
aF136034.0
aa(lp300
F136256.0
aF135943.0
aF135863.0
aa(lp301
F135753.0
aF136265.0
aF135877.0
aa(lp302
F135920.0
aF136938.0
aF136450.0
aa(lp303
F136444.0
aF136424.0
aF136709.0
aa(lp304
F136270.0
aF136631.0
aF136352.0
aa(lp305
F136786.0
aF136481.0
aF137018.0
aa(lp306
F136119.0
aF136566.0
aF136834.0
aa(lp307
F136599.0
aF136891.0
aF136386.0
aa(lp308
F136182.0
aF136147.0
aF136532.0
aasS'minimum_CoreRedirections'
p309
(lp310
(lp311
F244.0
aF268.0
aF228.0
aa(lp312
F453.0
aF520.0
aF471.0
aa(lp313
F735.0
aF704.0
aF712.0
aa(lp314
F961.0
aF952.0
aF955.0
aa(lp315
F1126.0
aF1120.0
aF1079.0
aa(lp316
F1400.0
aF1290.0
aF1314.0
aa(lp317
F1446.0
aF1517.0
aF1543.0
aa(lp318
F1643.0
aF1695.0
aF1690.0
aa(lp319
F1803.0
aF1840.0
aF1832.0
aa(lp320
F2004.0
aF1932.0
aF1891.0
aa(lp321
F2054.0
aF2049.0
aF1995.0
aa(lp322
F2016.0
aF2037.0
aF2094.0
aa(lp323
F2161.0
aF2248.0
aF2092.0
aa(lp324
F2258.0
aF2184.0
aF2184.0
aa(lp325
F2278.0
aF2213.0
aF2268.0
aa(lp326
F2337.0
aF2295.0
aF2350.0
aa(lp327
F2263.0
aF2362.0
aF2336.0
aa(lp328
F2242.0
aF2257.0
aF2326.0
aa(lp329
F2231.0
aF2256.0
aF2294.0
aa(lp330
F2231.0
aF2273.0
aF2266.0
aasS'minimum_EdgeRedirections'
p331
(lp332
(lp333
F637.0
aF623.0
aF562.0
aa(lp334
F1165.0
aF1260.0
aF1187.0
aa(lp335
F1809.0
aF1703.0
aF1796.0
aa(lp336
F2300.0
aF2234.0
aF2225.0
aa(lp337
F2804.0
aF2728.0
aF2778.0
aa(lp338
F3209.0
aF3221.0
aF3202.0
aa(lp339
F3745.0
aF3553.0
aF3605.0
aa(lp340
F4132.0
aF4147.0
aF4169.0
aa(lp341
F4333.0
aF4354.0
aF4286.0
aa(lp342
F4656.0
aF4680.0
aF4774.0
aa(lp343
F4843.0
aF4921.0
aF4922.0
aa(lp344
F4936.0
aF5036.0
aF5124.0
aa(lp345
F5160.0
aF5088.0
aF5156.0
aa(lp346
F5312.0
aF5355.0
aF5337.0
aa(lp347
F5358.0
aF5458.0
aF5463.0
aa(lp348
F5519.0
aF5508.0
aF5485.0
aa(lp349
F5563.0
aF5524.0
aF5601.0
aa(lp350
F5591.0
aF5580.0
aF5449.0
aa(lp351
F5506.0
aF5501.0
aF5454.0
aa(lp352
F5371.0
aF5431.0
aF5522.0
aasS'single_EdgeTotal'
p353
(lp354
(lp355
F145247.0
aF145079.0
aF144948.0
aa(lp356
F145328.0
aF145221.0
aF145169.0
aa(lp357
F145261.0
aF145201.0
aF145224.0
aa(lp358
F145518.0
aF145060.0
aF145421.0
aa(lp359
F145390.0
aF145464.0
aF145506.0
aa(lp360
F145767.0
aF145262.0
aF145575.0
aa(lp361
F145486.0
aF145265.0
aF145289.0
aa(lp362
F145508.0
aF145471.0
aF145683.0
aa(lp363
F145371.0
aF145426.0
aF145602.0
aa(lp364
F145636.0
aF145419.0
aF145396.0
aa(lp365
F145345.0
aF145500.0
aF145409.0
aa(lp366
F145655.0
aF145467.0
aF145763.0
aa(lp367
F145536.0
aF145256.0
aF145652.0
aa(lp368
F145224.0
aF145492.0
aF145617.0
aa(lp369
F145173.0
aF145246.0
aF145389.0
aa(lp370
F145050.0
aF145278.0
aF145328.0
aa(lp371
F145339.0
aF145156.0
aF145150.0
aa(lp372
F145272.0
aF145457.0
aF145062.0
aa(lp373
F144830.0
aF145170.0
aF145128.0
aa(lp374
F144899.0
aF144819.0
aF144889.0
aasS'random_CoreRedirections'
p375
(lp376
(lp377
F248.0
aF253.0
aF262.0
aa(lp378
F478.0
aF455.0
aF496.0
aa(lp379
F745.0
aF678.0
aF711.0
aa(lp380
F882.0
aF907.0
aF876.0
aa(lp381
F1163.0
aF1085.0
aF1114.0
aa(lp382
F1229.0
aF1256.0
aF1292.0
aa(lp383
F1539.0
aF1399.0
aF1445.0
aa(lp384
F1593.0
aF1570.0
aF1580.0
aa(lp385
F1706.0
aF1733.0
aF1680.0
aa(lp386
F1893.0
aF1821.0
aF1810.0
aa(lp387
F1917.0
aF1866.0
aF1967.0
aa(lp388
F1996.0
aF1971.0
aF1976.0
aa(lp389
F2004.0
aF2093.0
aF2100.0
aa(lp390
F2213.0
aF2036.0
aF2072.0
aa(lp391
F2115.0
aF2193.0
aF2147.0
aa(lp392
F2077.0
aF2079.0
aF2185.0
aa(lp393
F2035.0
aF2153.0
aF2146.0
aa(lp394
F2163.0
aF2167.0
aF2201.0
aa(lp395
F2164.0
aF2086.0
aF2172.0
aa(lp396
F2123.0
aF2117.0
aF2151.0
aasS'single_EdgeRedirections'
p397
(lp398
(lp399
F2792.0
aF2842.0
aF2756.0
aa(lp400
F5580.0
aF5520.0
aF5470.0
aa(lp401
F8305.0
aF7998.0
aF8136.0
aa(lp402
F10737.0
aF10733.0
aF10859.0
aa(lp403
F13182.0
aF13014.0
aF13192.0
aa(lp404
F15883.0
aF15471.0
aF15471.0
aa(lp405
F18078.0
aF17773.0
aF17934.0
aa(lp406
F20154.0
aF20346.0
aF20419.0
aa(lp407
F22638.0
aF22497.0
aF22851.0
aa(lp408
F25112.0
aF25086.0
aF25100.0
aa(lp409
F27091.0
aF26747.0
aF27088.0
aa(lp410
F28824.0
aF28880.0
aF28725.0
aa(lp411
F30659.0
aF30490.0
aF30467.0
aa(lp412
F32426.0
aF32450.0
aF32510.0
aa(lp413
F34066.0
aF33916.0
aF34114.0
aa(lp414
F35281.0
aF35511.0
aF35544.0
aa(lp415
F36936.0
aF37015.0
aF36475.0
aa(lp416
F37762.0
aF38210.0
aF38132.0
aa(lp417
F38926.0
aF38946.0
aF39191.0
aa(lp418
F39857.0
aF39767.0
aF39724.0
aasS'single_CoreRedirections'
p419
(lp420
(lp421
F246.0
aF229.0
aF230.0
aa(lp422
F471.0
aF468.0
aF461.0
aa(lp423
F715.0
aF690.0
aF694.0
aa(lp424
F898.0
aF910.0
aF853.0
aa(lp425
F1119.0
aF1073.0
aF1111.0
aa(lp426
F1259.0
aF1269.0
aF1279.0
aa(lp427
F1404.0
aF1402.0
aF1379.0
aa(lp428
F1580.0
aF1587.0
aF1621.0
aa(lp429
F1669.0
aF1765.0
aF1733.0
aa(lp430
F1871.0
aF1879.0
aF1895.0
aa(lp431
F1898.0
aF1998.0
aF1919.0
aa(lp432
F2018.0
aF1991.0
aF1996.0
aa(lp433
F2028.0
aF2064.0
aF2073.0
aa(lp434
F2106.0
aF2009.0
aF2045.0
aa(lp435
F2096.0
aF2096.0
aF2050.0
aa(lp436
F2130.0
aF2165.0
aF2233.0
aa(lp437
F2148.0
aF2152.0
aF2238.0
aa(lp438
F2267.0
aF2209.0
aF2178.0
aa(lp439
F2101.0
aF2160.0
aF2178.0
aa(lp440
F2141.0
aF2252.0
aF2108.0
aasS'random_AggTotal'
p441
(lp442
(lp443
F125383.0
aF125833.0
aF125390.0
aa(lp444
F126700.0
aF126466.0
aF126289.0
aa(lp445
F127122.0
aF126866.0
aF127462.0
aa(lp446
F128095.0
aF127865.0
aF127882.0
aa(lp447
F128542.0
aF128634.0
aF128641.0
aa(lp448
F128953.0
aF128640.0
aF129375.0
aa(lp449
F129483.0
aF129889.0
aF129705.0
aa(lp450
F130239.0
aF129607.0
aF129965.0
aa(lp451
F130681.0
aF130620.0
aF130084.0
aa(lp452
F131154.0
aF130612.0
aF130777.0
aa(lp453
F131015.0
aF130993.0
aF130830.0
aa(lp454
F131154.0
aF131012.0
aF131612.0
aa(lp455
F130999.0
aF131208.0
aF131666.0
aa(lp456
F131611.0
aF131257.0
aF131993.0
aa(lp457
F131837.0
aF131594.0
aF131639.0
aa(lp458
F131784.0
aF131811.0
aF131794.0
aa(lp459
F131682.0
aF131566.0
aF131265.0
aa(lp460
F131673.0
aF131502.0
aF131904.0
aa(lp461
F131192.0
aF131622.0
aF131860.0
aa(lp462
F130953.0
aF131215.0
aF131522.0
aasS'random_CoreTotal'
p463
(lp464
(lp465
F57774.0
aF57990.0
aF57831.0
aa(lp466
F58598.0
aF58411.0
aF58290.0
aa(lp467
F58748.0
aF58758.0
aF59079.0
aa(lp468
F59378.0
aF59336.0
aF59342.0
aa(lp469
F59781.0
aF59846.0
aF59930.0
aa(lp470
F60047.0
aF59819.0
aF60246.0
aa(lp471
F60301.0
aF60644.0
aF60464.0
aa(lp472
F60784.0
aF60487.0
aF60611.0
aa(lp473
F61049.0
aF61049.0
aF60718.0
aa(lp474
F61441.0
aF61059.0
aF61182.0
aa(lp475
F61254.0
aF61336.0
aF61270.0
aa(lp476
F61372.0
aF61359.0
aF61766.0
aa(lp477
F61454.0
aF61516.0
aF61722.0
aa(lp478
F61591.0
aF61613.0
aF61964.0
aa(lp479
F61807.0
aF61710.0
aF61762.0
aa(lp480
F61831.0
aF61881.0
aF61917.0
aa(lp481
F61736.0
aF61716.0
aF61438.0
aa(lp482
F61797.0
aF61580.0
aF61838.0
aa(lp483
F61458.0
aF61730.0
aF61865.0
aa(lp484
F61437.0
aF61401.0
aF61617.0
aasS'random_AggRedirections'
p485
(lp486
(lp487
F490.0
aF509.0
aF531.0
aa(lp488
F998.0
aF975.0
aF1027.0
aa(lp489
F1520.0
aF1496.0
aF1506.0
aa(lp490
F1943.0
aF1918.0
aF1988.0
aa(lp491
F2417.0
aF2422.0
aF2362.0
aa(lp492
F2792.0
aF2744.0
aF2732.0
aa(lp493
F3053.0
aF3138.0
aF3163.0
aa(lp494
F3418.0
aF3428.0
aF3443.0
aa(lp495
F3759.0
aF3665.0
aF3764.0
aa(lp496
F3996.0
aF3945.0
aF3961.0
aa(lp497
F4084.0
aF4268.0
aF4189.0
aa(lp498
F4365.0
aF4285.0
aF4275.0
aa(lp499
F4476.0
aF4451.0
aF4434.0
aa(lp500
F4508.0
aF4548.0
aF4517.0
aa(lp501
F4639.0
aF4605.0
aF4577.0
aa(lp502
F4835.0
aF4781.0
aF4819.0
aa(lp503
F4583.0
aF4625.0
aF4716.0
aa(lp504
F4728.0
aF4778.0
aF4722.0
aa(lp505
F4702.0
aF4625.0
aF4638.0
aa(lp506
F4564.0
aF4681.0
aF4695.0
aasS'single_CoreTotal'
p507
(lp508
(lp509
F60227.0
aF60321.0
aF60231.0
aa(lp510
F60775.0
aF60649.0
aF60753.0
aa(lp511
F60936.0
aF60986.0
aF60800.0
aa(lp512
F61295.0
aF61082.0
aF61391.0
aa(lp513
F61277.0
aF61305.0
aF61614.0
aa(lp514
F61949.0
aF61633.0
aF61550.0
aa(lp515
F61923.0
aF61492.0
aF61563.0
aa(lp516
F61929.0
aF62061.0
aF62024.0
aa(lp517
F61901.0
aF61941.0
aF62295.0
aa(lp518
F62204.0
aF62068.0
aF61940.0
aa(lp519
F62081.0
aF62191.0
aF62103.0
aa(lp520
F62260.0
aF62202.0
aF62335.0
aa(lp521
F62159.0
aF62087.0
aF62362.0
aa(lp522
F61958.0
aF62324.0
aF62291.0
aa(lp523
F62385.0
aF62016.0
aF62039.0
aa(lp524
F61959.0
aF62180.0
aF62020.0
aa(lp525
F62120.0
aF61932.0
aF62077.0
aa(lp526
F61901.0
aF61991.0
aF61760.0
aa(lp527
F61822.0
aF62071.0
aF61885.0
aa(lp528
F61596.0
aF61691.0
aF61822.0
aasS'minimum_CoreTotal'
p529
(lp530
(lp531
F60647.0
aF60717.0
aF60560.0
aa(lp532
F61132.0
aF60844.0
aF60722.0
aa(lp533
F61319.0
aF61164.0
aF61400.0
aa(lp534
F61868.0
aF61717.0
aF61753.0
aa(lp535
F62159.0
aF62410.0
aF62253.0
aa(lp536
F62515.0
aF62575.0
aF62446.0
aa(lp537
F63013.0
aF62828.0
aF62710.0
aa(lp538
F63330.0
aF63057.0
aF63068.0
aa(lp539
F63488.0
aF63396.0
aF63221.0
aa(lp540
F63364.0
aF63812.0
aF63739.0
aa(lp541
F63750.0
aF64026.0
aF63778.0
aa(lp542
F63980.0
aF63793.0
aF63655.0
aa(lp543
F63611.0
aF64076.0
aF63833.0
aa(lp544
F63907.0
aF64339.0
aF64075.0
aa(lp545
F64153.0
aF64063.0
aF64277.0
aa(lp546
F63986.0
aF64258.0
aF64073.0
aa(lp547
F64371.0
aF64206.0
aF64471.0
aa(lp548
F63888.0
aF64209.0
aF64385.0
aa(lp549
F64220.0
aF64413.0
aF64105.0
aa(lp550
F63954.0
aF63910.0
aF64235.0
aasS'random_EdgeTotal'
p551
(lp552
(lp553
F142498.0
aF142808.0
aF142480.0
aa(lp554
F143112.0
aF143153.0
aF143025.0
aa(lp555
F143444.0
aF143054.0
aF143406.0
aa(lp556
F143689.0
aF143440.0
aF143495.0
aa(lp557
F143760.0
aF143743.0
aF143753.0
aa(lp558
F143994.0
aF143756.0
aF144161.0
aa(lp559
F144257.0
aF144310.0
aF144256.0
aa(lp560
F144493.0
aF144058.0
aF144438.0
aa(lp561
F144632.0
aF144626.0
aF144262.0
aa(lp562
F144803.0
aF144651.0
aF144579.0
aa(lp563
F144761.0
aF144727.0
aF144503.0
aa(lp564
F144730.0
aF144486.0
aF144828.0
aa(lp565
F144415.0
aF144691.0
aF144893.0
aa(lp566
F145061.0
aF144496.0
aF145114.0
aa(lp567
F145120.0
aF144935.0
aF144926.0
aa(lp568
F145034.0
aF144948.0
aF144840.0
aa(lp569
F145011.0
aF144738.0
aF144730.0
aa(lp570
F144896.0
aF144895.0
aF145179.0
aa(lp571
F144773.0
aF144836.0
aF145111.0
aa(lp572
F144440.0
aF144776.0
aF144889.0
aasS'random_EdgeRedirections'
p573
(lp574
(lp575
F37812.0
aF37709.0
aF37937.0
aa(lp576
F38222.0
aF38173.0
aF38074.0
aa(lp577
F38463.0
aF38241.0
aF38351.0
aa(lp578
F38608.0
aF38379.0
aF38691.0
aa(lp579
F38855.0
aF38901.0
aF38891.0
aa(lp580
F39007.0
aF39149.0
aF38887.0
aa(lp581
F39295.0
aF39298.0
aF39298.0
aa(lp582
F39518.0
aF39605.0
aF39555.0
aa(lp583
F39426.0
aF39578.0
aF39314.0
aa(lp584
F39588.0
aF39662.0
aF39446.0
aa(lp585
F39939.0
aF39818.0
aF39804.0
aa(lp586
F39885.0
aF40154.0
aF40006.0
aa(lp587
F39962.0
aF40358.0
aF39999.0
aa(lp588
F39982.0
aF39946.0
aF40201.0
aa(lp589
F40130.0
aF39955.0
aF40191.0
aa(lp590
F40157.0
aF39986.0
aF39915.0
aa(lp591
F40318.0
aF40254.0
aF40083.0
aa(lp592
F39852.0
aF40158.0
aF40135.0
aa(lp593
F39951.0
aF40219.0
aF40120.0
aa(lp594
F39867.0
aF40185.0
aF40104.0
aas.