(dp0
S'single_99'
p1
(lp2
(lp3
F94.6390096
aF94.14228460000001
aF94.3834784
aa(lp4
F120.20580929999998
aF119.21875840000003
aF119.67009490000001
aa(lp5
F125.2033766
aF124.7107192
aF124.7648802
aa(lp6
F127.901712
aF127.69279060000002
aF128.3111238
aa(lp7
F130.0516839
aF130.2830262
aF131.0351998
aa(lp8
F133.3589216
aF133.4537188
aF133.3684
aa(lp9
F136.96504249999998
aF138.42135960000002
aF136.9334575
aa(lp10
F146.47243999999998
aF144.3823403
aF144.0564177
aa(lp11
F156.7288194
aF155.163499
aF154.2379768
aa(lp12
F164.87309599999998
aF165.18564099999998
aF165.660545
aa(lp13
F172.41689659999997
aF175.7716086
aF176.27489719999997
aa(lp14
F184.298592
aF185.87101900000002
aF185.10551200000003
aa(lp15
F200.7328506
aF204.6463129
aF201.95039319999998
aa(lp16
F229.70890910000003
aF222.57690250000002
aF228.1627595
aa(lp17
F249.8089815
aF261.7651652
aF258.42597900000004
aa(lp18
F301.7644766
aF312.45424
aF303.382683
aa(lp19
F393.1952718
aF407.34634580000005
aF407.31315490000003
aa(lp20
F558.557526
aF617.4121941
aF602.0917304000001
aa(lp21
F1596.4046528
aF1526.623478
aF1260.1098288
aa(lp22
F5417.6155262
aF11338.1867176
aF6389.95011
aasS'minimum_50'
p23
(lp24
(lp25
F75.1219232
aF75.2090025
aF75.2138883
aa(lp26
F75.25998680000001
aF75.3374072
aF75.2112843
aa(lp27
F75.32024849999999
aF75.6274989
aF75.4029008
aa(lp28
F75.7745361
aF75.8841216
aF75.8043876
aa(lp29
F75.8412212
aF76.01457880000001
aF75.91399390000001
aa(lp30
F76.40012899999999
aF76.1543547
aF76.2045057
aa(lp31
F76.5823925
aF76.61023
aF76.5859616
aa(lp32
F77.0462363
aF77.20492159999999
aF76.9000898
aa(lp33
F77.52715280000001
aF77.3658208
aF77.5391084
aa(lp34
F78.0768194
aF78.2150812
aF77.9830369
aa(lp35
F78.9047076
aF79.07608960000002
aF78.8766068
aa(lp36
F80.14119690000001
aF80.29093
aF79.99837400000001
aa(lp37
F81.44073900000001
aF81.6706135
aF81.7839815
aa(lp38
F84.3076643
aF84.4081904
aF84.7952474
aa(lp39
F90.3453099
aF89.30175
aF88.5525145
aa(lp40
F101.67585079999999
aF102.186764
aF100.8343596
aa(lp41
F118.860872
aF116.7651678
aF116.68654620000001
aa(lp42
F140.351104
aF144.564632
aF145.789288
aa(lp43
F220.12360089999996
aF224.523824
aF219.0164176
aa(lp44
F1269.2095228
aF889.5614777
aF1253.295296
aasS'random_99'
p45
(lp46
(lp47
F94.15948
aF93.4285629
aF93.6672696
aa(lp48
F118.5663976
aF119.19137570000001
aF119.9199572
aa(lp49
F124.86355159999998
aF124.5644458
aF124.7084729
aa(lp50
F127.53497970000001
aF127.6954892
aF127.30659429999997
aa(lp51
F130.04396400000002
aF130.7243875
aF129.8480345
aa(lp52
F133.2913212
aF133.6510687
aF133.4454864
aa(lp53
F138.1238726
aF137.3410791
aF137.9165832
aa(lp54
F145.54996
aF142.831845
aF145.44148520000002
aa(lp55
F155.2921285
aF154.5001532
aF154.741443
aa(lp56
F165.1089952
aF163.81286319999998
aF165.2035662
aa(lp57
F176.53618159999996
aF174.5593384
aF173.5797984
aa(lp58
F186.10273120000005
aF185.70729550000001
aF184.57526600000003
aa(lp59
F200.93284699999998
aF203.36341760000002
aF202.6499442
aa(lp60
F232.37719099999998
aF223.86721799999998
aF224.21128700000003
aa(lp61
F258.71369880000003
aF264.23190550000004
aF247.57741000000001
aa(lp62
F308.49573139999995
aF313.5140288
aF291.94058400000006
aa(lp63
F474.3553288
aF381.1535895
aF367.3672865
aa(lp64
F527.714718
aF778.9882198
aF607.2795575
aa(lp65
F1599.4404713999998
aF950.821234
aF1372.0181724000001
aa(lp66
F6319.7240944
aF8597.6461148
aF6294.4049294
aasS'random_soj_95'
p67
(lp68
(lp69
F73.88900000000001
aF76.33600000000001
aF72.929
aa(lp70
F75.6096
aF80.6791
aF75.9307
aa(lp71
F84.1262
aF75.75999999999999
aF79.14080000000001
aa(lp72
F76.63
aF87.818
aF84.2747
aa(lp73
F94.505
aF97.309
aF96.5874
aa(lp74
F102.40979999999999
aF100.748
aF105.9797
aa(lp75
F117.66799999999999
aF104.5901
aF107.96570000000001
aa(lp76
F111.1184
aF110.473
aF111.26440000000001
aa(lp77
F114.7866
aF113.1184
aF119.0432
aa(lp78
F115.5296
aF118.3432
aF116.9135
aa(lp79
F124.68350000000001
aF124.4592
aF123.7688
aa(lp80
F135.0395
aF134.0586
aF130.2405
aa(lp81
F156.1759
aF153.148
aF145.985
aa(lp82
F164.8298
aF160.68449999999999
aF160.9543
aa(lp83
F180.42460000000003
aF184.044
aF176.37120000000002
aa(lp84
F215.3481
aF215.8746
aF205.5476
aa(lp85
F273.94960000000003
aF260.8591
aF261.8135
aa(lp86
F348.8628
aF462.7928
aF383.2685
aa(lp87
F948.217
aF694.0731000000001
aF792.2823
aa(lp88
F4997.8692
aF7326.0972
aF5782.8012
aasS'single_soj_95'
p89
(lp90
(lp91
F71.2068
aF74.5596
aF75.836
aa(lp92
F76.612
aF74.27799999999999
aF76.3716
aa(lp93
F80.3747
aF79.69409999999999
aF78.0344
aa(lp94
F79.9448
aF85.243
aF87.0264
aa(lp95
F103.7065
aF95.66940000000001
aF96.5431
aa(lp96
F100.9465
aF104.48599999999999
aF105.09599999999999
aa(lp97
F108.8911
aF105.904
aF106.25710000000001
aa(lp98
F110.586
aF109.845
aF110.51389999999999
aa(lp99
F115.7217
aF112.88850000000001
aF116.0248
aa(lp100
F118.3968
aF126.92500000000001
aF118.1344
aa(lp101
F121.0741
aF126.0818
aF123.07839999999999
aa(lp102
F131.27519999999998
aF133.40640000000002
aF130.1517
aa(lp103
F144.2828
aF147.9925
aF146.3542
aa(lp104
F162.826
aF155.8415
aF161.35299999999998
aa(lp105
F179.1137
aF183.8211
aF181.794
aa(lp106
F212.0592
aF211.759
aF215.9856
aa(lp107
F265.2395
aF271.8696
aF280.1128
aa(lp108
F383.5824
aF406.48879999999997
aF419.1032
aa(lp109
F1093.5677
aF946.0624
aF935.4128999999999
aa(lp110
F4411.6019
aF9129.9317
aF4603.0733
aasS'random_soj_99'
p111
(lp112
(lp113
F80.896
aF83.2736
aF79.852
aa(lp114
F102.3792
aF110.60029999999999
aF103.3174
aa(lp115
F118.1126
aF104.47
aF111.0128
aa(lp116
F104.5145
aF118.148
aF112.4897
aa(lp117
F113.945
aF117.02499999999999
aF115.3317
aa(lp118
F117.71759999999999
aF115.9832
aF121.8557
aa(lp119
F135.444
aF120.5181
aF123.8756
aa(lp120
F130.92000000000002
aF128.498
aF130.9718
aa(lp121
F140.40050000000002
aF139.8352
aF146.836
aa(lp122
F147.1456
aF149.2132
aF149.701
aa(lp123
F162.0188
aF160.4448
aF158.4656
aa(lp124
F172.3632
aF170.6695
aF166.8075
aa(lp125
F200.23930000000001
aF197.8312
aF187.715
aa(lp126
F219.333
aF208.1445
aF209.3131
aa(lp127
F240.48040000000003
aF247.602
aF230.56560000000002
aa(lp128
F294.5014
aF299.2464
aF275.3379
aa(lp129
F457.9724
aF363.3505
aF353.4335
aa(lp130
F502.788
aF753.5612
aF585.2625
aa(lp131
F1579.951
aF928.1265000000001
aF1358.5209
aa(lp132
F6292.5264
aF8574.9444
aF6268.1784
aasS'single_soj_99'
p133
(lp134
(lp135
F78.84960000000001
aF81.6738
aF83.456
aa(lp136
F104.73519999999999
aF100.27799999999999
aF104.1708
aa(lp137
F111.81620000000001
aF110.5434
aF108.7024
aa(lp138
F108.2995
aF113.8815
aF117.95339999999999
aa(lp139
F123.9103
aF114.39240000000001
aF116.3317
aa(lp140
F116.616
aF119.372
aF120.252
aa(lp141
F124.2785
aF122.392
aF121.03150000000001
aa(lp142
F131.232
aF128.199
aF129.3471
aa(lp143
F143.3501
aF138.8381
aF141.6532
aa(lp144
F149.8096
aF162.45000000000002
aF150.3394
aa(lp145
F155.94459999999998
aF163.29410000000001
aF160.7232
aa(lp146
F167.192
aF171.92680000000001
aF168.932
aa(lp147
F184.7378
aF189.2675
aF187.70589999999999
aa(lp148
F216.5598
aF201.4235
aF213.745
aa(lp149
F235.69029999999998
aF248.62269999999998
aF243.597
aa(lp150
F284.3224
aF291.325
aF296.728
aa(lp151
F374.4005
aF393.8964
aF394.5138
aa(lp152
F541.8240000000001
aF605.3342
aF589.7396
aa(lp153
F1581.9608
aF1505.4959999999999
aF1258.8108
aa(lp154
F5391.3562999999995
aF11312.5311
aF6364.1213
aasS'single_95'
p155
(lp156
(lp157
F85.5294868
aF85.5193732
aF85.3605729
aa(lp158
F86.50199549999999
aF86.48595840000002
aF86.3803423
aa(lp159
F88.7837921
aF88.59293079999999
aF88.3459537
aa(lp160
F93.9856848
aF94.61993320000002
aF94.10238480000001
aa(lp161
F109.1169345
aF108.0726897
aF108.3579114
aa(lp162
F115.54600339999999
aF116.2833794
aF116.0232
aa(lp163
F119.5526455
aF119.8165752
aF119.7351055
aa(lp164
F123.33961999999998
aF123.03924649999999
aF122.7816893
aa(lp165
F125.8213098
aF126.05691499999999
aF125.8587952
aa(lp166
F130.031968
aF129.21373649999998
aF129.60092
aa(lp167
F134.5420661
aF136.1936028
aF135.64591639999998
aa(lp168
F144.2140402
aF144.23851200000001
aF143.63601220000004
aa(lp169
F156.6988156
aF159.6742159
aF156.94038159999997
aa(lp170
F173.512517
aF172.9085725
aF172.2524243
aa(lp171
F190.0154385
aF193.9455236
aF192.833158
aa(lp172
F225.7506328
aF226.7117728
aF222.1739641
aa(lp173
F279.5174322
aF281.44688120000006
aF289.0517444
aa(lp174
F396.02807759999996
aF414.7529724
aF429.3366368
aa(lp175
F1105.3212781999998
aF961.0034932000001
aF937.5109344
aa(lp176
F4433.7636206
aF9151.9592472
aF4623.024509999999
aasS'single_50'
p177
(lp178
(lp179
F75.17704119999999
aF75.1753218
aF75.2009234
aa(lp180
F75.30765829999999
aF75.3240736
aF75.3311794
aa(lp181
F75.6124391
aF75.38686719999998
aF75.5549161
aa(lp182
F75.78901439999999
aF75.7279216
aF75.6894843
aa(lp183
F76.0093637
aF75.9848449
aF75.9646828
aa(lp184
F76.2608426
aF76.25385779999999
aF76.1828
aa(lp185
F76.572969
aF76.5543582
aF76.5003595
aa(lp186
F77.02423199999998
aF77.0610082
aF76.8941475
aa(lp187
F77.347854
aF77.441777
aF77.4439672
aa(lp188
F78.20772
aF78.0278175
aF78.07994
aa(lp189
F78.9299693
aF79.2287274
aF78.92973799999999
aa(lp190
F80.1016138
aF80.065025
aF80.1048664
aa(lp191
F81.628378
aF81.91144030000001
aF81.53315319999999
aa(lp192
F84.3871379
aF84.3256475
aF84.3989668
aa(lp193
F89.699454
aF90.11768119999999
aF89.97364250000001
aa(lp194
F102.2715802
aF102.3180592
aF100.85009489999999
aa(lp195
F117.5295568
aF118.5085004
aF118.02098249999999
aa(lp196
F142.657254
aF139.6384218
aF145.657859
aa(lp197
F230.07506579999998
aF235.35643600000003
aF237.116256
aa(lp198
F885.0440605999999
aF1004.9813408
aF903.93111
aasS'random_50'
p199
(lp200
(lp201
F74.879464
aF74.819805
aF74.8952185
aa(lp202
F74.962492
aF75.056039
aF75.0473438
aa(lp203
F75.20750539999999
aF75.2723753
aF75.20699400000001
aa(lp204
F75.44975000000001
aF75.3784544
aF75.4439563
aa(lp205
F75.7160524
aF75.69129050000001
aF75.672188
aa(lp206
F76.05558719999999
aF76.0596821
aF75.95879839999999
aa(lp207
F76.4857724
aF76.34462669999999
aF76.46640199999999
aa(lp208
F76.8874792
aF76.642344
aF76.811429
aa(lp209
F77.3708191
aF77.1810806
aF77.4393657
aa(lp210
F78.0331051
aF77.99120399999998
aF78.12854709999999
aa(lp211
F78.8981448
aF78.9780784
aF78.725751
aa(lp212
F80.00470280000002
aF79.7932946
aF79.805534
aa(lp213
F81.540222
aF81.52605439999999
aF81.7982391
aa(lp214
F84.4401888
aF84.481404
aF84.31061700000001
aa(lp215
F89.89188960000001
aF91.3939129
aF89.48871500000001
aa(lp216
F102.32819509999999
aF101.74997630000001
aF100.38825600000001
aa(lp217
F117.4587286
aF117.1741122
aF117.29736
aa(lp218
F139.0010232
aF146.087545
aF144.2717735
aa(lp219
F227.26029719999997
aF222.1225216
aF215.73096120000002
aa(lp220
F1240.6704821
aF1682.7036956
aF1164.0681464
aasS'random_95'
p221
(lp222
(lp223
F85.456695
aF85.43652900000001
aF85.25269420000001
aa(lp224
F86.2459588
aF86.2749929
aF86.5756946
aa(lp225
F88.7727692
aF88.3475464
aF88.3597019
aa(lp226
F93.572918
aF94.2276822
aF94.6450093
aa(lp227
F107.25567600000001
aF108.2011895
aF108.091409
aa(lp228
F115.31231009999999
aF115.4086555
aF115.62673439999999
aa(lp229
F120.0397822
aF119.2314711
aF119.70528540000001
aa(lp230
F123.02525920000001
aF122.25053249999999
aF122.97374160000001
aa(lp231
F126.17839620000001
aF125.55782439999999
aF125.9031516
aa(lp232
F129.7293232
aF129.29824319999997
aF129.57453370000002
aa(lp233
F135.65184699999998
aF135.3487936
aF134.9204532
aa(lp234
F145.63908200000003
aF145.31812340000002
aF144.2965004
aa(lp235
F156.996361
aF157.459904
aF157.5544518
aa(lp236
F174.3691246
aF173.378178
aF172.67341100000004
aa(lp237
F194.7403362
aF197.128621
aF189.80632000000003
aa(lp238
F226.38889309999996
aF226.2613157
aF218.82249600000003
aa(lp239
F285.5640352
aF275.4174489
aF271.9005065
aa(lp240
F367.3465958
aF480.6448212
aF399.8339131
aa(lp241
F959.8160837999999
aF712.6543035999999
aF800.8109028000001
aa(lp242
F5020.4469982
aF7345.6694324
aF5807.0567317
aasS'minimum_x'
p243
(lp244
(lp245
I5
aI5
aI5
aa(lp246
I10
aI10
aI10
aa(lp247
I15
aI15
aI15
aa(lp248
I20
aI20
aI20
aa(lp249
I25
aI25
aI25
aa(lp250
I30
aI30
aI30
aa(lp251
I35
aI35
aI35
aa(lp252
I40
aI40
aI40
aa(lp253
I45
aI45
aI45
aa(lp254
I50
aI50
aI50
aa(lp255
I55
aI55
aI55
aa(lp256
I60
aI60
aI60
aa(lp257
I65
aI65
aI65
aa(lp258
I70
aI70
aI70
aa(lp259
I75
aI75
aI75
aa(lp260
I80
aI80
aI80
aa(lp261
I85
aI85
aI85
aa(lp262
I90
aI90
aI90
aa(lp263
I95
aI95
aI95
aa(lp264
I100
aI100
aI100
aasS'minimum_soj_95'
p265
(lp266
(lp267
F74.73750000000001
aF73.1236
aF75.5904
aa(lp268
F74.3752
aF78.5336
aF75.6032
aa(lp269
F79.05799999999999
aF81.2279
aF76.5346
aa(lp270
F84.6134
aF85.79320000000001
aF84.6266
aa(lp271
F97.83500000000001
aF95.89099999999999
aF96.76050000000001
aa(lp272
F104.0432
aF104.4956
aF101.9771
aa(lp273
F108.55569999999999
aF107.958
aF108.22869999999999
aa(lp274
F113.1432
aF111.26520000000001
aF110.9
aa(lp275
F114.3095
aF111.7697
aF115.8989
aa(lp276
F118.4174
aF115.902
aF119.3223
aa(lp277
F124.28479999999999
aF127.5821
aF121.81599999999999
aa(lp278
F133.9345
aF134.7323
aF133.4491
aa(lp279
F146.466
aF154.2756
aF148.4215
aa(lp280
F159.5992
aF163.7968
aF164.015
aa(lp281
F184.1918
aF180.3996
aF181.435
aa(lp282
F211.48919999999998
aF216.0832
aF215.934
aa(lp283
F276.685
aF268.9475
aF261.1415
aa(lp284
F372.4872
aF391.8486
aF406.1856
aa(lp285
F1185.013
aF832.383
aF799.7761
aa(lp286
F6778.5525
aF7427.9348
aF4441.3996
aasS'minimum_99'
p287
(lp288
(lp289
F94.80279180000001
aF93.24704650000001
aF95.40271949999999
aa(lp290
F120.2892914
aF119.68948079999998
aF119.64846839999998
aa(lp291
F124.64953799999998
aF124.83261610000001
aF124.40374719999998
aa(lp292
F128.1162143
aF128.1049856
aF127.8907466
aa(lp293
F130.3644724
aF130.62818800000002
aF130.44059800000002
aa(lp294
F133.92379
aF133.69836370000002
aF133.550518
aa(lp295
F138.2363855
aF137.3976138
aF137.63415680000003
aa(lp296
F144.1771544
aF146.3349776
aF145.9895674
aa(lp297
F155.0159068
aF154.4951768
aF155.77045700000002
aa(lp298
F166.2093958
aF166.15807089999998
aF166.3762561
aa(lp299
F174.2355483
aF175.89523200000002
aF174.82553819999998
aa(lp300
F185.07590240000002
aF185.5259816
aF186.68334800000002
aa(lp301
F201.30624780000002
aF203.04908679999997
aF200.1144938
aa(lp302
F229.05523580000002
aF229.75697119999998
aF227.9346592
aa(lp303
F261.1904598
aF256.32854000000003
aF251.180964
aa(lp304
F303.416189
aF312.2563808
aF301.3907808
aa(lp305
F385.39879999999994
aF401.4110572
aF368.4130562
aa(lp306
F579.0480239999999
aF587.1053968
aF792.44884
aa(lp307
F2114.6346934
aF1085.2159025
aF1161.7490155
aa(lp308
F8016.7681592
aF10469.3919924
aF5558.6372012
aasS'random_soj_50'
p309
(lp310
(lp311
F65.3728
aF67.12
aF64.4075
aa(lp312
F66.26400000000001
aF70.481
aF66.46209999999999
aa(lp313
F71.3519
aF65.395
aF67.608
aa(lp314
F61.75
aF70.73599999999999
aF67.6877
aa(lp315
F67.5995
aF68.851
aF68.6568
aa(lp316
F68.9856
aF67.8856
aF70.63669999999999
aa(lp317
F74.856
aF66.8697
aF70.191
aa(lp318
F70.5584
aF70.5296
aF70.7735
aa(lp319
F71.8463
aF68.4616
aF72.3364
aa(lp320
F69.33279999999999
aF72.45400000000001
aF69.5705
aa(lp321
F72.85640000000001
aF72.72479999999999
aF73.334
aa(lp322
F74.4983
aF74.6634
aF71.6925
aa(lp323
F80.5018
aF79.2328
aF75.8825
aa(lp324
F80.3344
aF77.12100000000001
aF78.0421
aa(lp325
F81.99680000000001
aF83.8956
aF82.2644
aa(lp326
F95.75009999999999
aF96.9014
aF92.5036
aa(lp327
F110.0903
aF107.4718
aF113.44
aa(lp328
F129.69119999999998
aF136.73
aF134.4225
aa(lp329
F224.698
aF212.0136
aF212.2917
aa(lp330
F1231.5326
aF1677.2868
aF1158.5904
aasS'single_soj_50'
p331
(lp332
(lp333
F62.5212
aF66.0254
aF67.256
aa(lp334
F67.2712
aF65.412
aF67.1448
aa(lp335
F69.00370000000001
aF68.4144
aF67.2632
aa(lp336
F64.7319
aF68.884
aF70.37989999999999
aa(lp337
F71.75489999999999
aF68.6198
aF68.2762
aa(lp338
F66.3885
aF69.782
aF70.28399999999999
aa(lp339
F70.90979999999999
aF67.564
aF69.11590000000001
aa(lp340
F69.2496
aF70.306
aF69.8925
aa(lp341
F72.391
aF69.5463
aF72.30279999999999
aa(lp342
F71.672
aF76.375
aF72.1208
aa(lp343
F69.8733
aF72.5219
aF70.52799999999999
aa(lp344
F73.8288
aF74.03
aF70.7404
aa(lp345
F75.314
aF76.6225
aF77.07589999999999
aa(lp346
F77.6062
aF74.5465
aF79.02799999999999
aa(lp347
F84.19479999999999
aF84.6137
aF84.8775
aa(lp348
F94.6728
aF96.326
aF95.3584
aa(lp349
F109.688
aF113.9432
aF114.665
aa(lp350
F136.89600000000002
aF136.5516
aF138.9035
aa(lp351
F223.1163
aF228.352
aF233.28349999999998
aa(lp352
F877.6619
aF996.4738
aF896.3512999999999
aasS'minimum_soj_99'
p353
(lp354
(lp355
F82.2625
aF79.9684
aF83.834
aa(lp356
F102.1084
aF107.4584
aF102.2968
aa(lp357
F109.934
aF113.5609
aF105.8824
aa(lp358
F113.6966
aF114.2102
aF114.31989999999999
aa(lp359
F116.4965
aF114.77
aF114.654
aa(lp360
F119.274
aF120.3143
aF116.86599999999999
aa(lp361
F124.71449999999999
aF123.9543
aF123.49619999999999
aa(lp362
F132.48160000000001
aF131.7828
aF130.8844
aa(lp363
F139.5599
aF136.9884
aF144.2335
aa(lp364
F151.0922
aF148.1822
aF152.9207
aa(lp365
F159.6162
aF163.298
aF157.214
aa(lp366
F168.888
aF171.6494
aF170.4426
aa(lp367
F187.4923
aF197.8156
aF187.8006
aa(lp368
F212.1088
aF217.62079999999997
aF213.632
aa(lp369
F245.74140000000003
aF244.1532
aF240.88
aa(lp370
F288.058
aF296.8544
aF295.1488
aa(lp371
F372.25
aF386.5442
aF355.577
aa(lp372
F560.1426
aF570.9423
aF776.4960000000001
aa(lp373
F2090.4308
aF1065.8325
aF1140.4255
aa(lp374
F7988.2498
aF10443.2084
aF5537.099200000001
aasS'random_x'
p375
(lp376
(lp377
I5
aI5
aI5
aa(lp378
I10
aI10
aI10
aa(lp379
I15
aI15
aI15
aa(lp380
I20
aI20
aI20
aa(lp381
I25
aI25
aI25
aa(lp382
I30
aI30
aI30
aa(lp383
I35
aI35
aI35
aa(lp384
I40
aI40
aI40
aa(lp385
I45
aI45
aI45
aa(lp386
I50
aI50
aI50
aa(lp387
I55
aI55
aI55
aa(lp388
I60
aI60
aI60
aa(lp389
I65
aI65
aI65
aa(lp390
I70
aI70
aI70
aa(lp391
I75
aI75
aI75
aa(lp392
I80
aI80
aI80
aa(lp393
I85
aI85
aI85
aa(lp394
I90
aI90
aI90
aa(lp395
I95
aI95
aI95
aa(lp396
I100
aI100
aI100
aasS'single_x'
p397
(lp398
(lp399
I5
aI5
aI5
aa(lp400
I10
aI10
aI10
aa(lp401
I15
aI15
aI15
aa(lp402
I20
aI20
aI20
aa(lp403
I25
aI25
aI25
aa(lp404
I30
aI30
aI30
aa(lp405
I35
aI35
aI35
aa(lp406
I40
aI40
aI40
aa(lp407
I45
aI45
aI45
aa(lp408
I50
aI50
aI50
aa(lp409
I55
aI55
aI55
aa(lp410
I60
aI60
aI60
aa(lp411
I65
aI65
aI65
aa(lp412
I70
aI70
aI70
aa(lp413
I75
aI75
aI75
aa(lp414
I80
aI80
aI80
aa(lp415
I85
aI85
aI85
aa(lp416
I90
aI90
aI90
aa(lp417
I95
aI95
aI95
aa(lp418
I100
aI100
aI100
aasS'minimum_95'
p419
(lp420
(lp421
F85.5248882
aF85.31949850000001
aF85.4335892
aa(lp422
F86.41654919999999
aF86.3618232
aF86.4759816
aa(lp423
F88.07940599999999
aF88.4154591
aF88.49587879999999
aa(lp424
F93.8220407
aF95.04580959999998
aF93.5508844
aa(lp425
F108.71215600000002
aF108.49932040000002
aF109.2069385
aa(lp426
F116.455872
aF115.65568040000002
aF116.30168330000001
aa(lp427
F119.9923043
aF119.572028
aF120.0720368
aa(lp428
F123.1223663
aF123.61103839999998
aF123.12465
aa(lp429
F126.298854
aF125.7546394
aF126.1254638
aa(lp430
F129.7238786
aF130.092469
aF129.3225329
aa(lp431
F135.0843232
aF136.7572364
aF135.2303008
aa(lp432
F146.25153310000002
aF144.99075720000002
aF145.671218
aa(lp433
F156.714276
aF158.34246679999998
aF157.83389449999999
aa(lp434
F174.34447970000002
aF173.04503519999997
aF174.89515899999998
aa(lp435
F195.64533260000002
aF189.49862000000002
aF189.5715055
aa(lp436
F222.5673286
aF227.9097824
aF221.24356900000004
aa(lp437
F286.60619599999995
aF280.916785
aF270.7269299
aa(lp438
F385.814528
aF404.1248176
aF417.50527399999993
aa(lp439
F1198.9332115
aF847.420011
aF815.5930741
aa(lp440
F6804.13621
aF7448.231182799999
aF4459.5221381
aasS'minimum_soj_50'
p441
(lp442
(lp443
F66.30000000000001
aF64.394
aF67.1396
aa(lp444
F65.24080000000001
aF68.9656
aF66.5386
aa(lp445
F68.2855
aF69.8741
aF65.83359999999999
aa(lp446
F69.3082
aF69.32220000000001
aF69.28139999999999
aa(lp447
F69.50450000000001
aF68.17699999999999
aF68.7047
aa(lp448
F69.1174
aF69.86330000000001
aF67.3659
aa(lp449
F70.10749999999999
aF69.405
aF70.42439999999999
aa(lp450
F70.8232
aF69.3648
aF70.4988
aa(lp451
F71.4254
aF69.3104
aF69.4602
aa(lp452
F72.16460000000001
aF69.4696
aF72.77029999999999
aa(lp453
F73.5864
aF74.9444
aF71.436
aa(lp454
F74.41550000000001
aF75.8075
aF74.2113
aa(lp455
F77.2115
aF79.6045
aF77.5905
aa(lp456
F73.1848
aF79.6736
aF79.729
aa(lp457
F85.3107
aF84.815
aF83.965
aa(lp458
F96.99759999999999
aF95.68950000000001
aF96.9256
aa(lp459
F114.42
aF108.7433
aF112.227
aa(lp460
F134.1096
aF137.802
aF137.8272
aa(lp461
F217.1958
aF220.87199999999999
aF212.6896
aa(lp462
F1257.0207
aF882.0457
aF1245.136
aas.