(dp0
S'single_NodeRedirections'
p1
(lp2
(lp3
F0.0
aF0.0
aF0.0
aa(lp4
F0.0
aF0.0
aF0.0
aa(lp5
F0.0
aF0.0
aF0.0
aa(lp6
F0.0
aF0.0
aF0.0
aa(lp7
F0.0
aF0.0
aF0.0
aa(lp8
F0.0
aF0.0
aF0.0
aa(lp9
F0.0
aF0.0
aF0.0
aa(lp10
F0.0
aF0.0
aF0.0
aa(lp11
F0.0
aF0.0
aF0.0
aa(lp12
F0.0
aF0.0
aF0.0
aa(lp13
F0.0
aF0.0
aF0.0
aa(lp14
F0.0
aF0.0
aF0.0
aa(lp15
F0.0
aF0.0
aF0.0
aa(lp16
F0.0
aF0.0
aF0.0
aa(lp17
F0.0
aF0.0
aF0.0
aa(lp18
F0.0
aF0.0
aF0.0
aa(lp19
F0.0
aF0.0
aF0.0
aa(lp20
F0.0
aF0.0
aF0.0
aa(lp21
F0.0
aF0.0
aF0.0
aa(lp22
F0.0
aF0.0
aF0.0
aasS'random_NodeTotal'
p23
(lp24
(lp25
F0.0
aF0.0
aF0.0
aa(lp26
F0.0
aF0.0
aF0.0
aa(lp27
F0.0
aF0.0
aF0.0
aa(lp28
F0.0
aF0.0
aF0.0
aa(lp29
F0.0
aF0.0
aF0.0
aa(lp30
F0.0
aF0.0
aF0.0
aa(lp31
F0.0
aF0.0
aF0.0
aa(lp32
F0.0
aF0.0
aF0.0
aa(lp33
F0.0
aF0.0
aF0.0
aa(lp34
F0.0
aF0.0
aF0.0
aa(lp35
F0.0
aF0.0
aF0.0
aa(lp36
F0.0
aF0.0
aF0.0
aa(lp37
F0.0
aF0.0
aF0.0
aa(lp38
F0.0
aF0.0
aF0.0
aa(lp39
F0.0
aF0.0
aF0.0
aa(lp40
F0.0
aF0.0
aF0.0
aa(lp41
F0.0
aF0.0
aF0.0
aa(lp42
F0.0
aF0.0
aF0.0
aa(lp43
F0.0
aF0.0
aF0.0
aa(lp44
F0.0
aF0.0
aasS'minimum_AggRedirections'
p45
(lp46
(lp47
F506.0
aF562.0
aF547.0
aa(lp48
F1025.0
aF1052.0
aF1051.0
aa(lp49
F1465.0
aF1515.0
aF1494.0
aa(lp50
F1936.0
aF2070.0
aF1994.0
aa(lp51
F2450.0
aF2408.0
aF2424.0
aa(lp52
F2769.0
aF2809.0
aF2850.0
aa(lp53
F3152.0
aF3191.0
aF3141.0
aa(lp54
F3418.0
aF3497.0
aF3533.0
aa(lp55
F3651.0
aF3681.0
aF3699.0
aa(lp56
F3984.0
aF3920.0
aF3842.0
aa(lp57
F4143.0
aF4014.0
aF4011.0
aa(lp58
F4190.0
aF4133.0
aF4081.0
aa(lp59
F4204.0
aF4265.0
aF4336.0
aa(lp60
F4268.0
aF4362.0
aF4241.0
aa(lp61
F4232.0
aF4256.0
aF4377.0
aa(lp62
F4247.0
aF4326.0
aF4252.0
aa(lp63
F4280.0
aF4285.0
aF4216.0
aa(lp64
F4060.0
aF4090.0
aF4257.0
aa(lp65
F3800.0
aF4097.0
aF4039.0
aa(lp66
F3935.0
aF3832.0
aF3851.0
aasS'single_AggRedirections'
p67
(lp68
(lp69
F576.0
aF540.0
aF527.0
aa(lp70
F996.0
aF1020.0
aF961.0
aa(lp71
F1459.0
aF1508.0
aF1501.0
aa(lp72
F1955.0
aF1851.0
aF1932.0
aa(lp73
F2362.0
aF2294.0
aF2389.0
aa(lp74
F2654.0
aF2732.0
aF2715.0
aa(lp75
F3069.0
aF3070.0
aF2973.0
aa(lp76
F3390.0
aF3231.0
aF3243.0
aa(lp77
F3627.0
aF3536.0
aF3517.0
aa(lp78
F3787.0
aF3682.0
aF3731.0
aa(lp79
F3922.0
aF3899.0
aF3922.0
aa(lp80
F3988.0
aF3979.0
aF3918.0
aa(lp81
F3944.0
aF4057.0
aF3962.0
aa(lp82
F4239.0
aF4063.0
aF4095.0
aa(lp83
F4044.0
aF3995.0
aF4236.0
aa(lp84
F4082.0
aF4124.0
aF4216.0
aa(lp85
F3918.0
aF4045.0
aF3966.0
aa(lp86
F4005.0
aF3827.0
aF3891.0
aa(lp87
F3703.0
aF3763.0
aF3660.0
aa(lp88
F3662.0
aF3768.0
aF3577.0
aasS'minimum_NodeRedirections'
p89
(lp90
(lp91
F0.0
aF0.0
aF0.0
aa(lp92
F0.0
aF0.0
aF0.0
aa(lp93
F0.0
aF0.0
aF0.0
aa(lp94
F0.0
aF0.0
aF0.0
aa(lp95
F0.0
aF0.0
aF0.0
aa(lp96
F0.0
aF0.0
aF0.0
aa(lp97
F0.0
aF0.0
aF0.0
aa(lp98
F0.0
aF0.0
aF0.0
aa(lp99
F0.0
aF0.0
aF0.0
aa(lp100
F0.0
aF0.0
aF0.0
aa(lp101
F0.0
aF0.0
aF0.0
aa(lp102
F0.0
aF0.0
aF0.0
aa(lp103
F0.0
aF0.0
aF0.0
aa(lp104
F0.0
aF0.0
aF0.0
aa(lp105
F0.0
aF0.0
aF0.0
aa(lp106
F0.0
aF0.0
aF0.0
aa(lp107
F0.0
aF0.0
aF0.0
aa(lp108
F0.0
aF0.0
aF0.0
aa(lp109
F0.0
aF0.0
aF0.0
aa(lp110
F0.0
aF0.0
aF0.0
aasS'random_x'
p111
(lp112
(lp113
I5
aI5
aI5
aa(lp114
I10
aI10
aI10
aa(lp115
I15
aI15
aI15
aa(lp116
I20
aI20
aI20
aa(lp117
I25
aI25
aI25
aa(lp118
I30
aI30
aI30
aa(lp119
I35
aI35
aI35
aa(lp120
I40
aI40
aI40
aa(lp121
I45
aI45
aI45
aa(lp122
I50
aI50
aI50
aa(lp123
I55
aI55
aI55
aa(lp124
I60
aI60
aI60
aa(lp125
I65
aI65
aI65
aa(lp126
I70
aI70
aI70
aa(lp127
I75
aI75
aI75
aa(lp128
I80
aI80
aI80
aa(lp129
I85
aI85
aI85
aa(lp130
I95
aI90
aI90
aa(lp131
I100
aI95
aI95
aa(lp132
I100
aI100
aasS'minimum_x'
p133
(lp134
(lp135
I5
aI5
aI5
aa(lp136
I10
aI10
aI10
aa(lp137
I15
aI15
aI15
aa(lp138
I20
aI20
aI20
aa(lp139
I25
aI25
aI25
aa(lp140
I30
aI30
aI30
aa(lp141
I35
aI35
aI35
aa(lp142
I40
aI40
aI40
aa(lp143
I45
aI45
aI45
aa(lp144
I50
aI50
aI50
aa(lp145
I55
aI55
aI55
aa(lp146
I60
aI60
aI60
aa(lp147
I65
aI65
aI65
aa(lp148
I70
aI70
aI70
aa(lp149
I75
aI75
aI75
aa(lp150
I80
aI80
aI80
aa(lp151
I85
aI85
aI85
aa(lp152
I90
aI90
aI90
aa(lp153
I95
aI95
aI95
aa(lp154
I100
aI100
aI100
aasS'single_x'
p155
(lp156
(lp157
I5
aI5
aI5
aa(lp158
I10
aI10
aI10
aa(lp159
I15
aI15
aI15
aa(lp160
I20
aI20
aI20
aa(lp161
I25
aI25
aI25
aa(lp162
I30
aI30
aI30
aa(lp163
I35
aI35
aI35
aa(lp164
I40
aI40
aI40
aa(lp165
I45
aI45
aI45
aa(lp166
I50
aI50
aI50
aa(lp167
I55
aI55
aI55
aa(lp168
I60
aI60
aI60
aa(lp169
I65
aI65
aI65
aa(lp170
I70
aI70
aI70
aa(lp171
I75
aI75
aI75
aa(lp172
I80
aI80
aI80
aa(lp173
I85
aI85
aI85
aa(lp174
I90
aI90
aI90
aa(lp175
I95
aI95
aI95
aa(lp176
I100
aI100
aI100
aasS'random_NodeRedirections'
p177
(lp178
(lp179
F0.0
aF0.0
aF0.0
aa(lp180
F0.0
aF0.0
aF0.0
aa(lp181
F0.0
aF0.0
aF0.0
aa(lp182
F0.0
aF0.0
aF0.0
aa(lp183
F0.0
aF0.0
aF0.0
aa(lp184
F0.0
aF0.0
aF0.0
aa(lp185
F0.0
aF0.0
aF0.0
aa(lp186
F0.0
aF0.0
aF0.0
aa(lp187
F0.0
aF0.0
aF0.0
aa(lp188
F0.0
aF0.0
aF0.0
aa(lp189
F0.0
aF0.0
aF0.0
aa(lp190
F0.0
aF0.0
aF0.0
aa(lp191
F0.0
aF0.0
aF0.0
aa(lp192
F0.0
aF0.0
aF0.0
aa(lp193
F0.0
aF0.0
aF0.0
aa(lp194
F0.0
aF0.0
aF0.0
aa(lp195
F0.0
aF0.0
aF0.0
aa(lp196
F0.0
aF0.0
aF0.0
aa(lp197
F0.0
aF0.0
aF0.0
aa(lp198
F0.0
aF0.0
aasS'minimum_EdgeTotal'
p199
(lp200
(lp201
F145356.0
aF145261.0
aF145384.0
aa(lp202
F145556.0
aF145522.0
aF145546.0
aa(lp203
F145783.0
aF145832.0
aF145691.0
aa(lp204
F145942.0
aF146003.0
aF146152.0
aa(lp205
F146047.0
aF146085.0
aF146344.0
aa(lp206
F146405.0
aF146448.0
aF146404.0
aa(lp207
F146659.0
aF146705.0
aF146721.0
aa(lp208
F146575.0
aF146589.0
aF146867.0
aa(lp209
F146921.0
aF146663.0
aF146781.0
aa(lp210
F146852.0
aF146940.0
aF146988.0
aa(lp211
F146859.0
aF146887.0
aF146827.0
aa(lp212
F147044.0
aF147043.0
aF147137.0
aa(lp213
F147096.0
aF146694.0
aF146852.0
aa(lp214
F147273.0
aF147064.0
aF146908.0
aa(lp215
F146876.0
aF147084.0
aF146972.0
aa(lp216
F147112.0
aF146855.0
aF147122.0
aa(lp217
F146947.0
aF146923.0
aF147059.0
aa(lp218
F147021.0
aF147109.0
aF147034.0
aa(lp219
F146871.0
aF146980.0
aF146969.0
aa(lp220
F146826.0
aF146949.0
aF146745.0
aasS'minimum_NodeTotal'
p221
(lp222
(lp223
F0.0
aF0.0
aF0.0
aa(lp224
F0.0
aF0.0
aF0.0
aa(lp225
F0.0
aF0.0
aF0.0
aa(lp226
F0.0
aF0.0
aF0.0
aa(lp227
F0.0
aF0.0
aF0.0
aa(lp228
F0.0
aF0.0
aF0.0
aa(lp229
F0.0
aF0.0
aF0.0
aa(lp230
F0.0
aF0.0
aF0.0
aa(lp231
F0.0
aF0.0
aF0.0
aa(lp232
F0.0
aF0.0
aF0.0
aa(lp233
F0.0
aF0.0
aF0.0
aa(lp234
F0.0
aF0.0
aF0.0
aa(lp235
F0.0
aF0.0
aF0.0
aa(lp236
F0.0
aF0.0
aF0.0
aa(lp237
F0.0
aF0.0
aF0.0
aa(lp238
F0.0
aF0.0
aF0.0
aa(lp239
F0.0
aF0.0
aF0.0
aa(lp240
F0.0
aF0.0
aF0.0
aa(lp241
F0.0
aF0.0
aF0.0
aa(lp242
F0.0
aF0.0
aF0.0
aasS'single_NodeTotal'
p243
(lp244
(lp245
F0.0
aF0.0
aF0.0
aa(lp246
F0.0
aF0.0
aF0.0
aa(lp247
F0.0
aF0.0
aF0.0
aa(lp248
F0.0
aF0.0
aF0.0
aa(lp249
F0.0
aF0.0
aF0.0
aa(lp250
F0.0
aF0.0
aF0.0
aa(lp251
F0.0
aF0.0
aF0.0
aa(lp252
F0.0
aF0.0
aF0.0
aa(lp253
F0.0
aF0.0
aF0.0
aa(lp254
F0.0
aF0.0
aF0.0
aa(lp255
F0.0
aF0.0
aF0.0
aa(lp256
F0.0
aF0.0
aF0.0
aa(lp257
F0.0
aF0.0
aF0.0
aa(lp258
F0.0
aF0.0
aF0.0
aa(lp259
F0.0
aF0.0
aF0.0
aa(lp260
F0.0
aF0.0
aF0.0
aa(lp261
F0.0
aF0.0
aF0.0
aa(lp262
F0.0
aF0.0
aF0.0
aa(lp263
F0.0
aF0.0
aF0.0
aa(lp264
F0.0
aF0.0
aF0.0
aasS'single_AggTotal'
p265
(lp266
(lp267
F130373.0
aF130416.0
aF130191.0
aa(lp268
F131349.0
aF130696.0
aF131137.0
aa(lp269
F131626.0
aF131303.0
aF131125.0
aa(lp270
F131871.0
aF131659.0
aF131907.0
aa(lp271
F131947.0
aF131652.0
aF131676.0
aa(lp272
F132274.0
aF132434.0
aF132323.0
aa(lp273
F132690.0
aF132575.0
aF132591.0
aa(lp274
F132412.0
aF132620.0
aF132176.0
aa(lp275
F133096.0
aF132482.0
aF132799.0
aa(lp276
F132408.0
aF132580.0
aF132908.0
aa(lp277
F132305.0
aF132408.0
aF132723.0
aa(lp278
F132155.0
aF132366.0
aF132638.0
aa(lp279
F131955.0
aF132199.0
aF131781.0
aa(lp280
F132075.0
aF131844.0
aF132237.0
aa(lp281
F131767.0
aF131830.0
aF132037.0
aa(lp282
F131374.0
aF131491.0
aF131871.0
aa(lp283
F130944.0
aF131329.0
aF131229.0
aa(lp284
F131078.0
aF130988.0
aF130988.0
aa(lp285
F130700.0
aF130559.0
aF130841.0
aa(lp286
F130793.0
aF130968.0
aF129890.0
aasS'minimum_AggTotal'
p287
(lp288
(lp289
F130947.0
aF130738.0
aF130757.0
aa(lp290
F131513.0
aF131359.0
aF131392.0
aa(lp291
F131999.0
aF132130.0
aF132244.0
aa(lp292
F132449.0
aF132979.0
aF132875.0
aa(lp293
F133340.0
aF133195.0
aF133476.0
aa(lp294
F133627.0
aF133917.0
aF133793.0
aa(lp295
F134320.0
aF134809.0
aF134478.0
aa(lp296
F134657.0
aF134814.0
aF134821.0
aa(lp297
F135233.0
aF134759.0
aF134975.0
aa(lp298
F135316.0
aF135411.0
aF135419.0
aa(lp299
F135352.0
aF135314.0
aF135170.0
aa(lp300
F135862.0
aF135549.0
aF135690.0
aa(lp301
F135926.0
aF135528.0
aF135347.0
aa(lp302
F136045.0
aF135732.0
aF135731.0
aa(lp303
F135241.0
aF135837.0
aF135831.0
aa(lp304
F135498.0
aF135432.0
aF135683.0
aa(lp305
F135707.0
aF135748.0
aF135608.0
aa(lp306
F135789.0
aF135855.0
aF135743.0
aa(lp307
F135439.0
aF135469.0
aF135574.0
aa(lp308
F135287.0
aF135403.0
aF135280.0
aasS'minimum_CoreRedirections'
p309
(lp310
(lp311
F238.0
aF250.0
aF249.0
aa(lp312
F497.0
aF508.0
aF540.0
aa(lp313
F710.0
aF695.0
aF671.0
aa(lp314
F885.0
aF940.0
aF919.0
aa(lp315
F1125.0
aF1096.0
aF1118.0
aa(lp316
F1296.0
aF1251.0
aF1313.0
aa(lp317
F1480.0
aF1452.0
aF1473.0
aa(lp318
F1600.0
aF1582.0
aF1596.0
aa(lp319
F1661.0
aF1691.0
aF1686.0
aa(lp320
F1860.0
aF1805.0
aF1820.0
aa(lp321
F1909.0
aF1867.0
aF1909.0
aa(lp322
F1998.0
aF1927.0
aF1834.0
aa(lp323
F2016.0
aF1937.0
aF1959.0
aa(lp324
F1919.0
aF2017.0
aF1915.0
aa(lp325
F2091.0
aF2061.0
aF1985.0
aa(lp326
F1942.0
aF2041.0
aF2072.0
aa(lp327
F1979.0
aF1900.0
aF1970.0
aa(lp328
F1923.0
aF1860.0
aF1907.0
aa(lp329
F1952.0
aF1815.0
aF1820.0
aa(lp330
F1817.0
aF1769.0
aF1787.0
aasS'minimum_EdgeRedirections'
p331
(lp332
(lp333
F588.0
aF559.0
aF609.0
aa(lp334
F1167.0
aF1201.0
aF1162.0
aa(lp335
F1668.0
aF1670.0
aF1709.0
aa(lp336
F2201.0
aF2221.0
aF2262.0
aa(lp337
F2659.0
aF2676.0
aF2720.0
aa(lp338
F3145.0
aF3155.0
aF3093.0
aa(lp339
F3454.0
aF3427.0
aF3453.0
aa(lp340
F3723.0
aF3874.0
aF3851.0
aa(lp341
F4145.0
aF3922.0
aF4105.0
aa(lp342
F4449.0
aF4494.0
aF4368.0
aa(lp343
F4421.0
aF4469.0
aF4426.0
aa(lp344
F4616.0
aF4683.0
aF4579.0
aa(lp345
F4740.0
aF4722.0
aF4732.0
aa(lp346
F4825.0
aF4653.0
aF4886.0
aa(lp347
F4785.0
aF4782.0
aF4850.0
aa(lp348
F4722.0
aF4672.0
aF4705.0
aa(lp349
F4682.0
aF4740.0
aF4796.0
aa(lp350
F4633.0
aF4565.0
aF4724.0
aa(lp351
F4488.0
aF4448.0
aF4507.0
aa(lp352
F4378.0
aF4400.0
aF4422.0
aasS'single_EdgeTotal'
p353
(lp354
(lp355
F144972.0
aF145220.0
aF144979.0
aa(lp356
F145689.0
aF145164.0
aF145232.0
aa(lp357
F145603.0
aF145184.0
aF145265.0
aa(lp358
F145428.0
aF145358.0
aF145670.0
aa(lp359
F145570.0
aF145306.0
aF145410.0
aa(lp360
F145602.0
aF145666.0
aF145742.0
aa(lp361
F145592.0
aF145647.0
aF145840.0
aa(lp362
F145353.0
aF145691.0
aF145470.0
aa(lp363
F145830.0
aF145539.0
aF145746.0
aa(lp364
F145494.0
aF145498.0
aF145735.0
aa(lp365
F145555.0
aF145478.0
aF145558.0
aa(lp366
F145325.0
aF145339.0
aF145581.0
aa(lp367
F145173.0
aF145164.0
aF145158.0
aa(lp368
F145168.0
aF145058.0
aF145313.0
aa(lp369
F145231.0
aF145196.0
aF145113.0
aa(lp370
F144895.0
aF145001.0
aF145223.0
aa(lp371
F144551.0
aF144792.0
aF144841.0
aa(lp372
F144766.0
aF144752.0
aF144670.0
aa(lp373
F144475.0
aF144520.0
aF144763.0
aa(lp374
F144751.0
aF144560.0
aF144136.0
aasS'random_CoreRedirections'
p375
(lp376
(lp377
F226.0
aF246.0
aF229.0
aa(lp378
F435.0
aF453.0
aF467.0
aa(lp379
F675.0
aF687.0
aF680.0
aa(lp380
F912.0
aF921.0
aF873.0
aa(lp381
F1082.0
aF1054.0
aF1132.0
aa(lp382
F1283.0
aF1246.0
aF1206.0
aa(lp383
F1359.0
aF1329.0
aF1417.0
aa(lp384
F1533.0
aF1543.0
aF1523.0
aa(lp385
F1636.0
aF1679.0
aF1660.0
aa(lp386
F1722.0
aF1706.0
aF1735.0
aa(lp387
F1720.0
aF1819.0
aF1850.0
aa(lp388
F1837.0
aF1881.0
aF1853.0
aa(lp389
F1873.0
aF1805.0
aF1884.0
aa(lp390
F1879.0
aF1909.0
aF1939.0
aa(lp391
F1852.0
aF1896.0
aF1916.0
aa(lp392
F1868.0
aF1813.0
aF1870.0
aa(lp393
F1891.0
aF1903.0
aF1832.0
aa(lp394
F1774.0
aF1866.0
aF1794.0
aa(lp395
F1647.0
aF1713.0
aF1758.0
aa(lp396
F1669.0
aF1700.0
aasS'single_EdgeRedirections'
p397
(lp398
(lp399
F2350.0
aF2318.0
aF2293.0
aa(lp400
F4633.0
aF4624.0
aF4603.0
aa(lp401
F7081.0
aF7056.0
aF7011.0
aa(lp402
F9257.0
aF9043.0
aF9334.0
aa(lp403
F11578.0
aF11354.0
aF11502.0
aa(lp404
F13697.0
aF13702.0
aF13715.0
aa(lp405
F16224.0
aF16434.0
aF16190.0
aa(lp406
F18661.0
aF18382.0
aF18455.0
aa(lp407
F20533.0
aF20744.0
aF21079.0
aa(lp408
F23081.0
aF23054.0
aF23061.0
aa(lp409
F25225.0
aF25222.0
aF25277.0
aa(lp410
F27278.0
aF27146.0
aF27315.0
aa(lp411
F29130.0
aF29077.0
aF29096.0
aa(lp412
F30969.0
aF30784.0
aF30759.0
aa(lp413
F32592.0
aF32732.0
aF32939.0
aa(lp414
F34229.0
aF34273.0
aF34467.0
aa(lp415
F35992.0
aF35671.0
aF35986.0
aa(lp416
F37098.0
aF37247.0
aF37056.0
aa(lp417
F38430.0
aF38167.0
aF38339.0
aa(lp418
F39308.0
aF39334.0
aF39319.0
aasS'single_CoreRedirections'
p419
(lp420
(lp421
F233.0
aF222.0
aF261.0
aa(lp422
F464.0
aF483.0
aF452.0
aa(lp423
F736.0
aF703.0
aF629.0
aa(lp424
F815.0
aF888.0
aF871.0
aa(lp425
F1046.0
aF1030.0
aF1066.0
aa(lp426
F1188.0
aF1192.0
aF1215.0
aa(lp427
F1378.0
aF1364.0
aF1355.0
aa(lp428
F1528.0
aF1469.0
aF1528.0
aa(lp429
F1611.0
aF1622.0
aF1696.0
aa(lp430
F1696.0
aF1772.0
aF1784.0
aa(lp431
F1710.0
aF1768.0
aF1799.0
aa(lp432
F1783.0
aF1818.0
aF1802.0
aa(lp433
F1948.0
aF1852.0
aF1837.0
aa(lp434
F1980.0
aF1869.0
aF1860.0
aa(lp435
F1830.0
aF1907.0
aF1916.0
aa(lp436
F1922.0
aF1883.0
aF1951.0
aa(lp437
F1897.0
aF1758.0
aF1864.0
aa(lp438
F1787.0
aF1883.0
aF1785.0
aa(lp439
F1743.0
aF1753.0
aF1748.0
aa(lp440
F1679.0
aF1781.0
aF1618.0
aasS'random_AggTotal'
p441
(lp442
(lp443
F125858.0
aF125866.0
aF125810.0
aa(lp444
F126527.0
aF126770.0
aF126792.0
aa(lp445
F127134.0
aF127677.0
aF126973.0
aa(lp446
F127387.0
aF127757.0
aF127780.0
aa(lp447
F128285.0
aF128544.0
aF128393.0
aa(lp448
F128607.0
aF129386.0
aF128981.0
aa(lp449
F129578.0
aF129135.0
aF129094.0
aa(lp450
F129733.0
aF129522.0
aF129833.0
aa(lp451
F130176.0
aF129585.0
aF129985.0
aa(lp452
F130477.0
aF130676.0
aF130581.0
aa(lp453
F130854.0
aF130675.0
aF130663.0
aa(lp454
F131176.0
aF130552.0
aF130479.0
aa(lp455
F130606.0
aF131079.0
aF130928.0
aa(lp456
F130774.0
aF130858.0
aF130965.0
aa(lp457
F130374.0
aF130549.0
aF130758.0
aa(lp458
F130660.0
aF131132.0
aF130897.0
aa(lp459
F131225.0
aF130744.0
aF131155.0
aa(lp460
F130699.0
aF130683.0
aF130800.0
aa(lp461
F130055.0
aF130412.0
aF130771.0
aa(lp462
F130366.0
aF131012.0
aasS'random_CoreTotal'
p463
(lp464
(lp465
F57988.0
aF58004.0
aF58003.0
aa(lp466
F58441.0
aF58560.0
aF58619.0
aa(lp467
F58892.0
aF59202.0
aF58785.0
aa(lp468
F59069.0
aF59263.0
aF59261.0
aa(lp469
F59630.0
aF59755.0
aF59609.0
aa(lp470
F59723.0
aF60216.0
aF59937.0
aa(lp471
F60311.0
aF60139.0
aF60145.0
aa(lp472
F60565.0
aF60343.0
aF60646.0
aa(lp473
F60823.0
aF60422.0
aF60646.0
aa(lp474
F61004.0
aF61068.0
aF61051.0
aa(lp475
F61167.0
aF61136.0
aF61108.0
aa(lp476
F61438.0
aF60991.0
aF61070.0
aa(lp477
F61068.0
aF61292.0
aF61347.0
aa(lp478
F61268.0
aF61250.0
aF61249.0
aa(lp479
F61042.0
aF61029.0
aF61107.0
aa(lp480
F61058.0
aF61344.0
aF61308.0
aa(lp481
F61438.0
aF61098.0
aF61334.0
aa(lp482
F61120.0
aF61128.0
aF61227.0
aa(lp483
F60812.0
aF60946.0
aF61104.0
aa(lp484
F60838.0
aF61342.0
aasS'random_AggRedirections'
p485
(lp486
(lp487
F483.0
aF515.0
aF518.0
aa(lp488
F971.0
aF1008.0
aF1037.0
aa(lp489
F1447.0
aF1488.0
aF1491.0
aa(lp490
F1928.0
aF1919.0
aF1908.0
aa(lp491
F2313.0
aF2284.0
aF2245.0
aa(lp492
F2709.0
aF2658.0
aF2652.0
aa(lp493
F2990.0
aF3013.0
aF2957.0
aa(lp494
F3322.0
aF3335.0
aF3322.0
aa(lp495
F3605.0
aF3544.0
aF3513.0
aa(lp496
F3840.0
aF3749.0
aF3690.0
aa(lp497
F3927.0
aF3877.0
aF3740.0
aa(lp498
F3903.0
aF3936.0
aF3900.0
aa(lp499
F4094.0
aF3904.0
aF4153.0
aa(lp500
F4241.0
aF4181.0
aF4105.0
aa(lp501
F4131.0
aF4020.0
aF4227.0
aa(lp502
F4065.0
aF4060.0
aF4198.0
aa(lp503
F4162.0
aF4098.0
aF4033.0
aa(lp504
F3810.0
aF3993.0
aF3988.0
aa(lp505
F3572.0
aF3780.0
aF3771.0
aa(lp506
F3591.0
aF3718.0
aasS'single_CoreTotal'
p507
(lp508
(lp509
F60295.0
aF60278.0
aF60113.0
aa(lp510
F60868.0
aF60565.0
aF60793.0
aa(lp511
F61118.0
aF60970.0
aF60807.0
aa(lp512
F61396.0
aF61270.0
aF61313.0
aa(lp513
F61350.0
aF61317.0
aF61259.0
aa(lp514
F61603.0
aF61786.0
aF61661.0
aa(lp515
F62037.0
aF61858.0
aF61833.0
aa(lp516
F61918.0
aF61920.0
aF61638.0
aa(lp517
F62340.0
aF61866.0
aF62063.0
aa(lp518
F61956.0
aF62065.0
aF62208.0
aa(lp519
F61876.0
aF61939.0
aF62122.0
aa(lp520
F61853.0
aF62007.0
aF62076.0
aa(lp521
F61779.0
aF61917.0
aF61593.0
aa(lp522
F61914.0
aF61703.0
aF61863.0
aa(lp523
F61608.0
aF61727.0
aF61904.0
aa(lp524
F61396.0
aF61516.0
aF61713.0
aa(lp525
F61312.0
aF61458.0
aF61372.0
aa(lp526
F61278.0
aF61314.0
aF61289.0
aa(lp527
F61124.0
aF61033.0
aF61167.0
aa(lp528
F61138.0
aF61357.0
aF60607.0
aasS'minimum_CoreTotal'
p529
(lp530
(lp531
F60592.0
aF60463.0
aF60441.0
aa(lp532
F60955.0
aF60859.0
aF60862.0
aa(lp533
F61263.0
aF61341.0
aF61491.0
aa(lp534
F61483.0
aF61949.0
aF61807.0
aa(lp535
F62155.0
aF62041.0
aF62169.0
aa(lp536
F62257.0
aF62460.0
aF62336.0
aa(lp537
F62690.0
aF63064.0
aF62793.0
aa(lp538
F63010.0
aF63126.0
aF63046.0
aa(lp539
F63311.0
aF63058.0
aF63203.0
aa(lp540
F63417.0
aF63398.0
aF63414.0
aa(lp541
F63472.0
aF63432.0
aF63286.0
aa(lp542
F63798.0
aF63505.0
aF63584.0
aa(lp543
F63831.0
aF63602.0
aF63462.0
aa(lp544
F63852.0
aF63689.0
aF63722.0
aa(lp545
F63279.0
aF63727.0
aF63757.0
aa(lp546
F63435.0
aF63476.0
aF63598.0
aa(lp547
F63710.0
aF63751.0
aF63470.0
aa(lp548
F63693.0
aF63752.0
aF63616.0
aa(lp549
F63462.0
aF63487.0
aF63583.0
aa(lp550
F63447.0
aF63444.0
aF63430.0
aasS'random_EdgeTotal'
p551
(lp552
(lp553
F142967.0
aF142960.0
aF142912.0
aa(lp554
F143032.0
aF143188.0
aF143239.0
aa(lp555
F143221.0
aF143492.0
aF143133.0
aa(lp556
F143172.0
aF143431.0
aF143488.0
aa(lp557
F143562.0
aF143755.0
aF143794.0
aa(lp558
F143952.0
aF144340.0
aF144049.0
aa(lp559
F144329.0
aF143980.0
aF143884.0
aa(lp560
F144062.0
aF144128.0
aF144214.0
aa(lp561
F144397.0
aF144047.0
aF144337.0
aa(lp562
F144463.0
aF144617.0
aF144548.0
aa(lp563
F144764.0
aF144551.0
aF144691.0
aa(lp564
F144832.0
aF144664.0
aF144302.0
aa(lp565
F144515.0
aF144866.0
aF144524.0
aa(lp566
F144511.0
aF144536.0
aF144769.0
aa(lp567
F144248.0
aF144453.0
aF144682.0
aa(lp568
F144638.0
aF144798.0
aF144507.0
aa(lp569
F144844.0
aF144632.0
aF144860.0
aa(lp570
F144725.0
aF144616.0
aF144552.0
aa(lp571
F144018.0
aF144441.0
aF144749.0
aa(lp572
F144524.0
aF144668.0
aasS'random_EdgeRedirections'
p573
(lp574
(lp575
F37705.0
aF38015.0
aF38056.0
aa(lp576
F38266.0
aF37995.0
aF38018.0
aa(lp577
F38221.0
aF38104.0
aF38039.0
aa(lp578
F38175.0
aF38470.0
aF38528.0
aa(lp579
F38791.0
aF38551.0
aF38773.0
aa(lp580
F38940.0
aF39069.0
aF39370.0
aa(lp581
F39356.0
aF39309.0
aF38949.0
aa(lp582
F39317.0
aF39346.0
aF39218.0
aa(lp583
F39484.0
aF39498.0
aF39368.0
aa(lp584
F39731.0
aF39671.0
aF39602.0
aa(lp585
F39738.0
aF39563.0
aF39638.0
aa(lp586
F39930.0
aF39658.0
aF39618.0
aa(lp587
F39786.0
aF39961.0
aF39506.0
aa(lp588
F39861.0
aF39748.0
aF39629.0
aa(lp589
F39901.0
aF39757.0
aF39762.0
aa(lp590
F39648.0
aF39787.0
aF39526.0
aa(lp591
F39948.0
aF39717.0
aF39664.0
aa(lp592
F39617.0
aF39564.0
aF39463.0
aa(lp593
F39098.0
aF39504.0
aF39770.0
aa(lp594
F39457.0
aF39740.0
aas.