(dp0
S'single_NodeRedirections'
p1
(lp2
(lp3
F0.0
aF0.0
aF0.0
aa(lp4
F0.0
aF0.0
aF0.0
aa(lp5
F0.0
aF0.0
aF0.0
aa(lp6
F0.0
aF0.0
aF0.0
aa(lp7
F0.0
aF0.0
aF0.0
aa(lp8
F0.0
aF0.0
aF0.0
aa(lp9
F0.0
aF0.0
aF0.0
aa(lp10
F0.0
aF0.0
aF0.0
aa(lp11
F0.0
aF0.0
aF0.0
aa(lp12
F0.0
aF0.0
aF0.0
aa(lp13
F0.0
aF0.0
aF0.0
aa(lp14
F0.0
aF0.0
aF0.0
aa(lp15
F0.0
aF0.0
aF0.0
aa(lp16
F0.0
aF0.0
aF0.0
aa(lp17
F0.0
aF0.0
aF0.0
aa(lp18
F0.0
aF0.0
aF0.0
aa(lp19
F0.0
aF0.0
aF0.0
aa(lp20
F0.0
aF0.0
aF0.0
aa(lp21
F0.0
aF0.0
aF0.0
aa(lp22
F0.0
aF0.0
aF0.0
aasS'random_NodeTotal'
p23
(lp24
(lp25
F0.0
aF0.0
aF0.0
aa(lp26
F0.0
aF0.0
aF0.0
aa(lp27
F0.0
aF0.0
aF0.0
aa(lp28
F0.0
aF0.0
aF0.0
aa(lp29
F0.0
aF0.0
aF0.0
aa(lp30
F0.0
aF0.0
aF0.0
aa(lp31
F0.0
aF0.0
aF0.0
aa(lp32
F0.0
aF0.0
aF0.0
aa(lp33
F0.0
aF0.0
aF0.0
aa(lp34
F0.0
aF0.0
aF0.0
aa(lp35
F0.0
aF0.0
aF0.0
aa(lp36
F0.0
aF0.0
aF0.0
aa(lp37
F0.0
aF0.0
aF0.0
aa(lp38
F0.0
aF0.0
aF0.0
aa(lp39
F0.0
aF0.0
aF0.0
aa(lp40
F0.0
aF0.0
aF0.0
aa(lp41
F0.0
aF0.0
aF0.0
aa(lp42
F0.0
aF0.0
aF0.0
aa(lp43
F0.0
aF0.0
aF0.0
aa(lp44
F0.0
aF0.0
aF0.0
aasS'minimum_AggRedirections'
p45
(lp46
(lp47
F536.0
aF508.0
aF587.0
aa(lp48
F1021.0
aF993.0
aF1039.0
aa(lp49
F1493.0
aF1529.0
aF1538.0
aa(lp50
F1958.0
aF1948.0
aF2036.0
aa(lp51
F2454.0
aF2445.0
aF2458.0
aa(lp52
F2715.0
aF2759.0
aF2763.0
aa(lp53
F3156.0
aF3150.0
aF3119.0
aa(lp54
F3466.0
aF3403.0
aF3413.0
aa(lp55
F3666.0
aF3690.0
aF3776.0
aa(lp56
F3825.0
aF3868.0
aF3895.0
aa(lp57
F3857.0
aF3987.0
aF4017.0
aa(lp58
F4123.0
aF3938.0
aF4003.0
aa(lp59
F4037.0
aF4105.0
aF3974.0
aa(lp60
F4044.0
aF4105.0
aF4144.0
aa(lp61
F4050.0
aF4069.0
aF4114.0
aa(lp62
F4136.0
aF4003.0
aF4073.0
aa(lp63
F3990.0
aF3921.0
aF3925.0
aa(lp64
F3853.0
aF3918.0
aF3709.0
aa(lp65
F3803.0
aF3710.0
aF3698.0
aa(lp66
F3592.0
aF3478.0
aF3523.0
aasS'single_AggRedirections'
p67
(lp68
(lp69
F498.0
aF556.0
aF511.0
aa(lp70
F1009.0
aF1037.0
aF1004.0
aa(lp71
F1494.0
aF1456.0
aF1515.0
aa(lp72
F1942.0
aF1921.0
aF1853.0
aa(lp73
F2297.0
aF2243.0
aF2209.0
aa(lp74
F2577.0
aF2689.0
aF2566.0
aa(lp75
F3032.0
aF2975.0
aF2978.0
aa(lp76
F3259.0
aF3280.0
aF3260.0
aa(lp77
F3556.0
aF3436.0
aF3598.0
aa(lp78
F3638.0
aF3671.0
aF3629.0
aa(lp79
F3764.0
aF3849.0
aF3730.0
aa(lp80
F3924.0
aF3840.0
aF3783.0
aa(lp81
F3890.0
aF3977.0
aF3919.0
aa(lp82
F4021.0
aF3885.0
aF4064.0
aa(lp83
F3832.0
aF3939.0
aF3896.0
aa(lp84
F3942.0
aF3823.0
aF3857.0
aa(lp85
F3723.0
aF3848.0
aF3772.0
aa(lp86
F3507.0
aF3683.0
aF3638.0
aa(lp87
F3549.0
aF3541.0
aF3456.0
aa(lp88
F3471.0
aF3438.0
aF3453.0
aasS'minimum_NodeRedirections'
p89
(lp90
(lp91
F0.0
aF0.0
aF0.0
aa(lp92
F0.0
aF0.0
aF0.0
aa(lp93
F0.0
aF0.0
aF0.0
aa(lp94
F0.0
aF0.0
aF0.0
aa(lp95
F0.0
aF0.0
aF0.0
aa(lp96
F0.0
aF0.0
aF0.0
aa(lp97
F0.0
aF0.0
aF0.0
aa(lp98
F0.0
aF0.0
aF0.0
aa(lp99
F0.0
aF0.0
aF0.0
aa(lp100
F0.0
aF0.0
aF0.0
aa(lp101
F0.0
aF0.0
aF0.0
aa(lp102
F0.0
aF0.0
aF0.0
aa(lp103
F0.0
aF0.0
aF0.0
aa(lp104
F0.0
aF0.0
aF0.0
aa(lp105
F0.0
aF0.0
aF0.0
aa(lp106
F0.0
aF0.0
aF0.0
aa(lp107
F0.0
aF0.0
aF0.0
aa(lp108
F0.0
aF0.0
aF0.0
aa(lp109
F0.0
aF0.0
aF0.0
aa(lp110
F0.0
aF0.0
aF0.0
aasS'random_x'
p111
(lp112
(lp113
I5
aI5
aI5
aa(lp114
I10
aI10
aI10
aa(lp115
I15
aI15
aI15
aa(lp116
I20
aI20
aI20
aa(lp117
I25
aI25
aI25
aa(lp118
I30
aI30
aI30
aa(lp119
I35
aI35
aI35
aa(lp120
I40
aI40
aI40
aa(lp121
I45
aI45
aI45
aa(lp122
I50
aI50
aI50
aa(lp123
I55
aI55
aI55
aa(lp124
I60
aI60
aI60
aa(lp125
I65
aI65
aI65
aa(lp126
I70
aI70
aI70
aa(lp127
I75
aI75
aI75
aa(lp128
I80
aI80
aI80
aa(lp129
I85
aI85
aI85
aa(lp130
I90
aI90
aI90
aa(lp131
I95
aI95
aI95
aa(lp132
I100
aI100
aI100
aasS'minimum_x'
p133
(lp134
(lp135
I5
aI5
aI5
aa(lp136
I10
aI10
aI10
aa(lp137
I15
aI15
aI15
aa(lp138
I20
aI20
aI20
aa(lp139
I25
aI25
aI25
aa(lp140
I30
aI30
aI30
aa(lp141
I35
aI35
aI35
aa(lp142
I40
aI40
aI40
aa(lp143
I45
aI45
aI45
aa(lp144
I50
aI50
aI50
aa(lp145
I55
aI55
aI55
aa(lp146
I60
aI60
aI60
aa(lp147
I65
aI65
aI65
aa(lp148
I70
aI70
aI70
aa(lp149
I75
aI75
aI75
aa(lp150
I80
aI80
aI80
aa(lp151
I85
aI85
aI85
aa(lp152
I90
aI90
aI90
aa(lp153
I95
aI95
aI95
aa(lp154
I100
aI100
aI100
aasS'single_x'
p155
(lp156
(lp157
I5
aI5
aI5
aa(lp158
I10
aI10
aI10
aa(lp159
I15
aI15
aI15
aa(lp160
I20
aI20
aI20
aa(lp161
I25
aI25
aI25
aa(lp162
I30
aI30
aI30
aa(lp163
I35
aI35
aI35
aa(lp164
I40
aI40
aI40
aa(lp165
I45
aI45
aI45
aa(lp166
I50
aI50
aI50
aa(lp167
I55
aI55
aI55
aa(lp168
I60
aI60
aI60
aa(lp169
I65
aI65
aI65
aa(lp170
I70
aI70
aI70
aa(lp171
I75
aI75
aI75
aa(lp172
I80
aI80
aI80
aa(lp173
I85
aI85
aI85
aa(lp174
I90
aI90
aI90
aa(lp175
I95
aI95
aI95
aa(lp176
I100
aI100
aI100
aasS'random_NodeRedirections'
p177
(lp178
(lp179
F0.0
aF0.0
aF0.0
aa(lp180
F0.0
aF0.0
aF0.0
aa(lp181
F0.0
aF0.0
aF0.0
aa(lp182
F0.0
aF0.0
aF0.0
aa(lp183
F0.0
aF0.0
aF0.0
aa(lp184
F0.0
aF0.0
aF0.0
aa(lp185
F0.0
aF0.0
aF0.0
aa(lp186
F0.0
aF0.0
aF0.0
aa(lp187
F0.0
aF0.0
aF0.0
aa(lp188
F0.0
aF0.0
aF0.0
aa(lp189
F0.0
aF0.0
aF0.0
aa(lp190
F0.0
aF0.0
aF0.0
aa(lp191
F0.0
aF0.0
aF0.0
aa(lp192
F0.0
aF0.0
aF0.0
aa(lp193
F0.0
aF0.0
aF0.0
aa(lp194
F0.0
aF0.0
aF0.0
aa(lp195
F0.0
aF0.0
aF0.0
aa(lp196
F0.0
aF0.0
aF0.0
aa(lp197
F0.0
aF0.0
aF0.0
aa(lp198
F0.0
aF0.0
aF0.0
aasS'minimum_EdgeTotal'
p199
(lp200
(lp201
F145305.0
aF145034.0
aF145052.0
aa(lp202
F145507.0
aF145449.0
aF145431.0
aa(lp203
F145667.0
aF145696.0
aF145637.0
aa(lp204
F145878.0
aF145673.0
aF145828.0
aa(lp205
F145840.0
aF146299.0
aF146016.0
aa(lp206
F146444.0
aF146199.0
aF146282.0
aa(lp207
F146527.0
aF146565.0
aF146544.0
aa(lp208
F147185.0
aF146668.0
aF146573.0
aa(lp209
F147017.0
aF146643.0
aF146439.0
aa(lp210
F146875.0
aF147023.0
aF146731.0
aa(lp211
F146693.0
aF146855.0
aF147013.0
aa(lp212
F146832.0
aF147099.0
aF146953.0
aa(lp213
F147056.0
aF146694.0
aF146840.0
aa(lp214
F146944.0
aF146976.0
aF147069.0
aa(lp215
F146943.0
aF147007.0
aF147266.0
aa(lp216
F146922.0
aF146641.0
aF146703.0
aa(lp217
F146919.0
aF147096.0
aF146801.0
aa(lp218
F146712.0
aF146742.0
aF146579.0
aa(lp219
F146755.0
aF146987.0
aF146635.0
aa(lp220
F146752.0
aF146584.0
aF146617.0
aasS'minimum_NodeTotal'
p221
(lp222
(lp223
F0.0
aF0.0
aF0.0
aa(lp224
F0.0
aF0.0
aF0.0
aa(lp225
F0.0
aF0.0
aF0.0
aa(lp226
F0.0
aF0.0
aF0.0
aa(lp227
F0.0
aF0.0
aF0.0
aa(lp228
F0.0
aF0.0
aF0.0
aa(lp229
F0.0
aF0.0
aF0.0
aa(lp230
F0.0
aF0.0
aF0.0
aa(lp231
F0.0
aF0.0
aF0.0
aa(lp232
F0.0
aF0.0
aF0.0
aa(lp233
F0.0
aF0.0
aF0.0
aa(lp234
F0.0
aF0.0
aF0.0
aa(lp235
F0.0
aF0.0
aF0.0
aa(lp236
F0.0
aF0.0
aF0.0
aa(lp237
F0.0
aF0.0
aF0.0
aa(lp238
F0.0
aF0.0
aF0.0
aa(lp239
F0.0
aF0.0
aF0.0
aa(lp240
F0.0
aF0.0
aF0.0
aa(lp241
F0.0
aF0.0
aF0.0
aa(lp242
F0.0
aF0.0
aF0.0
aasS'single_NodeTotal'
p243
(lp244
(lp245
F0.0
aF0.0
aF0.0
aa(lp246
F0.0
aF0.0
aF0.0
aa(lp247
F0.0
aF0.0
aF0.0
aa(lp248
F0.0
aF0.0
aF0.0
aa(lp249
F0.0
aF0.0
aF0.0
aa(lp250
F0.0
aF0.0
aF0.0
aa(lp251
F0.0
aF0.0
aF0.0
aa(lp252
F0.0
aF0.0
aF0.0
aa(lp253
F0.0
aF0.0
aF0.0
aa(lp254
F0.0
aF0.0
aF0.0
aa(lp255
F0.0
aF0.0
aF0.0
aa(lp256
F0.0
aF0.0
aF0.0
aa(lp257
F0.0
aF0.0
aF0.0
aa(lp258
F0.0
aF0.0
aF0.0
aa(lp259
F0.0
aF0.0
aF0.0
aa(lp260
F0.0
aF0.0
aF0.0
aa(lp261
F0.0
aF0.0
aF0.0
aa(lp262
F0.0
aF0.0
aF0.0
aa(lp263
F0.0
aF0.0
aF0.0
aa(lp264
F0.0
aF0.0
aF0.0
aasS'single_AggTotal'
p265
(lp266
(lp267
F130377.0
aF130494.0
aF130430.0
aa(lp268
F131055.0
aF130977.0
aF130854.0
aa(lp269
F131391.0
aF131410.0
aF131313.0
aa(lp270
F131712.0
aF131708.0
aF131860.0
aa(lp271
F132287.0
aF132005.0
aF132087.0
aa(lp272
F131890.0
aF132367.0
aF132187.0
aa(lp273
F132748.0
aF132483.0
aF132399.0
aa(lp274
F132933.0
aF132689.0
aF132469.0
aa(lp275
F132505.0
aF132259.0
aF132369.0
aa(lp276
F132250.0
aF132446.0
aF132418.0
aa(lp277
F132820.0
aF132578.0
aF132695.0
aa(lp278
F131902.0
aF132740.0
aF132081.0
aa(lp279
F132078.0
aF132337.0
aF132255.0
aa(lp280
F132097.0
aF131575.0
aF132050.0
aa(lp281
F131630.0
aF131749.0
aF131550.0
aa(lp282
F130966.0
aF131221.0
aF131671.0
aa(lp283
F131008.0
aF131158.0
aF131179.0
aa(lp284
F130801.0
aF130608.0
aF130687.0
aa(lp285
F130014.0
aF130594.0
aF130118.0
aa(lp286
F130212.0
aF129982.0
aF130624.0
aasS'minimum_AggTotal'
p287
(lp288
(lp289
F130942.0
aF130468.0
aF130662.0
aa(lp290
F131809.0
aF131418.0
aF131236.0
aa(lp291
F131884.0
aF131969.0
aF131888.0
aa(lp292
F132709.0
aF132628.0
aF132480.0
aa(lp293
F132660.0
aF133413.0
aF132917.0
aa(lp294
F134015.0
aF133382.0
aF133656.0
aa(lp295
F134429.0
aF134069.0
aF134482.0
aa(lp296
F135242.0
aF134518.0
aF134517.0
aa(lp297
F135213.0
aF134767.0
aF134765.0
aa(lp298
F135516.0
aF135382.0
aF135025.0
aa(lp299
F135035.0
aF135264.0
aF135634.0
aa(lp300
F135359.0
aF135471.0
aF135602.0
aa(lp301
F135632.0
aF135217.0
aF135578.0
aa(lp302
F135263.0
aF135677.0
aF135624.0
aa(lp303
F135401.0
aF135582.0
aF136161.0
aa(lp304
F135507.0
aF135028.0
aF135073.0
aa(lp305
F135303.0
aF135762.0
aF135056.0
aa(lp306
F134904.0
aF135264.0
aF134807.0
aa(lp307
F134968.0
aF135273.0
aF134793.0
aa(lp308
F134901.0
aF134701.0
aF134640.0
aasS'minimum_CoreRedirections'
p309
(lp310
(lp311
F268.0
aF233.0
aF263.0
aa(lp312
F484.0
aF514.0
aF458.0
aa(lp313
F662.0
aF702.0
aF661.0
aa(lp314
F908.0
aF908.0
aF872.0
aa(lp315
F1137.0
aF1081.0
aF1113.0
aa(lp316
F1222.0
aF1242.0
aF1334.0
aa(lp317
F1447.0
aF1472.0
aF1415.0
aa(lp318
F1513.0
aF1565.0
aF1597.0
aa(lp319
F1656.0
aF1745.0
aF1790.0
aa(lp320
F1790.0
aF1749.0
aF1766.0
aa(lp321
F1903.0
aF1867.0
aF1813.0
aa(lp322
F1934.0
aF1896.0
aF1805.0
aa(lp323
F1832.0
aF1949.0
aF1831.0
aa(lp324
F1920.0
aF1937.0
aF1964.0
aa(lp325
F1883.0
aF1966.0
aF1873.0
aa(lp326
F1898.0
aF1847.0
aF1857.0
aa(lp327
F1799.0
aF1870.0
aF1846.0
aa(lp328
F1776.0
aF1701.0
aF1774.0
aa(lp329
F1719.0
aF1662.0
aF1748.0
aa(lp330
F1637.0
aF1575.0
aF1605.0
aasS'minimum_EdgeRedirections'
p331
(lp332
(lp333
F673.0
aF629.0
aF618.0
aa(lp334
F1136.0
aF1154.0
aF1167.0
aa(lp335
F1765.0
aF1679.0
aF1719.0
aa(lp336
F2221.0
aF2276.0
aF2172.0
aa(lp337
F2748.0
aF2676.0
aF2686.0
aa(lp338
F3111.0
aF3067.0
aF3061.0
aa(lp339
F3459.0
aF3427.0
aF3535.0
aa(lp340
F3849.0
aF3846.0
aF3768.0
aa(lp341
F4083.0
aF4109.0
aF4139.0
aa(lp342
F4298.0
aF4335.0
aF4181.0
aa(lp343
F4423.0
aF4373.0
aF4275.0
aa(lp344
F4327.0
aF4430.0
aF4634.0
aa(lp345
F4607.0
aF4664.0
aF4669.0
aa(lp346
F4597.0
aF4624.0
aF4529.0
aa(lp347
F4551.0
aF4663.0
aF4670.0
aa(lp348
F4552.0
aF4290.0
aF4415.0
aa(lp349
F4397.0
aF4485.0
aF4340.0
aa(lp350
F4214.0
aF4209.0
aF4290.0
aa(lp351
F4059.0
aF4080.0
aF4018.0
aa(lp352
F4023.0
aF3937.0
aF3929.0
aasS'single_EdgeTotal'
p353
(lp354
(lp355
F144967.0
aF145069.0
aF145001.0
aa(lp356
F145344.0
aF145186.0
aF145167.0
aa(lp357
F145421.0
aF145448.0
aF145279.0
aa(lp358
F145485.0
aF145521.0
aF145534.0
aa(lp359
F145744.0
aF145554.0
aF145569.0
aa(lp360
F145305.0
aF145712.0
aF145573.0
aa(lp361
F145795.0
aF145580.0
aF145618.0
aa(lp362
F145878.0
aF145719.0
aF145481.0
aa(lp363
F145589.0
aF145462.0
aF145466.0
aa(lp364
F145367.0
aF145546.0
aF145467.0
aa(lp365
F145613.0
aF145440.0
aF145525.0
aa(lp366
F145137.0
aF145532.0
aF145280.0
aa(lp367
F145378.0
aF145280.0
aF145401.0
aa(lp368
F145312.0
aF145162.0
aF145175.0
aa(lp369
F145088.0
aF145239.0
aF145092.0
aa(lp370
F144698.0
aF144811.0
aF145128.0
aa(lp371
F144669.0
aF144756.0
aF144774.0
aa(lp372
F144782.0
aF144687.0
aF144559.0
aa(lp373
F144252.0
aF144545.0
aF144305.0
aa(lp374
F144455.0
aF144237.0
aF144782.0
aasS'random_CoreRedirections'
p375
(lp376
(lp377
F278.0
aF253.0
aF227.0
aa(lp378
F458.0
aF453.0
aF455.0
aa(lp379
F657.0
aF692.0
aF721.0
aa(lp380
F798.0
aF923.0
aF890.0
aa(lp381
F1005.0
aF1055.0
aF1058.0
aa(lp382
F1234.0
aF1190.0
aF1208.0
aa(lp383
F1443.0
aF1420.0
aF1339.0
aa(lp384
F1487.0
aF1507.0
aF1468.0
aa(lp385
F1648.0
aF1643.0
aF1648.0
aa(lp386
F1624.0
aF1662.0
aF1783.0
aa(lp387
F1745.0
aF1787.0
aF1748.0
aa(lp388
F1790.0
aF1857.0
aF1836.0
aa(lp389
F1826.0
aF1835.0
aF1720.0
aa(lp390
F1844.0
aF1888.0
aF1907.0
aa(lp391
F1767.0
aF1829.0
aF1815.0
aa(lp392
F1843.0
aF1752.0
aF1793.0
aa(lp393
F1761.0
aF1770.0
aF1709.0
aa(lp394
F1660.0
aF1682.0
aF1769.0
aa(lp395
F1591.0
aF1687.0
aF1629.0
aa(lp396
F1598.0
aF1572.0
aF1649.0
aasS'single_EdgeRedirections'
p397
(lp398
(lp399
F2118.0
aF2054.0
aF2127.0
aa(lp400
F4274.0
aF4263.0
aF4284.0
aa(lp401
F6348.0
aF6319.0
aF6331.0
aa(lp402
F8545.0
aF8645.0
aF8581.0
aa(lp403
F10656.0
aF10629.0
aF10587.0
aa(lp404
F12823.0
aF12897.0
aF12773.0
aa(lp405
F15065.0
aF14901.0
aF15290.0
aa(lp406
F17236.0
aF17428.0
aF17178.0
aa(lp407
F19870.0
aF19674.0
aF19599.0
aa(lp408
F22179.0
aF22357.0
aF21934.0
aa(lp409
F24222.0
aF24248.0
aF24230.0
aa(lp410
F26536.0
aF26584.0
aF26271.0
aa(lp411
F28501.0
aF28132.0
aF28276.0
aa(lp412
F30252.0
aF30306.0
aF30292.0
aa(lp413
F31974.0
aF31938.0
aF31736.0
aa(lp414
F33910.0
aF33524.0
aF34103.0
aa(lp415
F35285.0
aF35426.0
aF35046.0
aa(lp416
F36774.0
aF36954.0
aF36775.0
aa(lp417
F37892.0
aF38122.0
aF38153.0
aa(lp418
F38931.0
aF39157.0
aF39214.0
aasS'single_CoreRedirections'
p419
(lp420
(lp421
F224.0
aF199.0
aF268.0
aa(lp422
F477.0
aF428.0
aF454.0
aa(lp423
F691.0
aF653.0
aF636.0
aa(lp424
F866.0
aF891.0
aF961.0
aa(lp425
F1027.0
aF1016.0
aF997.0
aa(lp426
F1243.0
aF1215.0
aF1216.0
aa(lp427
F1314.0
aF1359.0
aF1346.0
aa(lp428
F1540.0
aF1466.0
aF1499.0
aa(lp429
F1622.0
aF1587.0
aF1636.0
aa(lp430
F1705.0
aF1700.0
aF1736.0
aa(lp431
F1841.0
aF1751.0
aF1750.0
aa(lp432
F1704.0
aF1865.0
aF1819.0
aa(lp433
F1862.0
aF1876.0
aF1847.0
aa(lp434
F1851.0
aF1816.0
aF1858.0
aa(lp435
F1831.0
aF1827.0
aF1808.0
aa(lp436
F1814.0
aF1782.0
aF1830.0
aa(lp437
F1693.0
aF1727.0
aF1721.0
aa(lp438
F1686.0
aF1678.0
aF1669.0
aa(lp439
F1637.0
aF1574.0
aF1589.0
aa(lp440
F1567.0
aF1531.0
aF1589.0
aasS'random_AggTotal'
p441
(lp442
(lp443
F125633.0
aF125883.0
aF125797.0
aa(lp444
F126490.0
aF126778.0
aF126640.0
aa(lp445
F127059.0
aF127529.0
aF127140.0
aa(lp446
F127756.0
aF127484.0
aF127810.0
aa(lp447
F128248.0
aF128248.0
aF128548.0
aa(lp448
F128980.0
aF128439.0
aF129135.0
aa(lp449
F129300.0
aF129254.0
aF129275.0
aa(lp450
F129758.0
aF129756.0
aF129527.0
aa(lp451
F129857.0
aF129805.0
aF130110.0
aa(lp452
F130337.0
aF130542.0
aF130465.0
aa(lp453
F130261.0
aF130652.0
aF130135.0
aa(lp454
F130613.0
aF130543.0
aF130503.0
aa(lp455
F130775.0
aF130834.0
aF130619.0
aa(lp456
F130951.0
aF130487.0
aF130381.0
aa(lp457
F130820.0
aF130625.0
aF130651.0
aa(lp458
F130673.0
aF130751.0
aF130986.0
aa(lp459
F130710.0
aF130497.0
aF130813.0
aa(lp460
F130389.0
aF130132.0
aF130821.0
aa(lp461
F130047.0
aF130013.0
aF129670.0
aa(lp462
F130386.0
aF129971.0
aF129940.0
aasS'random_CoreTotal'
p463
(lp464
(lp465
F57907.0
aF58064.0
aF58120.0
aa(lp466
F58454.0
aF58649.0
aF58567.0
aa(lp467
F58743.0
aF59104.0
aF58861.0
aa(lp468
F59259.0
aF59094.0
aF59229.0
aa(lp469
F59593.0
aF59538.0
aF59664.0
aa(lp470
F59976.0
aF59666.0
aF60178.0
aa(lp471
F60264.0
aF60156.0
aF60168.0
aa(lp472
F60589.0
aF60489.0
aF60335.0
aa(lp473
F60529.0
aF60558.0
aF60788.0
aa(lp474
F60891.0
aF60971.0
aF60972.0
aa(lp475
F60875.0
aF61062.0
aF60801.0
aa(lp476
F60979.0
aF60969.0
aF60946.0
aa(lp477
F61144.0
aF61240.0
aF61122.0
aa(lp478
F61235.0
aF61005.0
aF60917.0
aa(lp479
F61151.0
aF61047.0
aF61019.0
aa(lp480
F61200.0
aF61094.0
aF61226.0
aa(lp481
F61181.0
aF60958.0
aF61192.0
aa(lp482
F60892.0
aF60646.0
aF61115.0
aa(lp483
F60733.0
aF60752.0
aF60480.0
aa(lp484
F60869.0
aF60690.0
aF60690.0
aasS'random_AggRedirections'
p485
(lp486
(lp487
F510.0
aF497.0
aF540.0
aa(lp488
F1026.0
aF1011.0
aF1008.0
aa(lp489
F1441.0
aF1453.0
aF1520.0
aa(lp490
F1982.0
aF1893.0
aF1827.0
aa(lp491
F2394.0
aF2354.0
aF2349.0
aa(lp492
F2634.0
aF2703.0
aF2708.0
aa(lp493
F3008.0
aF2919.0
aF2921.0
aa(lp494
F3313.0
aF3253.0
aF3254.0
aa(lp495
F3554.0
aF3484.0
aF3554.0
aa(lp496
F3775.0
aF3669.0
aF3687.0
aa(lp497
F3858.0
aF3822.0
aF3767.0
aa(lp498
F3881.0
aF3879.0
aF3857.0
aa(lp499
F3891.0
aF4037.0
aF3972.0
aa(lp500
F4052.0
aF3884.0
aF3929.0
aa(lp501
F3927.0
aF3952.0
aF3912.0
aa(lp502
F3949.0
aF3875.0
aF3881.0
aa(lp503
F3928.0
aF3847.0
aF3817.0
aa(lp504
F3707.0
aF3716.0
aF3693.0
aa(lp505
F3549.0
aF3518.0
aF3491.0
aa(lp506
F3489.0
aF3554.0
aF3443.0
aasS'single_CoreTotal'
p507
(lp508
(lp509
F60244.0
aF60384.0
aF60342.0
aa(lp510
F60748.0
aF60709.0
aF60636.0
aa(lp511
F60940.0
aF61015.0
aF60965.0
aa(lp512
F61239.0
aF61188.0
aF61330.0
aa(lp513
F61624.0
aF61456.0
aF61471.0
aa(lp514
F61490.0
aF61680.0
aF61599.0
aa(lp515
F61994.0
aF61821.0
aF61771.0
aa(lp516
F62091.0
aF61979.0
aF61943.0
aa(lp517
F61914.0
aF61781.0
aF61869.0
aa(lp518
F61823.0
aF61855.0
aF61932.0
aa(lp519
F62202.0
aF62082.0
aF62183.0
aa(lp520
F61672.0
aF62209.0
aF61774.0
aa(lp521
F61785.0
aF61973.0
aF61841.0
aa(lp522
F61805.0
aF61566.0
aF61864.0
aa(lp523
F61557.0
aF61616.0
aF61450.0
aa(lp524
F61193.0
aF61311.0
aF61555.0
aa(lp525
F61251.0
aF61354.0
aF61385.0
aa(lp526
F61069.0
aF60953.0
aF61079.0
aa(lp527
F60700.0
aF61065.0
aF60764.0
aa(lp528
F60774.0
aF60681.0
aF60985.0
aasS'minimum_CoreTotal'
p529
(lp530
(lp531
F60630.0
aF60349.0
aF60483.0
aa(lp532
F61277.0
aF60949.0
aF60791.0
aa(lp533
F61173.0
aF61235.0
aF61195.0
aa(lp534
F61788.0
aF61750.0
aF61606.0
aa(lp535
F61732.0
aF62179.0
aF61885.0
aa(lp536
F62598.0
aF62122.0
aF62356.0
aa(lp537
F62841.0
aF62534.0
aF62900.0
aa(lp538
F63251.0
aF62858.0
aF62919.0
aa(lp539
F63285.0
aF63106.0
aF63156.0
aa(lp540
F63532.0
aF63428.0
aF63240.0
aa(lp541
F63261.0
aF63360.0
aF63583.0
aa(lp542
F63487.0
aF63485.0
aF63554.0
aa(lp543
F63596.0
aF63397.0
aF63587.0
aa(lp544
F63283.0
aF63646.0
aF63558.0
aa(lp545
F63434.0
aF63565.0
aF63872.0
aa(lp546
F63524.0
aF63245.0
aF63299.0
aa(lp547
F63399.0
aF63705.0
aF63240.0
aa(lp548
F63169.0
aF63431.0
aF63078.0
aa(lp549
F63217.0
aF63335.0
aF63078.0
aa(lp550
F63158.0
aF63048.0
aF62965.0
aasS'random_EdgeTotal'
p551
(lp552
(lp553
F142741.0
aF142785.0
aF142672.0
aa(lp554
F143080.0
aF143192.0
aF143117.0
aa(lp555
F143505.0
aF143538.0
aF143179.0
aa(lp556
F143372.0
aF143424.0
aF143568.0
aa(lp557
F143550.0
aF143732.0
aF143938.0
aa(lp558
F144083.0
aF143733.0
aF143964.0
aa(lp559
F144024.0
aF144152.0
aF144117.0
aa(lp560
F144065.0
aF144389.0
aF144097.0
aa(lp561
F144429.0
aF144216.0
aF144359.0
aa(lp562
F144426.0
aF144700.0
aF144399.0
aa(lp563
F144446.0
aF144587.0
aF144312.0
aa(lp564
F144652.0
aF144575.0
aF144569.0
aa(lp565
F144625.0
aF144607.0
aF144425.0
aa(lp566
F144846.0
aF144430.0
aF144559.0
aa(lp567
F144672.0
aF144585.0
aF144593.0
aa(lp568
F144528.0
aF144713.0
aF144696.0
aa(lp569
F144446.0
aF144442.0
aF144544.0
aa(lp570
F144470.0
aF144564.0
aF144690.0
aa(lp571
F144459.0
aF144170.0
aF144084.0
aa(lp572
F144691.0
aF144170.0
aF144257.0
aasS'random_EdgeRedirections'
p573
(lp574
(lp575
F37766.0
aF37770.0
aF37868.0
aa(lp576
F38105.0
aF38112.0
aF38068.0
aa(lp577
F38630.0
aF38200.0
aF37944.0
aa(lp578
F38351.0
aF38603.0
aF38374.0
aa(lp579
F38809.0
aF38847.0
aF38916.0
aa(lp580
F38899.0
aF38990.0
aF38639.0
aa(lp581
F38985.0
aF39127.0
aF39380.0
aa(lp582
F39261.0
aF39293.0
aF39614.0
aa(lp583
F39516.0
aF39480.0
aF39505.0
aa(lp584
F39492.0
aF39625.0
aF39331.0
aa(lp585
F39828.0
aF39557.0
aF39828.0
aa(lp586
F40040.0
aF39564.0
aF39686.0
aa(lp587
F39612.0
aF39689.0
aF39414.0
aa(lp588
F39582.0
aF39486.0
aF39672.0
aa(lp589
F39755.0
aF39565.0
aF39736.0
aa(lp590
F39772.0
aF39804.0
aF39492.0
aa(lp591
F39200.0
aF39524.0
aF39424.0
aa(lp592
F39615.0
aF39569.0
aF39783.0
aa(lp593
F39585.0
aF39362.0
aF39503.0
aa(lp594
F39868.0
aF39400.0
aF39687.0
aas.