(dp0
S'single_99'
p1
(lp2
(lp3
F115.18088800000001
aF115.0829636
aF115.01112800000001
aa(lp4
F122.28666049999998
aF122.2031884
aF122.18745810000001
aa(lp5
F127.18703280000001
aF126.7454177
aF126.49284
aa(lp6
F129.93699660000001
aF130.3453696
aF130.1399584
aa(lp7
F137.2614698
aF135.6703646
aF134.7370268
aa(lp8
F148.2914658
aF146.669554
aF148.4675336
aa(lp9
F156.7854502
aF158.74333599999997
aF157.974793
aa(lp10
F163.85298170000002
aF163.6862585
aF164.59474360000002
aa(lp11
F170.59776680000002
aF169.56386380000004
aF170.21976690000002
aa(lp12
F179.4037636
aF179.088045
aF178.01303600000003
aa(lp13
F192.7797681
aF190.78258
aF191.06898499999997
aa(lp14
F203.318485
aF207.325933
aF204.6795788
aa(lp15
F225.1883062
aF222.37139829999998
aF220.1954265
aa(lp16
F242.51804800000005
aF242.84857749999998
aF243.15451000000002
aa(lp17
F276.1904674
aF276.5821026
aF268.22166769999995
aa(lp18
F316.727464
aF305.7776566
aF329.28082679999994
aa(lp19
F410.94552020000003
aF395.9523476
aF385.6092565
aa(lp20
F599.8098425
aF639.3194838000001
aF540.271107
aa(lp21
F1516.7217162
aF4260.578511
aF1477.0302047999996
aa(lp22
F6164.8992592
aF10174.8413136
aF6285.985957700001
aasS'minimum_50'
p23
(lp24
(lp25
F75.32160319999998
aF75.4119096
aF75.23553659999999
aa(lp26
F75.55469289999999
aF75.55560080000001
aF75.40480299999999
aa(lp27
F75.76489409999999
aF75.8660688
aF75.7412694
aa(lp28
F76.1001
aF76.0728406
aF76.1017596
aa(lp29
F76.34971039999999
aF76.3106402
aF76.33933449999999
aa(lp30
F76.7103173
aF76.8470892
aF76.7613695
aa(lp31
F77.0199104
aF77.1608068
aF77.2563164
aa(lp32
F77.753626
aF77.6705592
aF77.66313
aa(lp33
F78.33885180000001
aF78.2197749
aF78.393179
aa(lp34
F79.16659999999999
aF79.2199932
aF78.96853730000001
aa(lp35
F80.03986079999999
aF79.9729312
aF80.1690718
aa(lp36
F81.6334153
aF81.4769435
aF81.5712966
aa(lp37
F83.68063000000001
aF84.0210731
aF83.84505
aa(lp38
F88.1807556
aF88.7332834
aF88.65976599999999
aa(lp39
F99.5609038
aF98.8986361
aF98.22156519999999
aa(lp40
F110.55628800000001
aF109.3472895
aF109.95810900000001
aa(lp41
F122.76123059999999
aF121.89931299999998
aF122.69863509999999
aa(lp42
F152.1590288
aF151.2119334
aF151.3289676
aa(lp43
F219.282258
aF230.11576319999998
aF217.7836823
aa(lp44
F1120.4881998
aF1023.306422
aF847.0571244999999
aasS'random_99'
p45
(lp46
(lp47
F113.74340799999999
aF114.2806472
aF113.8682335
aa(lp48
F122.21971849999998
aF122.0331894
aF122.30332080000001
aa(lp49
F126.14386950000001
aF126.61716779999999
aF126.25298110000001
aa(lp50
F130.8232674
aF130.172132
aF129.9999264
aa(lp51
F135.0028079
aF134.7502801
aF135.30936499999999
aa(lp52
F147.496376
aF147.62197099999997
aF148.5709286
aa(lp53
F156.91686299999998
aF158.2650355
aF156.598904
aa(lp54
F163.8776799
aF164.69036
aF164.03930089999997
aa(lp55
F171.33436740000002
aF171.1211384
aF170.7112885
aa(lp56
F177.7868022
aF178.28437760000003
aF179.10884200000004
aa(lp57
F192.87121380000002
aF193.01030400000002
aF189.884647
aa(lp58
F209.63341080000004
aF203.43462200000002
aF205.15846799999997
aa(lp59
F219.29367840000003
aF216.9005736
aF218.87707179999998
aa(lp60
F244.47496660000002
aF244.6278304
aF241.1615411
aa(lp61
F273.6520424
aF282.3622576
aF275.8637968
aa(lp62
F309.168452
aF320.90015100000005
aF322.71481800000004
aa(lp63
F401.88464250000004
aF383.9132252
aF418.1668759
aa(lp64
F0.0
aF573.3969999999999
aF683.9093760000001
aa(lp65
F1277.7350143
aF1070.7458299
aF2563.0634188999998
aa(lp66
F8748.847029
aF9949.8372424
aF7609.4913052
aasS'random_soj_95'
p67
(lp68
(lp69
F74.88239999999999
aF76.045
aF74.273
aa(lp70
F81.01150000000001
aF80.0955
aF77.9598
aa(lp71
F93.7324
aF95.63730000000001
aF93.945
aa(lp72
F100.864
aF102.3236
aF96.73100000000001
aa(lp73
F105.8335
aF103.3744
aF102.19600000000001
aa(lp74
F108.3372
aF107.5072
aF107.8696
aa(lp75
F111.4965
aF115.848
aF117.9655
aa(lp76
F116.6126
aF121.0018
aF122.01440000000001
aa(lp77
F127.4972
aF119.425
aF120.8576
aa(lp78
F129.09640000000002
aF129.2576
aF129.6366
aa(lp79
F142.7208
aF147.39749999999998
aF141.09550000000002
aa(lp80
F149.096
aF145.66
aF148.8752
aa(lp81
F158.33450000000002
aF157.7302
aF162.4144
aa(lp82
F174.0008
aF173.51520000000002
aF174.4101
aa(lp83
F196.0796
aF204.4452
aF197.1104
aa(lp84
F221.29340000000002
aF225.6978
aF220.452
aa(lp85
F279.91499999999996
aF269.6272
aF288.053
aa(lp86
F0.0
aF401.332
aF427.8504
aa(lp87
F837.9725000000001
aF754.9448
aF1866.782
aa(lp88
F6185.259
aF5642.9839999999995
aF6623.411599999999
aasS'single_soj_95'
p89
(lp90
(lp91
F75.4695
aF75.031
aF74.636
aa(lp92
F78.6905
aF78.2522
aF82.336
aa(lp93
F95.3075
aF95.33250000000001
aF97.1463
aa(lp94
F98.4292
aF101.04480000000001
aF99.73280000000001
aa(lp95
F103.833
aF104.18560000000001
aF104.1114
aa(lp96
F108.6388
aF102.1374
aF107.86
aa(lp97
F109.49300000000001
aF113.1499
aF112.5145
aa(lp98
F116.4552
aF116.2628
aF113.255
aa(lp99
F119.9624
aF118.4567
aF119.96079999999999
aa(lp100
F128.63060000000002
aF128.7202
aF128.7704
aa(lp101
F145.7088
aF139.0308
aF139.976
aa(lp102
F148.9384
aF152.4348
aF147.73450000000003
aa(lp103
F166.2108
aF156.12800000000001
aF158.122
aa(lp104
F182.2712
aF174.766
aF175.53799999999998
aa(lp105
F195.68959999999998
aF206.85000000000002
aF188.53400000000002
aa(lp106
F239.599
aF220.803
aF226.694
aa(lp107
F281.7285
aF286.42240000000004
aF273.84759999999994
aa(lp108
F405.4231
aF429.95980000000003
aF389.1258
aa(lp109
F911.8538000000001
aF3661.68
aF994.8352
aa(lp110
F5670.7355
aF9320.761600000002
aF5218.8104
aasS'random_soj_99'
p111
(lp112
(lp113
F97.5215
aF99.1156
aF96.779
aa(lp114
F109.2925
aF107.5005
aF104.7992
aa(lp115
F112.3435
aF113.26740000000001
aF112.11059999999999
aa(lp116
F116.7052
aF119.13199999999999
aF112.59200000000001
aa(lp117
F121.8545
aF119.3848
aF118.55000000000001
aa(lp118
F132.813
aF131.2645
aF133.46280000000002
aa(lp119
F141.353
aF149.4645
aF150.54000000000002
aa(lp120
F150.1223
aF158.21009999999998
aF158.06119999999999
aa(lp121
F165.5534
aF154.66
aF156.544
aa(lp122
F163.2932
aF164.5088
aF165.828
aa(lp123
F180.45170000000002
aF187.85
aF178.915
aa(lp124
F191.6868
aF184.3168
aF190.49599999999998
aa(lp125
F204.3488
aF201.2646
aF209.0623
aa(lp126
F229.4786
aF230.1456
aF226.5369
aa(lp127
F258.01120000000003
aF275.6034
aF260.6144
aa(lp128
F292.42220000000003
aF304.31100000000004
aF303.948
aa(lp129
F384.69899999999996
aF366.74440000000004
aF401.8315
aa(lp130
F0.0
aF570.4
aF664.608
aa(lp131
F1257.8575
aF1050.5785999999998
aF2539.0344999999998
aa(lp132
F8729.8254
aF9924.0778
aF7593.7172
aasS'single_soj_99'
p133
(lp134
(lp135
F99.82
aF99.029
aF98.0858
aa(lp136
F106.47250000000001
aF104.7101
aF111.824
aa(lp137
F112.86000000000001
aF113.2175
aF115.976
aa(lp138
F113.9004
aF116.16560000000001
aF114.73880000000001
aa(lp139
F121.7558
aF120.6174
aF119.9636
aa(lp140
F133.9558
aF124.438
aF133.312
aa(lp141
F139.92200000000003
aF144.6832
aF143.4773
aa(lp142
F149.8663
aF149.8955
aF147.9164
aa(lp143
F154.9764
aF152.5154
aF155.4614
aa(lp144
F163.3092
aF164.7778
aF163.3664
aa(lp145
F183.5984
aF174.514
aF176.8666
aa(lp146
F188.6902
aF195.8666
aF189.2409
aa(lp147
F217.48620000000003
aF203.008
aF203.0316
aa(lp148
F240.0683
aF226.68759999999997
aF226.51749999999998
aa(lp149
F260.5082
aF275.70000000000005
aF250.4105
aa(lp150
F315.88
aF291.48900000000003
aF311.74399999999997
aa(lp151
F393.2718
aF391.6864
aF370.30839999999995
aa(lp152
F583.4325
aF622.3902
aF518.7438
aa(lp153
F1493.4348
aF4243.44
aF1456.6111999999998
aa(lp154
F6138.929
aF10145.9696
aF6260.8232
aasS'single_95'
p155
(lp156
(lp157
F86.43127380000001
aF86.3791404
aF86.16376
aa(lp158
F89.50754089999998
aF89.9130648
aF89.1739834
aa(lp159
F106.84027510000001
aF105.8867043
aF105.57877950000001
aa(lp160
F112.15080180000001
aF112.88047680000001
aF112.5031504
aa(lp161
F116.77322299999999
aF117.1866224
aF116.4576982
aa(lp162
F119.6474988
aF120.4378642
aF120.01425799999998
aa(lp163
F122.7033763
aF123.48593949999997
aF123.59244500000001
aa(lp164
F126.55933680000001
aF126.63802360000001
aF126.600495
aa(lp165
F131.3608488
aF131.05818490000001
aF131.52500680000003
aa(lp166
F140.9153898
aF140.05540499999998
aF139.787246
aa(lp167
F152.7417442
aF151.332676
aF150.92059999999998
aa(lp168
F160.68562
aF160.941974
aF160.07385399999998
aa(lp169
F172.84709080000002
aF171.7839228
aF171.27856749999998
aa(lp170
F185.32607200000004
aF186.66358749999998
aF188.01113600000002
aa(lp171
F208.65930719999997
aF207.7501413
aF202.6219916
aa(lp172
F240.49255720000002
aF231.38556819999997
aF240.7716543
aa(lp173
F295.7668115
aF290.0813966
aF285.4843285
aa(lp174
F416.6694339
aF441.82066620000006
aF406.742337
aa(lp175
F926.7262647000001
aF3676.9405169999995
aF1009.9839258
aa(lp176
F5695.1694304
aF9347.326485599999
aF5241.6607069
aasS'single_50'
p177
(lp178
(lp179
F75.4145534
aF75.19926559999999
aF75.323208
aa(lp180
F75.66708799999999
aF75.5234144
aF75.4168762
aa(lp181
F75.94484940000001
aF75.6599386
aF75.6248805
aa(lp182
F75.9295596
aF75.9806816
aF76.0151968
aa(lp183
F76.33068949999999
aF76.35653780000001
aF76.24737259999999
aa(lp184
F76.7364218
aF76.8770218
aF76.63005559999999
aa(lp185
F77.0254001
aF77.14179449999999
aF77.06032300000001
aa(lp186
F77.66095250000001
aF77.5766815
aF77.7391902
aa(lp187
F78.3705024
aF78.1760893
aF78.2856227
aa(lp188
F79.0331754
aF79.23631749999998
aF79.091816
aa(lp189
F80.25366360000001
aF80.060644
aF80.06339
aa(lp190
F81.5054425
aF81.57198199999999
aF81.4199724
aa(lp191
F83.8937488
aF83.79969919999999
aF83.845248
aa(lp192
F88.50222400000001
aF88.64111499999999
aF88.64240720000001
aa(lp193
F98.53008799999999
aF98.5787517
aF97.68890809999999
aa(lp194
F110.19333879999999
aF109.0658038
aF109.4970975
aa(lp195
F123.9478553
aF122.48698920000001
aF122.91169150000002
aa(lp196
F154.23691390000002
aF156.36100710000002
aF150.53889
aa(lp197
F230.0314788
aF257.93906699999997
aF236.66720669999998
aa(lp198
F1087.0603504
aF995.9597345999999
aF1704.1139123000005
aasS'random_50'
p199
(lp200
(lp201
F74.937232
aF74.8791692
aF74.9951465
aa(lp202
F75.1434596
aF75.1529508
aF75.2425568
aa(lp203
F75.4770255
aF75.58458479999999
aF75.50311450000001
aa(lp204
F75.7475754
aF75.7777551
aF75.6744971
aa(lp205
F76.1359631
aF76.1082213
aF76.05968299999999
aa(lp206
F76.5421872
aF76.5479588
aF76.6028052
aa(lp207
F77.01837269999999
aF76.91869080000001
aF76.938818
aa(lp208
F77.5128117
aF77.49052
aF77.4537302
aa(lp209
F78.23576460000001
aF78.0664338
aF78.05616549999999
aa(lp210
F78.825323
aF78.84767360000001
aF79.0238482
aa(lp211
F80.0092284
aF79.8343072
aF80.110176
aa(lp212
F81.6444213
aF81.378737
aF81.21317069999999
aa(lp213
F83.5063049
aF83.5660144
aF83.57624
aa(lp214
F88.2140849
aF88.0056958
aF88.1647389
aa(lp215
F99.57655700000001
aF98.2003216
aF98.53783419999999
aa(lp216
F109.52615200000001
aF110.4572376
aF109.1718158
aa(lp217
F121.67210250000002
aF121.751858
aF122.9197096
aa(lp218
F0.0
aF150.89612749999998
aF152.0901612
aa(lp219
F227.2714603
aF233.151601
aF224.79072760000003
aa(lp220
F930.4383565
aF1139.6284736000002
aF777.583561
aasS'random_95'
p221
(lp222
(lp223
F86.1364288
aF86.15429
aF86.0395645
aa(lp224
F89.32583029999999
aF89.3501754
aF89.7798202
aa(lp225
F105.02576280000001
aF106.30265309999999
aF105.17785750000002
aa(lp226
F112.576968
aF111.9600236
aF112.1340027
aa(lp227
F116.6914977
aF116.5345428
aF116.43579079999999
aa(lp228
F119.9933744
aF120.1411856
aF120.1611852
aa(lp229
F123.2991515
aF123.454152
aF123.2445228
aa(lp230
F126.6365438
aF126.85048
aF126.70857079999999
aa(lp231
F131.74570920000002
aF131.45764699999998
aF131.2124379
aa(lp232
F140.2496894
aF139.82923520000003
aF139.5948499
aa(lp233
F152.3734512
aF151.9847024
aF150.1923519
aa(lp234
F162.56137600000002
aF160.165025
aF160.01977659999997
aa(lp235
F170.28445850000003
aF169.72226320000001
aF169.92123039999998
aa(lp236
F186.2646648
aF184.5417268
aF185.3726519
aa(lp237
F207.9537567
aF210.07041279999999
aF209.33190879999998
aa(lp238
F234.784244
aF238.94332980000001
aF236.29958200000002
aa(lp239
F292.9403625
aF283.6827776
aF299.7972058
aa(lp240
F0.0
aF405.27946
aF441.24470880000007
aa(lp241
F853.1560188999999
aF770.1488332
aF1885.0592284
aa(lp242
F6201.352965
aF5661.817472000001
aF6637.8115756
aasS'minimum_x'
p243
(lp244
(lp245
I5
aI5
aI5
aa(lp246
I10
aI10
aI10
aa(lp247
I15
aI15
aI15
aa(lp248
I20
aI20
aI20
aa(lp249
I25
aI25
aI25
aa(lp250
I30
aI30
aI30
aa(lp251
I35
aI35
aI35
aa(lp252
I40
aI40
aI40
aa(lp253
I45
aI45
aI45
aa(lp254
I50
aI50
aI50
aa(lp255
I55
aI55
aI55
aa(lp256
I60
aI60
aI60
aa(lp257
I65
aI65
aI65
aa(lp258
I70
aI70
aI70
aa(lp259
I75
aI75
aI75
aa(lp260
I80
aI80
aI80
aa(lp261
I85
aI85
aI85
aa(lp262
I90
aI90
aI90
aa(lp263
I95
aI95
aI95
aa(lp264
I100
aI100
aI100
aasS'minimum_soj_95'
p265
(lp266
(lp267
F82.608
aF76.3202
aF74.48740000000001
aa(lp268
F81.2509
aF83.2798
aF80.2481
aa(lp269
F93.56800000000001
aF92.923
aF87.70060000000001
aa(lp270
F101.989
aF109.1104
aF103.7388
aa(lp271
F104.8282
aF99.88799999999999
aF104.1806
aa(lp272
F110.3882
aF110.8025
aF108.8008
aa(lp273
F112.7278
aF113.2448
aF112.4324
aa(lp274
F115.074
aF115.8886
aF114.8008
aa(lp275
F120.7802
aF122.202
aF127.27799999999999
aa(lp276
F127.6306
aF129.3052
aF131.23579999999998
aa(lp277
F140.48919999999998
aF139.10899999999998
aF140.68099999999998
aa(lp278
F151.177
aF150.832
aF152.86919999999998
aa(lp279
F160.0198
aF163.2344
aF161.82350000000002
aa(lp280
F172.4888
aF176.6225
aF176.142
aa(lp281
F198.2963
aF199.3973
aF200.126
aa(lp282
F226.028
aF224.321
aF224.2406
aa(lp283
F281.451
aF281.5293
aF289.43
aa(lp284
F394.425
aF403.428
aF389.11080000000004
aa(lp285
F725.9635000000001
aF859.2313
aF738.3064
aa(lp286
F5030.627
aF6706.406999999999
aF6104.7786
aasS'minimum_99'
p287
(lp288
(lp289
F114.48440739999998
aF115.0178708
aF114.3794772
aa(lp290
F122.4237526
aF122.3283004
aF122.68226879999997
aa(lp291
F126.21505830000001
aF126.7303707
aF126.42576869999999
aa(lp292
F130.78101999999998
aF130.3112506
aF130.9250856
aa(lp293
F135.54923519999997
aF135.4009046
aF136.0908835
aa(lp294
F149.2194221
aF148.98468000000003
aF147.8531117
aa(lp295
F158.54577020000002
aF159.20927060000002
aF158.65033680000002
aa(lp296
F164.862285
aF164.76938659999996
aF164.09955280000003
aa(lp297
F170.74876880000002
aF170.7968214
aF169.7187054
aa(lp298
F179.504024
aF178.35345
aF179.17897680000004
aa(lp299
F192.14875679999997
aF192.3802524
aF190.0732486
aa(lp300
F207.4283053
aF205.325216
aF207.635652
aa(lp301
F218.353637
aF223.9244389
aF223.39328999999998
aa(lp302
F239.61338639999997
aF245.03076149999998
aF246.760996
aa(lp303
F272.6986041
aF282.1112465
aF273.08782799999994
aa(lp304
F325.20466000000005
aF320.2995891
aF317.02853550000003
aa(lp305
F416.05428579999995
aF411.75184649999994
aF418.2380220999999
aa(lp306
F584.9205008
aF702.0432466
aF548.9817268
aa(lp307
F1398.07113
aF1704.1944199999998
aF1002.6666839999999
aa(lp308
F6265.0964851
aF8294.129432
aF7767.603875499998
aasS'random_soj_50'
p309
(lp310
(lp311
F65.6985
aF66.7966
aF65.34100000000001
aa(lp312
F68.81800000000001
aF68.191
aF65.9632
aa(lp313
F67.69149999999999
aF68.9784
aF68.36699999999999
aa(lp314
F68.8892
aF68.9301
aF64.363
aa(lp315
F70.3505
aF67.8424
aF67.21000000000001
aa(lp316
F69.6686
aF69.8206
aF68.6296
aa(lp317
F70.3937
aF70.9092
aF72.7425
aa(lp318
F72.4109
aF72.4657
aF74.4536
aa(lp319
F76.0586
aF71.995
aF72.832
aa(lp320
F73.138
aF73.35679999999999
aF74.1588
aa(lp321
F75.3006
aF76.255
aF74.32
aa(lp322
F75.8823
aF75.27279999999999
aF76.21039999999999
aa(lp323
F76.8593
aF78.2284
aF80.14
aa(lp324
F80.5529
aF82.53120000000001
aF83.5831
aa(lp325
F93.916
aF94.3294
aF91.3586
aa(lp326
F101.5172
aF102.45360000000001
aF97.6188
aa(lp327
F115.187
aF112.726
aF118.036
aa(lp328
F0.0
aF145.5105
aF145.7346
aa(lp329
F219.00750000000002
aF226.814
aF220.59799999999998
aa(lp330
F920.4019000000001
aF1128.0991999999999
aF771.471
aasS'single_soj_50'
p331
(lp332
(lp333
F66.1385
aF65.684
aF65.8238
aa(lp334
F66.96000000000001
aF66.4616
aF70.048
aa(lp335
F68.655
aF69.415
aF70.1777
aa(lp336
F66.92240000000001
aF69.0976
aF68.6876
aa(lp337
F68.4545
aF67.8882
aF69.2402
aa(lp338
F70.71180000000001
aF65.1046
aF69.05199999999999
aa(lp339
F68.71100000000001
aF71.70089999999999
aF70.6103
aa(lp340
F72.64750000000001
aF71.7245
aF68.6798
aa(lp341
F72.6752
aF71.6819
aF71.11619999999999
aa(lp342
F72.87379999999999
aF72.5367
aF73.83840000000001
aa(lp343
F77.1104
aF74.9252
aF74.8684
aa(lp344
F75.1091
aF78.1164
aF74.54570000000001
aa(lp345
F79.06880000000001
aF74.592
aF77.8512
aa(lp346
F84.4229
aF84.1816
aF83.67259999999999
aa(lp347
F89.984
aF97.65
aF89.5565
aa(lp348
F109.221
aF104.577
aF100.55
aa(lp349
F115.3327
aF119.7888
aF117.22439999999999
aa(lp350
F150.3431
aF151.8259
aF140.42600000000002
aa(lp351
F225.0952
aF253.67999999999998
aF230.2448
aa(lp352
F1077.6979999999999
aF992.6756
aF1689.0968
aasS'minimum_soj_99'
p353
(lp354
(lp355
F108.9942
aF99.85329999999999
aF97.5258
aa(lp356
F114.7578
aF112.47309999999999
aF109.0832
aa(lp357
F111.0745
aF110.637
aF103.8167
aa(lp358
F117.759
aF125.81439999999999
aF119.5456
aa(lp359
F120.8188
aF115.04159999999999
aF121.0726
aa(lp360
F135.9626
aF136.28
aF133.1256
aa(lp361
F144.1207
aF144.7776
aF143.8776
aa(lp362
F149.42
aF149.5453
aF148.3844
aa(lp363
F155.4296
aF158.162
aF163.886
aa(lp364
F162.6238
aF163.3
aF166.3952
aa(lp365
F176.6176
aF175.6884
aF176.1164
aa(lp366
F192.3885
aF193.31199999999998
aF196.108
aa(lp367
F204.68050000000002
aF210.5326
aF208.77800000000002
aa(lp368
F222.42960000000002
aF230.8925
aF231.3544
aa(lp369
F259.2701
aF268.79449999999997
aF260.65999999999997
aa(lp370
F307.2
aF303.983
aF299.4902
aa(lp371
F400.7254
aF396.0879
aF401.15590000000003
aa(lp372
F567.895
aF688.3566
aF530.9547
aa(lp373
F1383.7925
aF1696.9825
aF1002.172
aa(lp374
F6242.8605
aF8268.344
aF7741.9382
aasS'random_x'
p375
(lp376
(lp377
I5
aI5
aI5
aa(lp378
I10
aI10
aI10
aa(lp379
I15
aI15
aI15
aa(lp380
I20
aI20
aI20
aa(lp381
I25
aI25
aI25
aa(lp382
I30
aI30
aI30
aa(lp383
I35
aI35
aI35
aa(lp384
I40
aI40
aI40
aa(lp385
I45
aI45
aI45
aa(lp386
I50
aI50
aI50
aa(lp387
I55
aI55
aI55
aa(lp388
I60
aI60
aI60
aa(lp389
I65
aI65
aI65
aa(lp390
I70
aI70
aI70
aa(lp391
I75
aI75
aI75
aa(lp392
I80
aI80
aI80
aa(lp393
I85
aI85
aI85
aa(lp394
I90
aI90
aI90
aa(lp395
I95
aI95
aI95
aa(lp396
I100
aI100
aI100
aasS'single_x'
p397
(lp398
(lp399
I5
aI5
aI5
aa(lp400
I10
aI10
aI10
aa(lp401
I15
aI15
aI15
aa(lp402
I20
aI20
aI20
aa(lp403
I25
aI25
aI25
aa(lp404
I30
aI30
aI30
aa(lp405
I35
aI35
aI35
aa(lp406
I40
aI40
aI40
aa(lp407
I45
aI45
aI45
aa(lp408
I50
aI50
aI50
aa(lp409
I55
aI55
aI55
aa(lp410
I60
aI60
aI60
aa(lp411
I65
aI65
aI65
aa(lp412
I70
aI70
aI70
aa(lp413
I75
aI75
aI75
aa(lp414
I80
aI80
aI80
aa(lp415
I85
aI85
aI85
aa(lp416
I90
aI90
aI90
aa(lp417
I95
aI95
aI95
aa(lp418
I100
aI100
aI100
aasS'minimum_95'
p419
(lp420
(lp421
F86.31877599999999
aF86.5832152
aF86.55937159999999
aa(lp422
F89.31250030000001
aF89.64398320000001
aF89.69670539999998
aa(lp423
F105.80025119999999
aF106.6315453
aF105.5728366
aa(lp424
F112.67042000000001
aF112.83442959999999
aF113.1220338
aa(lp425
F117.03175279999999
aF116.816728
aF117.05581349999999
aa(lp426
F120.4554797
aF120.67219
aF120.1621031
aa(lp427
F123.40665080000002
aF123.7313838
aF123.6864932
aa(lp428
F127.23293950000001
aF127.25472919999999
aF126.5316896
aa(lp429
F131.81410060000002
aF131.6750094
aF131.6303342
aa(lp430
F140.438888
aF140.7462978
aF140.86223970000003
aa(lp431
F152.69968559999998
aF152.686999
aF151.3001065
aa(lp432
F162.3679306
aF161.126576
aF162.36135480000002
aa(lp433
F170.4230732
aF173.3565116
aF172.6654175
aa(lp434
F185.40895919999997
aF187.79145549999998
aF187.78903
aa(lp435
F208.1615383
aF209.30719009999999
aF209.42265079999996
aa(lp436
F240.80513640000004
aF236.8377117
aF238.2675315
aa(lp437
F292.07267699999994
aF293.64311549999996
aF302.08417
aa(lp438
F406.94247199999995
aF412.75662800000003
aF402.19095519999996
aa(lp439
F735.0524059999999
aF864.2412487999999
aF738.9533207999999
aa(lp440
F5049.9395874
aF6727.418921
aF6125.063636499998
aasS'minimum_soj_50'
p441
(lp442
(lp443
F72.3056
aF67.0746
aF65.1099
aa(lp444
F67.3287
aF70.6962
aF67.75450000000001
aa(lp445
F67.8115
aF65.80799999999999
aF64.6454
aa(lp446
F70.145
aF73.9744
aF70.86959999999999
aa(lp447
F69.6976
aF66.85919999999999
aF68.04820000000001
aa(lp448
F71.4938
aF71.3657
aF70.676
aa(lp449
F71.2864
aF71.8528
aF70.6748
aa(lp450
F69.912
aF71.40360000000001
aF71.115
aa(lp451
F73.19059999999999
aF73.06700000000001
aF76.11
aa(lp452
F72.745
aF73.6888
aF74.4422
aa(lp453
F73.9456
aF72.0992
aF75.67320000000001
aa(lp454
F77.3385
aF74.2795
aF75.7114
aa(lp455
F79.195
aF79.6754
aF79.61000000000001
aa(lp456
F82.9084
aF82.703
aF83.3324
aa(lp457
F95.6918
aF94.15530000000001
aF94.394
aa(lp458
F100.75999999999999
aF102.63499999999999
aF101.6516
aa(lp459
F118.5678
aF114.94779999999999
aF116.8829
aa(lp460
F146.095
aF145.8234
aF146.7029
aa(lp461
F214.2305
aF226.7682
aF216.8359
aa(lp462
F1110.629
aF1019.674
aF844.0618
aas.