(dp0
S'single_99'
p1
(lp2
(lp3
F164.3130492
aF165.77439999999999
aF145.085685
aF165.187777
aF126.01630939999998
aF115.8123128
aF136.967663
aF125.85647359999999
aF186.6309693
aF165.7016673
aF185.47296260000002
aF137.6549425
aa(lp4
F119.33102200000002
aF132.27431040000002
aF132.6558746
aF131.689798
aF132.2536656
aF129.2698385
aF131.6477088
aF120.83922650000001
aF108.48997019999999
aF130.71240729999997
aF135.5609752
aF103.42841870000001
aa(lp5
F132.59624440000002
aF122.23607100000001
aF130.4443264
aF131.6577608
aF126.2941826
aF127.8313512
aF135.40622720000002
aF122.73380750000001
aF128.91151200000002
aF143.3050775
aF122.8295046
aF122.5984584
aa(lp6
F136.5165092
aF122.226281
aF130.4598804
aF128.720189
aF128.190232
aF126.07717919999999
aF122.003828
aF122.31302079999998
aF129.13249439999998
aF122.03304039999998
aF133.82159460000003
aF125.00804879999998
aa(lp7
F137.22516
aF134.80145199999998
aF126.66380140000001
aF129.3397252
aF132.92924000000002
aF126.41152070000001
aF135.05898280000002
aF128.49959669999998
aF128.4836339
aF128.9272104
aF132.9460254
aF128.4001053
aa(lp8
F134.7137947
aF132.9955605
aF125.94009489999999
aF135.53123
aF131.9198488
aF126.4915286
aF142.22612800000002
aF137.2860026
aF136.7447312
aF132.269824
aF137.3161938
aF138.623559
aa(lp9
F136.437368
aF158.90689170000002
aF131.6598132
aF141.1161872
aF139.9874325
aF168.41273840000002
aF142.7572088
aF150.4344261
aF142.84079400000002
aF137.85688800000003
aF160.8182904
aF136.27321160000002
aa(lp10
F168.58672760000002
aF144.5676656
aF145.22193199999998
aF156.46687
aF142.84217
aF144.7397721
aF144.15173599999997
aF155.055918
aF161.2982
aF149.7767984
aF136.3697846
aF148.3634642
aa(lp11
F153.901902
aF157.9229344
aF150.39343820000002
aF190.52404839999997
aF169.3306542
aF150.7777243
aF167.9240072
aF153.989304
aF282.5177312
aF201.386932
aF168.68437939999998
aF163.8496076
aa(lp12
F224.714715
aF187.5446541
aF166.51054170000003
aF321.61915
aF175.8591718
aF230.32689829999998
aF181.6829905
aF182.7972364
aF195.5374434
aF197.34919399999998
aF222.0980022
aF183.9623616
aa(lp13
F192.65747000000002
aF238.42818039999997
aF217.43394790000002
aF236.63211999999996
aF327.5889232
aF199.9027992
aF268.40380600000003
aF279.4421516
aF228.50601820000003
aF275.7052896
aF249.97732589999995
aF291.48486
aa(lp14
F526.026935
aF402.63754229999995
aF400.7702085
aF372.276228
aF367.7183946
aF312.2362328
aF457.86425879999996
aF309.98688119999997
aF464.6795088
aF316.59717200000006
aF224.31150200000002
aF305.99064020000003
aa(lp15
F523.089444
aF350.4668075
aF490.2493703
aF494.5844728
aF778.0817576
aF636.8027896
aF855.270132
aF573.1346006
aF407.7886655
aF794.2980219
aF407.1383808
aF816.1478989999999
aa(lp16
F1331.1371752
aF1600.6424276
aF1337.7300136
aF1463.3767163
aF1847.7896196
aF1438.81441
aF898.6410168
aF1707.9626406999998
aF1411.3244288
aF1085.8077448
aF980.0158498999999
aF675.8349256
aa(lp17
F1925.1719134
aF1823.4648815000003
aF1519.443554
aF1392.799491
aF1738.2426554
aF1776.0479515999998
aF1540.704679
aF1863.6556576
aF2100.0464970000003
aF1678.6100734
aF1765.6656
aF1231.1944402
aa(lp18
F2483.3273745
aF1776.2726224
aF1867.9507168
aF2139.319782
aF1978.1037013
aF2048.7609915999997
aF2303.8164288
aF2168.6096454000003
aF1619.3255209
aF2600.030518
aF2238.5910478
aF2191.266147
aa(lp19
F2810.4105775999997
aF2295.5237712
aF2465.5313615
aF2939.6897764
aF2592.5494316
aF2330.6867278
aF2290.2021912
aF2407.9426899999994
aF2415.3255744000003
aF2782.5583786
aF2581.5505153
aF2857.2724098
aa(lp20
F3127.6868812000002
aF3286.5199825
aF2949.4822472000005
aF2657.9153593
aF2958.0540008000003
aF2966.9858538
aF3126.2545976
aF2705.3991080000005
aF3080.8173756
aF3240.8091305000003
aF3104.0710768
aF3056.0888084
aa(lp21
F3168.5403154000005
aF3132.32853
aF3200.7911138
aF3472.9645382
aF3656.5305565999997
aF2899.9777900000004
aF3046.6070104
aF2890.1373769999996
aF3949.6835439999995
aF3610.5900564000003
aF3266.8522338000002
aF3353.8286458000002
aa(lp22
F3190.2428442
aF3440.7634462
aF3546.5825584
aF3774.3058332999994
aF3240.7102714
aF3712.6105139
aF3879.0521803999995
aF3104.2446274000004
aF3344.2672314000006
aF3237.2756969
aF3408.9184158999997
aF3788.67628
aasS'random_99'
p23
(lp24
(lp25
F165.8199616
aF167.4306078
aF156.5247488
aF137.89250020000003
aF130.94019409999999
aF139.0255024
aF145.6549391
aF175.22545
aF162.22618260000002
aF130.2518417
aF131.937318
aF155.29306400000002
aa(lp26
F127.42161999999999
aF125.896824
aF120.00562500000001
aF127.57960390000001
aF129.0535995
aF125.5832074
aF137.1663674
aF140.33456669999998
aF104.306758
aF120.90109470000002
aF130.002594
aF101.8255568
aa(lp27
F116.96369999999999
aF124.63773800000001
aF128.0747773
aF127.37893919999999
aF129.95885570000002
aF132.198911
aF124.6138018
aF132.24312500000002
aF126.54681649999999
aF169.0196998
aF131.1976856
aF128.50271200000003
aa(lp28
F122.655987
aF133.20322550000003
aF129.106078
aF143.12132240000003
aF125.17312799999999
aF123.357503
aF125.3245642
aF126.1692678
aF130.1159849
aF126.89907509999999
aF131.07132239999999
aF119.93787040000001
aa(lp29
F140.22310720000002
aF130.5466143
aF131.0372756
aF124.98730970000001
aF131.6803734
aF125.8653124
aF127.13042519999999
aF132.2236456
aF124.185209
aF123.3824966
aF130.0458587
aF126.1699808
aa(lp30
F135.3290768
aF126.1464547
aF134.5258292
aF132.16770160000002
aF129.08808999999997
aF143.124068
aF143.2913976
aF133.43266
aF131.5824686
aF128.0630776
aF139.771594
aF149.1370576
aa(lp31
F132.34581880000002
aF139.7988192
aF137.6105714
aF146.817608
aF145.4406251
aF144.40166
aF136.81676320000003
aF133.67797919999998
aF146.1744154
aF134.39355519999998
aF139.9614555
aF138.46276559999998
aa(lp32
F176.0678388
aF147.12949079999999
aF144.806456
aF148.5322049
aF137.8843442
aF145.66113389999998
aF144.36518930000003
aF150.5019453
aF171.61311030000002
aF144.47406980000002
aF143.4119024
aF172.88810519999998
aa(lp33
F167.08446600000002
aF171.21534400000002
aF170.05701419999997
aF226.19719530000003
aF173.5809376
aF159.29879359999998
aF161.658458
aF167.912591
aF157.008844
aF150.7590096
aF171.31105000000002
aF228.6305514
aa(lp34
F198.9355511
aF187.87185350000001
aF236.70286080000002
aF206.1137408
aF205.337444
aF185.5312378
aF184.32416459999996
aF206.71422339999998
aF200.02808000000002
aF170.442
aF192.75188240000003
aF184.5346964
aa(lp35
F290.8911094
aF217.731222
aF256.9172175
aF399.10701420000004
aF200.406097
aF244.4683368
aF400.7490574
aF373.08813929999997
aF382.8586178
aF218.73293969999997
aF267.2713119
aF288.9635045
aa(lp36
F325.8215424
aF582.112645
aF264.53985850000004
aF285.2754086
aF401.5460336
aF286.11748750000004
aF477.10996339999997
aF270.2142268
aF273.4488276
aF283.1471158
aF254.849655
aF378.0799087
aa(lp37
F928.4348537999999
aF694.659449
aF582.4060828
aF467.3811494
aF605.216825
aF458.4804464
aF577.1516343999999
aF618.4304502
aF439.4475841
aF907.0376633999999
aF637.8590406
aF901.1996592
aa(lp38
F1584.333816
aF894.1802680000001
aF1101.5968578
aF894.0454520000001
aF1067.0436192
aF1557.1561196
aF903.4594726
aF1101.7988318
aF959.9797751
aF1032.4885632
aF1074.8708736
aF1135.253776
aa(lp39
F1452.3603504999999
aF1525.6728687
aF1617.6267572
aF1546.6958235999998
aF2032.1257451
aF2419.4495492
aF1564.5087665
aF1392.1111279999998
aF1850.4225054
aF2329.0408284
aF1640.578741
aF1623.0585194
aa(lp40
F2106.4525998
aF1777.612859
aF2654.3684405
aF2369.511914
aF2048.69483
aF2041.2537072
aF2336.4541171
aF2135.1260288
aF1784.8474128
aF2047.1230363999996
aF2165.1634786000004
aF2204.3057144
aa(lp41
F2262.0516282
aF2366.4110148000004
aF2949.6619562000005
aF2500.840503
aF2937.8869415
aF2782.906225
aF2908.2860552
aF2958.7232136000002
aF2694.3778002
aF2365.2846604
aF2523.0052370999997
aF2739.6051698
aa(lp42
F2599.4228048
aF3162.626168
aF3106.2130160000006
aF2846.0102814
aF3246.2377823999996
aF3363.695983
aF3331.8631752
aF2650.2851005
aF3280.8720280000002
aF3532.8980776999997
aF2516.3718896
aF3331.3784682
aa(lp43
F3338.5590128
aF3063.6470713999997
aF3165.2922372
aF2575.1659735000003
aF3161.6878759
aF3648.0375537
aF2840.7200165
aF3624.2070472
aF3214.3381854
aF3228.3881
aF3004.7823599999997
aF3280.480599
aa(lp44
F3488.0430240000005
aF3463.5033888
aF3434.9166156
aF3395.8635328
aF3305.2770607999996
aF3755.1885414000003
aF3309.1340119999995
aF3664.1210368999996
aF3093.0800925
aF3418.6234068
aF3331.5903233
aF3654.6915664000003
aasS'single_95'
p45
(lp46
(lp47
F97.15440380000001
aF102.89703549999999
aF86.40184400000001
aF87.028771
aF86.67878639999999
aF87.02120959999999
aF86.9029189
aF89.43758559999999
aF87.504536
aF100.7896788
aF96.3650908
aF90.12560289999999
aa(lp48
F86.15091100000001
aF89.1109332
aF86.67097190000001
aF89.51823399999999
aF91.7059152
aF86.67041900000001
aF89.4131296
aF91.30964600000001
aF87.36961729999999
aF86.6614549
aF87.8068576
aF85.96084830000001
aa(lp49
F87.7814912
aF90.94418250000001
aF89.7633022
aF91.5376192
aF91.126958
aF90.63222479999999
aF89.4028128
aF87.90302
aF91.542061
aF93.19408800000001
aF89.4118531
aF89.7633176
aa(lp50
F104.93400110000002
aF94.5772715
aF93.6276122
aF94.413758
aF95.680194
aF99.31305139999999
aF97.2635826
aF99.83922819999998
aF94.970736
aF95.30144259999999
aF101.8829541
aF100.67186199999999
aa(lp51
F108.31935999999999
aF103.841906
aF99.0781706
aF103.56153210000001
aF102.89334400000001
aF95.9551222
aF100.9805864
aF107.4698009
aF107.6346701
aF102.92497540000001
aF104.97757739999999
aF105.7513173
aa(lp52
F103.9715083
aF108.01738850000001
aF103.05591009999999
aF108.98373000000001
aF106.9119472
aF104.8890638
aF115.14907360000001
aF112.6110073
aF111.1962944
aF110.434876
aF108.83432339999999
aF109.2612225
aa(lp53
F108.16498399999999
aF119.2140507
aF109.65530600000001
aF115.8670448
aF116.4523615
aF122.1719003
aF122.01408079999999
aF121.46832760000001
aF119.0130375
aF118.47342560000001
aF119.0082768
aF114.83956010000001
aa(lp54
F127.9773416
aF119.1332133
aF119.6782364
aF125.45450980000001
aF116.7692205
aF120.3020904
aF115.50764
aF124.739976
aF128.2367542
aF125.71096359999999
aF117.57348089999999
aF122.37086479999999
aa(lp55
F125.16358199999999
aF126.25531519999998
aF120.35470430000001
aF131.1860581
aF130.4611589
aF128.24974509999998
aF125.59703239999999
aF128.399734
aF188.2314944
aF136.57760760000002
aF132.433763
aF125.1323196
aa(lp56
F157.119866
aF152.7446773
aF132.4401788
aF154.16337199999998
aF145.6122395
aF156.91062849999997
aF137.1763393
aF144.569332
aF150.74643450000002
aF144.58773799999997
aF154.97349479999997
aF152.2997063
aa(lp57
F151.74580600000002
aF193.5796274
aF167.48545060000004
aF172.14161499999997
aF219.4869373
aF155.5166336
aF192.02696699999998
aF201.90268629999997
aF177.03309740000003
aF215.37321780000002
aF172.4344822
aF214.33838640000002
aa(lp58
F273.41696
aF285.11081509999997
aF276.0908943
aF219.20017750000002
aF206.94201619999998
aF214.6305752
aF352.39499159999997
aF223.2357356
aF305.6213136
aF261.54197
aF167.76204140000002
aF225.7027171
aa(lp59
F448.43255159999995
aF255.52083
aF399.0586308
aF333.502092
aF580.7204751
aF477.126648
aF745.9759988000001
aF488.1301328
aF325.6458113
aF631.3768871999999
aF346.72804640000004
aF706.5407216
aa(lp60
F1127.1143941
aF1204.8139820000001
aF1047.4648808
aF1134.6514266
aF1428.4784301999998
aF1275.1933012
aF814.6387968
aF1181.9429745
aF946.5807427999999
aF812.5456308999999
aF635.3756849
aF567.2126646
aa(lp61
F1464.1246517
aF1256.0440520000002
aF1095.4996765
aF1254.5766809999998
aF1367.5345012999999
aF1377.8823619999998
aF1279.5157060000001
aF1372.1537248000002
aF1599.4890105
aF1318.0151878
aF1282.328
aF1160.2027288
aa(lp62
F2008.604671
aF1531.940344
aF1413.6872343999999
aF1844.038569
aF1574.2292676000002
aF1421.0199413
aF1955.574504
aF1645.1390103
aF1491.1251931
aF1721.1019790000003
aF1671.2692390999998
aF1575.778456
aa(lp63
F2215.988003
aF1876.1576607999998
aF1993.2291535
aF2097.4192972
aF1965.88271
aF1963.9263873999998
aF1709.9862637
aF1837.9530712999997
aF2044.3951464
aF2010.1047659
aF1887.7298158
aF2129.2602832
aa(lp64
F2218.7528429000004
aF2483.4123625
aF2371.3413440000004
aF2342.4161858
aF2070.0541048
aF1948.9120739999998
aF2406.7966532
aF2310.3728960000003
aF2326.9583082
aF2407.8519595
aF2253.38764
aF2280.466099
aa(lp65
F2493.7534676000005
aF2425.4715854
aF2689.6178609000003
aF2634.6266324
aF2779.1751178
aF2289.509257
aF2220.7402902999997
aF2155.211108
aF2811.6443871999995
aF2645.8814156000003
aF2553.1371708
aF2408.0482232
aa(lp66
F2738.36169
aF2877.6079002
aF3070.4931567999997
aF2866.4099699
aF2756.5804252
aF2675.3626216
aF3082.7804991999997
aF2546.7222826
aF2512.7248379000002
aF2449.2172994000002
aF2891.3679754
aF2808.98771
aasS'single_50'
p67
(lp68
(lp69
F76.4792066
aF75.5817805
aF75.72791380000001
aF74.74329850000001
aF75.6549278
aF74.7476756
aF76.4896025
aF74.6869552
aF75.4743744
aF74.4283427
aF76.8498124
aF75.7934371
aa(lp70
F74.68762900000002
aF75.8338992
aF74.9475833
aF75.37106399999999
aF75.0448128
aF75.3005495
aF76.07656320000001
aF74.554292
aF75.1106028
aF75.0716837
aF75.82407359999999
aF75.6808093
aa(lp71
F75.37556380000001
aF75.42264750000001
aF75.6470892
aF75.7154205
aF75.2696861
aF76.134312
aF75.79748160000001
aF74.525225
aF75.7376387
aF75.598989
aF75.2529497
aF75.3809832
aa(lp72
F75.683381
aF75.84165949999999
aF75.7191426
aF75.593186
aF75.6368152
aF75.7406561
aF75.954826
aF75.8559318
aF75.6063168
aF75.64438859999998
aF76.0398795
aF75.51018839999999
aa(lp73
F75.82848999999999
aF75.613786
aF76.0319474
aF75.4798543
aF76.03116
aF75.6104902
aF76.17916160000001
aF75.7572351
aF75.8462939
aF75.597695
aF75.6398408
aF75.7153374
aa(lp74
F76.0908709
aF76.368284
aF75.5807623
aF75.70075
aF76.41346000000001
aF76.5889404
aF76.1889568
aF76.2443249
aF76.4871728
aF76.578224
aF76.65453059999999
aF76.2231885
aa(lp75
F76.26389
aF77.8314743
aF76.2243929
aF77.32485919999999
aF76.238745
aF77.08663870000001
aF77.4492812
aF77.1040629
aF77.000475
aF76.69281760000001
aF76.7854704
aF77.4742287
aa(lp76
F77.54170160000001
aF76.5199866
aF76.6972172
aF77.7227314
aF76.7715225
aF77.5773009
aF77.296184
aF77.723148
aF78.0385095
aF77.41078719999999
aF77.4035155
aF77.4375096
aa(lp77
F77.413758
aF78.0373888
aF77.71783730000001
aF78.6672823
aF78.0352669
aF78.2570999
aF77.2661252
aF78.06257339999999
aF78.188528
aF77.87436360000001
aF77.86557379999999
aF78.0325508
aa(lp78
F79.864667
aF78.8153427
aF79.46331230000001
aF80.022921
aF79.6965676
aF79.65071
aF79.3004421
aF79.3087016
aF80.713848
aF79.83504199999999
aF79.65324089999999
aF80.3901318
aa(lp79
F80.43715800000001
aF81.8194413
aF80.5631047
aF81.94400499999999
aF81.01836449999999
aF80.5771368
aF81.0467438
aF81.89138059999999
aF81.73703320000001
aF82.016337
aF80.66966919999999
aF80.9988024
aa(lp80
F83.260163
aF85.8373457
aF83.41219269999999
aF83.4665185
aF83.6742562
aF83.210592
aF85.8753519
aF85.3633792
aF83.7658416
aF87.78553550000001
aF81.99196400000001
aF81.7052817
aa(lp81
F98.616816
aF86.406632
aF89.8970781
aF93.1433008
aF87.272918
aF92.3525176
aF95.5924048
aF92.6826524
aF89.25034099999999
aF97.95915869999999
aF87.7659664
aF86.9486896
aa(lp82
F99.8060725
aF91.35503120000001
aF105.144109
aF112.07050430000001
aF103.2950438
aF105.866584
aF103.13999340000001
aF106.9325734
aF100.406274
aF97.53394209999999
aF101.1334813
aF96.22997559999999
aa(lp83
F108.8775028
aF123.065844
aF128.382831
aF107.606596
aF114.9330529
aF117.98363459999999
aF115.308749
aF106.6840608
aF116.427854
aF109.2969865
aF115.12304
aF117.2913442
aa(lp84
F122.4900353
aF136.5065328
aF148.379063
aF120.68207249999999
aF126.35332
aF143.2854107
aF128.8623888
aF154.2144381
aF137.2826238
aF125.625995
aF138.1118909
aF125.861533
aa(lp85
F123.99149359999998
aF142.0221232
aF139.074001
aF150.2550268
aF191.420658
aF149.2766614
aF206.9279311
aF198.24644599999996
aF135.5397048
aF170.21624400000002
aF145.9536079
aF200.45500479999998
aa(lp86
F156.0584571
aF156.19414749999999
aF185.21589200000003
aF193.9092581
aF177.29308079999998
aF205.900107
aF170.748548
aF185.03228900000002
aF171.10333060000002
aF253.6054085
aF170.2538112
aF181.7031832
aa(lp87
F206.883979
aF175.8976968
aF269.3824595
aF165.655977
aF294.7481393
aF225.36830200000003
aF288.0079222
aF258.627188
aF239.303031
aF231.4343142
aF269.9435824
aF243.8426856
aa(lp88
F264.9945183
aF358.47325079999996
aF324.11982879999994
aF277.7344983
aF372.1876144
aF343.26284670000007
aF228.5954524
aF303.2916886
aF346.81398950000005
aF485.4120054
aF368.1704515
aF275.26865000000004
aasS'random_50'
p89
(lp90
(lp91
F74.79675560000001
aF75.4956857
aF75.6051465
aF75.65639440000001
aF74.53785479999999
aF74.617848
aF75.213416
aF74.545635
aF74.91612620000001
aF75.3784995
aF75.5006195
aF75.29888400000002
aa(lp92
F74.64207999999999
aF74.2249664
aF74.3555125
aF74.6239455
aF75.08195799999999
aF75.5825424
aF75.7159091
aF74.4242543
aF75.17046099999999
aF74.7930795
aF74.6432373
aF74.6243285
aa(lp93
F75.0769368
aF75.17723000000001
aF75.4816006
aF75.2492032
aF74.79466579999999
aF75.65560099999999
aF75.709939
aF75.10827499999999
aF74.96607949999999
aF75.187768
aF75.47328399999999
aF75.2817292
aa(lp94
F75.473649
aF76.32395550000001
aF75.465513
aF75.60704080000001
aF75.58428699999999
aF75.9320249
aF76.1860232
aF75.6386514
aF74.7801743
aF75.63111599999999
aF75.0989064
aF75.17262550000001
aa(lp95
F76.1653912
aF75.6089844
aF75.232256
aF75.4959113
aF75.6341623
aF75.2188528
aF75.66829440000001
aF75.846846
aF75.04262
aF75.6449122
aF75.7126798
aF75.411158
aa(lp96
F76.3215122
aF76.0527013
aF75.8416388
aF75.93867600000002
aF75.84187419999999
aF76.481466
aF76.24173320000001
aF76.18267
aF75.739418
aF75.6716176
aF75.7854445
aF75.737056
aa(lp97
F75.87977660000001
aF76.5219792
aF75.6399338
aF77.0246512
aF76.9740953
aF77.29826
aF76.8067936
aF76.1941792
aF77.0031717
aF76.9900978
aF76.420409
aF76.121952
aa(lp98
F77.87928120000001
aF77.28696479999999
aF76.97362799999999
aF77.0816082
aF77.2678098
aF77.76166029999999
aF76.6269944
aF77.3476884
aF77.7622929
aF76.71424860000002
aF77.00672
aF77.7864678
aa(lp99
F78.40121580000002
aF77.416495
aF77.65169159999999
aF77.7885928
aF78.3517312
aF78.21677159999999
aF78.06022399999999
aF78.1365515
aF77.109284
aF78.03735320000001
aF78.08404780000001
aF77.9404237
aa(lp100
F79.81210820000001
aF78.8865827
aF80.01246320000001
aF79.87937600000001
aF79.853938
aF79.3191853
aF79.0384918
aF79.1731252
aF79.51707200000001
aF79.488731
aF79.7337248
aF78.0659333
aa(lp101
F81.57312300000001
aF81.42990879999999
aF80.48255
aF81.7188213
aF82.27414680000001
aF80.4905976
aF83.19598690000001
aF82.2594669
aF81.2102914
aF81.01860889999999
aF80.4389529
aF81.761819
aa(lp102
F84.6903691
aF84.7576008
aF81.57896500000001
aF82.7465996
aF84.3853488
aF84.05015750000001
aF84.2285901
aF83.0059177
aF83.44391580000001
aF84.16372630000001
aF84.3389886
aF89.2488127
aa(lp103
F94.0331793
aF86.8761155
aF87.02840520000001
aF88.8929675
aF91.991568
aF86.8324696
aF102.7144024
aF94.12943999999999
aF90.176464
aF86.86418760000001
aF89.065236
aF89.4309152
aa(lp104
F102.23748700000002
aF112.5017128
aF101.7178062
aF95.47942400000001
aF97.9503511
aF98.8738955
aF107.770748
aF118.93291400000001
aF108.73594649999998
aF110.89515840000001
aF102.634944
aF98.26613499999999
aa(lp105
F110.11324780000001
aF118.77834429999999
aF114.67405400000001
aF108.42049599999999
aF122.8042414
aF124.88137180000001
aF119.7331513
aF117.2864632
aF110.6749875
aF101.8678422
aF114.25076440000001
aF114.48614350000001
aa(lp106
F147.24371380000002
aF136.848233
aF116.9419935
aF144.090462
aF150.40444999999997
aF137.2443216
aF165.18052899999998
aF145.2243904
aF121.70987360000001
aF130.9334501
aF155.2897284
aF132.640961
aa(lp107
F165.84271059999998
aF166.00124520000003
aF124.15730450000001
aF141.072072
aF192.8129037
aF173.422675
aF140.45745490000002
aF168.855726
aF135.921098
aF174.3886212
aF168.5071496
aF185.10466359999998
aa(lp108
F206.2814416
aF194.531568
aF163.322616
aF204.1950693
aF156.75228719999998
aF138.6453486
aF180.45362520000003
aF268.65313699999996
aF180.1432928
aF177.0052101
aF204.19351519999998
aF174.4552435
aa(lp109
F325.06656019999997
aF253.737812
aF278.52403310000005
aF280.844248
aF451.8561058
aF173.5120773
aF223.66246820000003
aF189.38580879999998
aF215.66998990000002
aF330.96723749999995
aF431.60604
aF183.25958809999997
aa(lp110
F369.05090400000006
aF347.15807099999995
aF214.234788
aF421.3973568
aF450.82226399999996
aF386.95454129999996
aF312.7383812
aF167.4383912
aF359.23519749999997
aF499.642959
aF272.9593713
aF253.81672550000005
aasS'random_95'
p111
(lp112
(lp113
F97.60698680000002
aF86.4004443
aF94.2217713
aF91.5353817
aF89.7626213
aF87.01414879999999
aF86.7778994
aF88.60105999999999
aF87.8719712
aF87.51578280000001
aF87.515941
aF94.12873000000002
aa(lp114
F84.62494
aF86.0816816
aF84.9481625
aF87.3706698
aF85.59167249999999
aF85.96030280000001
aF92.57837450000001
aF89.7679702
aF84.947824
aF86.208087
aF87.0745207
aF85.41728420000001
aa(lp115
F86.92189439999999
aF90.36101450000001
aF87.8668948
aF87.75259779999999
aF89.6015069
aF89.7632975
aF94.01487500000002
aF95.1539375
aF86.778561
aF93.11581840000001
aF88.08381279999999
aF91.1790603
aa(lp116
F94.016502
aF104.29184300000001
aF96.274202
aF105.99559680000002
aF92.88020399999999
aF99.700793
aF89.066755
aF91.63059659999999
aF91.9650581
aF91.7151816
aF98.8304544
aF88.87821430000001
aa(lp117
F108.39329860000001
aF103.59481199999999
aF95.7667227
aF100.7613716
aF103.4008758
aF96.496624
aF101.9110944
aF110.1977784
aF94.4100275
aF98.2264814
aF99.08163970000001
aF95.60482520000001
aa(lp118
F110.2029809
aF103.7936104
aF103.0489376
aF99.97227760000001
aF102.15935259999999
aF115.1523
aF114.05269360000003
aF104.34539799999999
aF114.838975
aF102.7351816
aF110.1402455
aF108.55151359999999
aa(lp119
F114.24614980000001
aF117.1853384
aF108.4773419
aF117.3632824
aF121.6905854
aF122.441888
aF116.86481440000001
aF112.15921599999999
aF121.815668
aF114.96120119999999
aF119.7744815
aF111.81589919999999
aa(lp120
F127.5537496
aF120.9573552
aF118.686348
aF120.0260883
aF115.949874
aF123.91452829999999
aF117.45572270000002
aF119.94570539999998
aF131.65753130000002
aF116.83123600000002
aF118.30937600000001
aF130.75197599999998
aa(lp121
F133.34977260000002
aF131.8536415
aF134.6173761
aF149.9320235
aF138.40378120000003
aF126.86598479999998
aF130.35466599999998
aF137.0484101
aF124.466756
aF122.78774640000002
aF129.8046646
aF140.6789158
aa(lp122
F153.26214530000001
aF149.700143
aF175.4196124
aF157.5474688
aF165.803902
aF145.7968792
aF142.06862819999998
aF147.7820896
aF142.712408
aF136.2383525
aF149.4011728
aF133.61395100000001
aa(lp123
F195.9939782
aF173.6931396
aF177.47217
aF286.0852416
aF154.077064
aF164.1840756
aF337.908636
aF284.3845177
aF194.82237940000002
aF166.1640205
aF189.07267530000001
aF202.8825521
aa(lp124
F262.4744581
aF381.3339298
aF182.739647
aF212.10173460000001
aF254.33832479999998
aF227.70409500000002
aF342.931935
aF202.7831948
aF207.46922820000003
aF213.20437370000002
aF203.29220120000002
aF269.5899569
aa(lp125
F684.3868593
aF521.2246775
aF487.4608258
aF388.444859
aF495.634366
aF390.3269664
aF465.10108399999996
aF482.8568874
aF296.31464709999995
aF754.026363
aF415.42342779999996
aF802.1619824
aa(lp126
F1459.433411
aF721.5425856
aF871.6505126000001
aF814.134488
aF822.1573579000001
aF1310.4714134
aF810.6512186000001
aF928.0546872000001
aF876.4465021999999
aF632.7427488000001
aF959.9316765
aF871.0460815
aa(lp127
F1274.2240957
aF1334.1133740999999
aF1128.2378012
aF1382.4676906
aF1469.5907309999998
aF1654.0026721000002
aF1006.5601220000001
aF1185.6446303999999
aF1435.0658826000001
aF1727.1898903000001
aF1373.7071464
aF1403.9049307
aa(lp128
F1286.479399
aF1632.5510060000001
aF2088.424242
aF1624.717735
aF1552.0832599999997
aF1646.830872
aF1692.2027824
aF1500.3179072
aF1602.6682640000001
aF1778.6734120999997
aF1592.1517163
aF1655.3854865
aa(lp129
F1732.7035103999997
aF1750.5633692000001
aF2381.0009345
aF2100.07623
aF2122.7086027
aF2200.176425
aF2148.0441723000004
aF2061.3866160000002
aF2225.451611
aF1720.5530168
aF1699.00119
aF2189.5495300000002
aa(lp130
F1987.311848
aF2212.835896
aF2267.8644080000004
aF2193.9263731
aF2658.0557744
aF2280.1178426
aF2492.789286
aF2007.1057564999999
aF2421.5608536
aF2595.5931923
aF1889.3130032
aF2505.5550198
aa(lp131
F2445.887048
aF2315.1545509999996
aF2660.7400924
aF2200.6006810000003
aF2446.0117381
aF2731.0834083
aF2497.3418957
aF2847.9436112
aF2512.949201
aF2412.8606625
aF2609.8383599999997
aF2363.9945859
aa(lp132
F2581.8937344000005
aF2778.8600294
aF2972.1433116
aF2870.6091072
aF2794.5416815999997
aF2578.5025416000003
aF2701.4733595999996
aF3148.2479951
aF2655.5033424999997
aF2536.3357936
aF2465.8119592
aF3229.3477846000005
aasS'minimum_x'
p133
(lp134
(lp135
I5
aI5
aI5
aI5
aI5
aI5
aI5
aI5
aI5
aI5
aI5
aI5
aa(lp136
I10
aI10
aI10
aI10
aI10
aI10
aI10
aI10
aI10
aI10
aI10
aI10
aa(lp137
I15
aI15
aI15
aI15
aI15
aI15
aI15
aI15
aI15
aI15
aI15
aI15
aa(lp138
I20
aI20
aI20
aI20
aI20
aI20
aI20
aI20
aI20
aI20
aI20
aI20
aa(lp139
I25
aI25
aI25
aI25
aI25
aI25
aI25
aI25
aI25
aI25
aI25
aI25
aa(lp140
I30
aI30
aI30
aI30
aI30
aI30
aI30
aI30
aI30
aI30
aI30
aI30
aa(lp141
I35
aI35
aI35
aI35
aI35
aI35
aI35
aI35
aI35
aI35
aI35
aI35
aa(lp142
I40
aI40
aI40
aI40
aI40
aI40
aI40
aI40
aI40
aI40
aI40
aI40
aa(lp143
I45
aI45
aI45
aI45
aI45
aI45
aI45
aI45
aI45
aI45
aI45
aI45
aa(lp144
I50
aI50
aI50
aI50
aI50
aI50
aI50
aI50
aI50
aI50
aI50
aI50
aa(lp145
I55
aI55
aI55
aI55
aI55
aI55
aI55
aI55
aI55
aI55
aI55
aI55
aa(lp146
I60
aI60
aI60
aI60
aI60
aI60
aI60
aI60
aI60
aI60
aI60
aI60
aa(lp147
I65
aI65
aI65
aI65
aI65
aI65
aI65
aI65
aI65
aI65
aI65
aI65
aa(lp148
I70
aI70
aI70
aI70
aI70
aI70
aI70
aI70
aI70
aI70
aI70
aI70
aa(lp149
I75
aI75
aI75
aI75
aI75
aI75
aI75
aI75
aI75
aI75
aI75
aI75
aa(lp150
I80
aI80
aI80
aI80
aI80
aI80
aI80
aI80
aI80
aI80
aI80
aI80
aa(lp151
I85
aI85
aI85
aI85
aI85
aI85
aI85
aI85
aI85
aI85
aI85
aI85
aa(lp152
I90
aI90
aI90
aI90
aI90
aI90
aI90
aI90
aI90
aI90
aI90
aI90
aa(lp153
I95
aI95
aI95
aI95
aI95
aI95
aI95
aI95
aI95
aI95
aI95
aI95
aa(lp154
I100
aI100
aI100
aI100
aI100
aI100
aI100
aI100
aI100
aI100
aI100
aI100
aasS'minimum_99'
p155
(lp156
(lp157
F174.1887023
aF137.07570719999998
aF129.3519304
aF181.90462499999998
aF222.54418
aF137.8627834
aF127.5968044
aF164.4564613
aF133.48217209999999
aF138.95380930000002
aF160.95667779999997
aF128.81734
aa(lp158
F127.992584
aF128.02891
aF159.9924475
aF131.580722
aF166.3352328
aF124.36634419999999
aF124.60233179999997
aF132.375
aF124.9467041
aF133.82799119999999
aF127.51788690000002
aF122.3190315
aa(lp159
F128.1756627
aF117.6982159
aF136.6910696
aF120.30176599999999
aF133.8275547
aF129.8533402
aF131.6257344
aF131.1156
aF122.4387642
aF133.9862016
aF133.3078175
aF122.00114880000001
aa(lp160
F132.0620496
aF135.5463364
aF126.194927
aF131.69370039999998
aF123.4539782
aF128.3569056
aF129.9963375
aF125.13674180000001
aF120.42667540000002
aF124.3042016
aF122.1667755
aF127.75379500000001
aa(lp161
F139.18557750000002
aF129.52935000000002
aF128.36664720000002
aF130.4603543
aF128.3407206
aF134.7201555
aF129.6530076
aF136.222575
aF132.8319426
aF134.01932
aF135.7653117
aF130.8298674
aa(lp162
F138.0439552
aF129.69256180000002
aF128.74702440000002
aF135.495035
aF155.5667764
aF134.1150596
aF132.532894
aF129.8266986
aF140.82904
aF138.5828904
aF132.8819106
aF129.82361609999998
aa(lp163
F141.48016
aF157.145108
aF147.7271352
aF149.2717135
aF150.3958487
aF138.7459329
aF134.26171899999997
aF148.244963
aF137.0720816
aF134.396027
aF145.8791663
aF149.00655550000002
aa(lp164
F171.9132707
aF167.7244425
aF166.19442530000003
aF162.00543900000002
aF175.5768496
aF147.7255361
aF147.9067707
aF167.435075
aF161.6189048
aF162.0489233
aF146.3791452
aF157.532524
aa(lp165
F169.3605565
aF174.9815248
aF156.267652
aF163.5139936
aF215.03235379999998
aF174.8899328
aF178.535508
aF172.230272
aF159.38847289999998
aF157.6059928
aF179.40315619999998
aF162.97723360000003
aa(lp166
F164.2106654
aF206.7042896
aF165.94446879999998
aF185.7012778
aF211.470446
aF222.87716
aF277.32331530000005
aF185.31817830000003
aF229.59796909999997
aF170.90554930000002
aF174.68846109999998
aF206.4238612
aa(lp167
F183.80182800000003
aF219.38111179999999
aF322.5992232
aF271.0634677
aF313.54089039999997
aF380.31769199999997
aF331.7678576
aF288.6893016
aF202.58576449999998
aF240.53521900000004
aF214.71867349999997
aF223.83682199999998
aa(lp168
F352.0103904
aF474.5114903
aF239.23793249999997
aF763.4008584000001
aF294.3221208
aF507.0369768
aF250.0216798
aF400.3231404999999
aF524.2758928000001
aF335.2467573
aF381.4764815
aF420.8326419
aa(lp169
F706.9133893999999
aF568.829038
aF504.39613650000007
aF400.2043474
aF654.8480483
aF634.4060046
aF458.3190931
aF908.6352267000001
aF603.4586638999999
aF527.6540168
aF710.8691819999999
aF577.1149232
aa(lp170
F830.2628458
aF1493.0276580000002
aF1460.3135215000002
aF864.4867216
aF1303.9020528
aF921.6772624000001
aF770.2813626000001
aF1388.5468976000002
aF948.2993688
aF1432.8780032000002
aF1054.7947488999998
aF1252.7971731999999
aa(lp171
F1750.3579025
aF1746.8537438
aF1693.9258465999999
aF2272.0209064
aF1400.8908204999998
aF2170.5509025
aF1732.1364104000002
aF2030.2429129
aF1935.7257719999998
aF1561.8113477
aF1736.6475974999998
aF1811.016721
aa(lp172
F2890.9526576000003
aF1946.7942315
aF2005.4085824000001
aF2151.0943878999997
aF2303.6424118
aF1722.153286
aF1840.9342589
aF1431.961471
aF1670.7003898
aF2320.4924772
aF1915.7645424999998
aF1918.996094
aa(lp173
F2773.8108494000003
aF2647.8126732
aF1993.8318427999998
aF2148.3595363000004
aF2328.066122
aF2153.9687238
aF2743.9275524000004
aF2714.3702491999998
aF3032.3107023000002
aF3317.1219812
aF2804.8236841
aF2404.4812063
aa(lp174
F2469.27133
aF3054.9406884
aF3555.2110652
aF3163.1517916000003
aF2969.8977143999996
aF3035.7577595999996
aF2734.456498
aF2727.7743883000003
aF3008.9816321000003
aF2719.9776064000002
aF2991.4767448000002
aF2758.9327484000005
aa(lp175
F3473.9976
aF2888.9433138000004
aF3307.655947
aF3530.2489414
aF3509.3539328
aF2920.4964038
aF3358.0088261
aF3072.633839
aF3629.890496
aF3529.0767396
aF3708.4087436
aF3564.5614515999996
aa(lp176
F3989.5550740000003
aF3564.8622964
aF3865.7737492
aF3871.3151612
aF3531.1760888
aF3843.385373
aF3613.6065648000003
aF3115.5145003
aF3551.8677988
aF3155.8116382999997
aF3733.3940465
aF3723.9905296
aasS'minimum_50'
p177
(lp178
(lp179
F74.73899119999999
aF75.2605456
aF74.973778
aF75.439506
aF75.8932002
aF76.0299928
aF75.7128381
aF74.7694171
aF74.9211467
aF75.76517190000001
aF75.6093508
aF75.379352
aa(lp180
F75.487144
aF75.3796825
aF74.62403499999999
aF75.372836
aF76.0597176
aF76.1283233
aF74.7383936
aF75.36732
aF75.9017606
aF76.1913924
aF74.57342980000001
aF74.65264830000001
aa(lp181
F75.60029399999999
aF75.1418482
aF74.6308376
aF76.07180299999999
aF76.0756425
aF75.1099904
aF75.63742649999999
aF76.19581500000001
aF75.099626
aF75.9004584
aF75.8995189
aF74.7713376
aa(lp182
F75.5913454
aF75.6091732
aF75.6789275
aF75.26994479999999
aF75.5969976
aF75.8423408
aF75.6068375
aF75.8922461
aF76.1062308
aF75.4455452
aF75.5007175
aF75.57420520000001
aa(lp183
F75.7436289
aF76.2345
aF75.597192
aF75.4247248
aF76.2146506
aF76.2261369
aF75.6426369
aF75.781315
aF76.3693578
aF75.787328
aF76.17946230000001
aF75.7439358
aa(lp184
F76.53699040000001
aF75.555655
aF75.7155483
aF76.26133999999999
aF76.5888946
aF76.5170339
aF75.79179400000001
aF76.2423546
aF76.068679
aF76.46514239999999
aF76.2482211
aF76.0265376
aa(lp185
F76.35424
aF77.800397
aF76.1206188
aF76.7159982
aF77.1123656
aF76.9667895
aF76.36352499999998
aF76.660397
aF76.515216
aF76.4241625
aF76.58444800000001
aF76.62793880000001
aa(lp186
F77.4093574
aF77.26682250000002
aF77.2209227
aF76.547219
aF77.43876159999999
aF76.70227310000001
aF77.32205619999999
aF77.4101225
aF76.9733004
aF77.4004433
aF77.4881601
aF77.52487199999999
aa(lp187
F78.07696049999998
aF78.2513968
aF77.87173999999999
aF77.8769136
aF78.7355316
aF78.6326144
aF77.95748549999999
aF78.06230719999999
aF77.78560959999999
aF78.3633384
aF78.0086476
aF77.94749920000001
aa(lp188
F78.81037280000001
aF79.7595991
aF79.0605152
aF78.96638320000001
aF80.0454446
aF79.85964799999999
aF80.45186760000001
aF79.7787287
aF80.4422197
aF78.8238853
aF78.9363284
aF79.1668746
aa(lp189
F80.12135540000001
aF80.5438305
aF80.3657484
aF80.88449789999999
aF81.24056039999999
aF81.20229599999999
aF79.4644928
aF80.2267136
aF80.5395748
aF81.0813526
aF80.99124929999999
aF81.6370284
aa(lp190
F84.79495360000001
aF83.71133209999999
aF82.98956100000001
aF83.0305062
aF82.59476079999999
aF82.8284811
aF83.38403
aF82.7325463
aF85.323656
aF83.1925412
aF85.0063565
aF84.4454921
aa(lp191
F100.52263429999999
aF95.9006345
aF87.69972150000001
aF95.7665839
aF92.30160380000001
aF93.88516479999998
aF94.65756669999999
aF86.9895105
aF91.79420399999998
aF89.13798799999999
aF92.198262
aF94.7797232
aa(lp192
F97.1872146
aF99.32213999999999
aF97.6181149
aF108.22979360000001
aF105.8040864
aF105.9539292
aF101.65896970000001
aF104.5955136
aF97.88768139999999
aF104.9299928
aF102.00154909999999
aF106.48039039999998
aa(lp193
F113.28311059999999
aF111.137809
aF126.61566479999999
aF104.955032
aF113.772323
aF113.90610080000002
aF116.811936
aF110.6320857
aF115.58150999999998
aF121.82433169999999
aF114.337882
aF126.442441
aa(lp194
F144.3805196
aF131.6138315
aF128.27738240000002
aF110.4266681
aF126.0754268
aF147.9254008
aF166.012866
aF138.1804058
aF154.410815
aF131.3062688
aF153.68347599999998
aF145.268201
aa(lp195
F186.9206624
aF134.12493239999998
aF162.6849264
aF169.1193034
aF129.60388600000002
aF240.5429038
aF148.75702760000001
aF136.97393359999998
aF148.31949790000002
aF154.179782
aF132.17137989999998
aF153.03056009999997
aa(lp196
F160.2949139
aF176.65554039999998
aF196.20175580000003
aF145.97434040000002
aF158.881841
aF168.3098834
aF198.650872
aF179.25120629999998
aF199.47847130000002
aF157.3549336
aF175.405153
aF154.73954460000002
aa(lp197
F195.284384
aF201.90797870000003
aF250.72367350000002
aF296.1379894
aF246.7571147
aF220.8468086
aF241.61645090000002
aF250.934355
aF321.18416
aF264.114033
aF202.05053450000003
aF328.556383
aa(lp198
F308.003564
aF241.01800120000001
aF315.4307852
aF197.83238120000001
aF426.6517208
aF289.3323794
aF273.1114848
aF425.5679802
aF452.17666119999996
aF219.1370429
aF259.69251169999995
aF235.416072
aasS'random_x'
p199
(lp200
(lp201
I5
aI5
aI5
aI5
aI5
aI5
aI5
aI5
aI5
aI5
aI5
aI5
aa(lp202
I10
aI10
aI10
aI10
aI10
aI10
aI10
aI10
aI10
aI10
aI10
aI10
aa(lp203
I15
aI15
aI15
aI15
aI15
aI15
aI15
aI15
aI15
aI15
aI15
aI15
aa(lp204
I20
aI20
aI20
aI20
aI20
aI20
aI20
aI20
aI20
aI20
aI20
aI20
aa(lp205
I25
aI25
aI25
aI25
aI25
aI25
aI25
aI25
aI25
aI25
aI25
aI25
aa(lp206
I30
aI30
aI30
aI30
aI30
aI30
aI30
aI30
aI30
aI30
aI30
aI30
aa(lp207
I35
aI35
aI35
aI35
aI35
aI35
aI35
aI35
aI35
aI35
aI35
aI35
aa(lp208
I40
aI40
aI40
aI40
aI40
aI40
aI40
aI40
aI40
aI40
aI40
aI40
aa(lp209
I45
aI45
aI45
aI45
aI45
aI45
aI45
aI45
aI45
aI45
aI45
aI45
aa(lp210
I50
aI50
aI50
aI50
aI50
aI50
aI50
aI50
aI50
aI50
aI50
aI50
aa(lp211
I55
aI55
aI55
aI55
aI55
aI55
aI55
aI55
aI55
aI55
aI55
aI55
aa(lp212
I60
aI60
aI60
aI60
aI60
aI60
aI60
aI60
aI60
aI60
aI60
aI60
aa(lp213
I65
aI65
aI65
aI65
aI65
aI65
aI65
aI65
aI65
aI65
aI65
aI65
aa(lp214
I70
aI70
aI70
aI70
aI70
aI70
aI70
aI70
aI70
aI70
aI70
aI70
aa(lp215
I75
aI75
aI75
aI75
aI75
aI75
aI75
aI75
aI75
aI75
aI75
aI75
aa(lp216
I80
aI80
aI80
aI80
aI80
aI80
aI80
aI80
aI80
aI80
aI80
aI80
aa(lp217
I85
aI85
aI85
aI85
aI85
aI85
aI85
aI85
aI85
aI85
aI85
aI85
aa(lp218
I90
aI90
aI90
aI90
aI90
aI90
aI90
aI90
aI90
aI90
aI90
aI90
aa(lp219
I95
aI95
aI95
aI95
aI95
aI95
aI95
aI95
aI95
aI95
aI95
aI95
aa(lp220
I100
aI100
aI100
aI100
aI100
aI100
aI100
aI100
aI100
aI100
aI100
aI100
aasS'single_x'
p221
(lp222
(lp223
I5
aI5
aI5
aI5
aI5
aI5
aI5
aI5
aI5
aI5
aI5
aI5
aa(lp224
I10
aI10
aI10
aI10
aI10
aI10
aI10
aI10
aI10
aI10
aI10
aI10
aa(lp225
I15
aI15
aI15
aI15
aI15
aI15
aI15
aI15
aI15
aI15
aI15
aI15
aa(lp226
I20
aI20
aI20
aI20
aI20
aI20
aI20
aI20
aI20
aI20
aI20
aI20
aa(lp227
I25
aI25
aI25
aI25
aI25
aI25
aI25
aI25
aI25
aI25
aI25
aI25
aa(lp228
I30
aI30
aI30
aI30
aI30
aI30
aI30
aI30
aI30
aI30
aI30
aI30
aa(lp229
I35
aI35
aI35
aI35
aI35
aI35
aI35
aI35
aI35
aI35
aI35
aI35
aa(lp230
I40
aI40
aI40
aI40
aI40
aI40
aI40
aI40
aI40
aI40
aI40
aI40
aa(lp231
I45
aI45
aI45
aI45
aI45
aI45
aI45
aI45
aI45
aI45
aI45
aI45
aa(lp232
I50
aI50
aI50
aI50
aI50
aI50
aI50
aI50
aI50
aI50
aI50
aI50
aa(lp233
I55
aI55
aI55
aI55
aI55
aI55
aI55
aI55
aI55
aI55
aI55
aI55
aa(lp234
I60
aI60
aI60
aI60
aI60
aI60
aI60
aI60
aI60
aI60
aI60
aI60
aa(lp235
I65
aI65
aI65
aI65
aI65
aI65
aI65
aI65
aI65
aI65
aI65
aI65
aa(lp236
I70
aI70
aI70
aI70
aI70
aI70
aI70
aI70
aI70
aI70
aI70
aI70
aa(lp237
I75
aI75
aI75
aI75
aI75
aI75
aI75
aI75
aI75
aI75
aI75
aI75
aa(lp238
I80
aI80
aI80
aI80
aI80
aI80
aI80
aI80
aI80
aI80
aI80
aI80
aa(lp239
I85
aI85
aI85
aI85
aI85
aI85
aI85
aI85
aI85
aI85
aI85
aI85
aa(lp240
I90
aI90
aI90
aI90
aI90
aI90
aI90
aI90
aI90
aI90
aI90
aI90
aa(lp241
I95
aI95
aI95
aI95
aI95
aI95
aI95
aI95
aI95
aI95
aI95
aI95
aa(lp242
I100
aI100
aI100
aI100
aI100
aI100
aI100
aI100
aI100
aI100
aI100
aI100
aasS'minimum_95'
p243
(lp244
(lp245
F91.52759749999998
aF91.5345456
aF86.97395319999998
aF89.5978585
aF101.1218322
aF89.2288862
aF89.602252
aF87.17732620000001
aF88.2992117
aF86.78040060000001
aF101.98592289999999
aF87.0125968
aa(lp246
F87.78553360000001
aF86.913905
aF99.67871
aF85.4683088
aF100.98586560000001
aF88.6123559
aF87.0116932
aF85.68339
aF89.415134
aF89.4067968
aF87.9014379
aF87.0180801
aa(lp247
F90.35535540000001
aF87.89830239999999
aF90.20351120000001
aF87.871271
aF100.4066551
aF89.4078698
aF93.98593949999999
aF95.634905
aF87.1874242
aF98.5740984
aF92.73366899999999
aF87.0205152
aa(lp248
F100.31648419999999
aF107.9503852
aF104.122571
aF98.7128704
aF93.48866059999999
aF88.32872800000001
aF95.441025
aF102.6544271
aF88.40008840000002
aF90.52699999999999
aF95.0842771
aF106.00262920000002
aa(lp249
F107.5962255
aF102.42990000000002
aF104.40618480000002
aF99.4380006
aF106.770806
aF100.807449
aF101.2559466
aF103.090135
aF108.9752778
aF103.61148800000001
aF101.2718395
aF106.6524392
aa(lp250
F117.6491488
aF107.5666417
aF102.06428729999999
aF103.54663
aF108.54590380000002
aF104.9253997
aF110.156532
aF103.8464106
aF106.3211518
aF115.24167600000001
aF111.7987656
aF101.1867639
aa(lp251
F116.3284
aF126.1090862
aF117.127351
aF115.3137747
aF122.2765374
aF114.7329495
aF109.71470999999998
aF119.740829
aF117.35589279999999
aF114.62966999999999
aF119.24358500000001
aF120.62724610000001
aa(lp252
F127.15788540000001
aF122.32140750000002
aF124.26104330000001
aF122.35506400000001
aF126.29473440000001
aF118.2671847
aF120.5342082
aF122.69886580000001
aF125.77715199999999
aF128.3306121
aF120.0709892
aF121.77606
aa(lp253
F127.78887759999998
aF132.7052272
aF130.855356
aF130.6930848
aF147.64021359999998
aF135.3135476
aF136.0218285
aF133.7968224
aF126.0403765
aF130.2326344
aF132.528513
aF131.5040944
aa(lp254
F131.4219896
aF159.8256636
aF137.1161952
aF144.92254580000002
aF163.0612709
aF163.37632
aF199.01158590000003
aF141.87917620000002
aF158.52217549999997
aF137.0763286
aF137.2856404
aF143.0504586
aa(lp255
F144.4036488
aF161.46250369999998
aF224.77343119999998
aF190.222964
aF217.753706
aF264.541404
aF164.24754560000002
aF186.4985576
aF157.5211382
aF170.99657280000002
aF164.87346809999997
aF182.10642359999997
aa(lp256
F249.898288
aF378.8115293
aF184.25425049999998
aF499.35093480000006
aF222.1694064
aF386.2184416
aF191.91314759999997
aF238.91105739999998
aF430.9796128000001
aF282.3179044
aF302.725232
aF332.04529909999997
aa(lp257
F476.5371707
aF508.19869199999994
aF305.26741300000003
aF342.30107230000004
aF553.2153636
aF519.4071377999999
aF368.0984797
aF834.5010862
aF479.3348706999999
aF439.92823039999996
aF612.125646
aF502.5552368
aa(lp258
F520.1224493
aF1331.001267
aF1209.3858670000002
aF754.1854928
aF1047.7373616
aF627.2114148000001
aF414.4030321000001
aF1266.4183332000002
aF621.6109524999999
aF1197.188816
aF923.1516229999999
aF728.6467799999999
aa(lp259
F1460.8696796
aF1465.2415562
aF1259.0150597999998
aF1943.5378864
aF1241.670027
aF1580.3070957
aF1494.4928008000002
aF1479.1386702
aF1503.449322
aF1363.6509723
aF1258.9685345
aF1365.45067
aa(lp260
F2108.1264584
aF1593.040324
aF1547.2797504
aF1708.1458013999998
aF1721.0661340000001
aF1184.7616388000001
aF1546.3983054
aF959.6600283999999
aF1402.441599
aF1662.7268868
aF1430.133376
aF1530.3859140000002
aa(lp261
F2196.5757882000003
aF2001.2948184
aF1750.1886631999998
aF1760.5460515000002
aF2039.9205460000005
aF1576.3078908
aF2032.1793020000002
aF1991.0233039999998
aF2199.821571
aF2539.2425264
aF2154.5163021999997
aF1999.4390316999998
aa(lp262
F2066.8626959
aF2353.7789004
aF2709.3128459
aF2455.6555280000002
aF2324.2182816
aF2281.7204425
aF1951.4064979000002
aF2241.6565353
aF2166.8248558
aF2274.5952928
aF2559.2410857
aF2266.1664886000003
aa(lp263
F2854.2725312
aF2408.0491668
aF2571.2212459
aF2739.1007716
aF2720.8898777000004
aF2392.7883596
aF2371.5985922
aF2299.8518425
aF2509.864992
aF2768.4006318
aF2734.4425919000005
aF2527.4956623
aa(lp264
F3134.8940920000005
aF2686.8729336
aF2930.6778196
aF3028.2819944000003
aF2658.5530232
aF2904.323036
aF2681.3134080000004
aF2701.4524472
aF2529.9832876
aF2668.6546064
aF3011.4407647999997
aF2794.3737232
aas.