(dp0
S'single_99'
p1
(lp2
(lp3
F133.2433375
aF181.6556682
aF123.87742250000001
aF127.35602499999999
aF177.5787003
aF173.70409759999998
aF131.9979831
aF163.94268800000003
aF128.7812235
aF160.4994271
aF172.583182
aF185.4774111
aa(lp4
F120.52086639999999
aF128.271
aF129.83013400000002
aF125.00311959999999
aF138.9210407
aF123.7457905
aF133.9346122
aF125.4542912
aF131.906339
aF125.50588400000001
aF128.8968472
aF155.79579999999999
aa(lp5
F123.35956750000003
aF132.5678615
aF133.46073990000002
aF130.1942604
aF137.46060999999997
aF135.480356
aF131.02588199999997
aF126.28897200000003
aF129.6257882
aF127.874327
aF171.40697520000003
aF136.92757189999998
aa(lp6
F134.1572056
aF135.9103184
aF137.29481149999998
aF138.45604
aF129.54514700000001
aF128.020792
aF139.68196669999998
aF161.81158800000003
aF129.82898719999997
aF131.8948944
aF132.1940512
aF132.87877600000002
aa(lp7
F144.3612072
aF137.4828224
aF151.2349371
aF137.5367425
aF132.28789440000003
aF136.0433266
aF137.7295648
aF138.82782
aF138.332604
aF133.5656672
aF141.00324
aF136.4783124
aa(lp8
F149.79775020000002
aF140.71141980000002
aF153.46459099999998
aF153.8056127
aF134.27813600000002
aF137.6742638
aF171.14141339999998
aF135.9112508
aF152.0193129
aF143.778695
aF139.6634822
aF147.230611
aa(lp9
F152.6763684
aF165.3515411
aF145.71118399999997
aF149.1532804
aF165.60464050000002
aF147.6223422
aF145.09402849999998
aF154.040463
aF165.3995092
aF160.10576410000002
aF166.43479259999998
aF143.21039700000003
aa(lp10
F162.99924719999999
aF163.0242578
aF185.2902236
aF193.72738719999998
aF162.6547968
aF179.506362
aF166.81625609999998
aF159.3186748
aF167.918862
aF157.3463255
aF171.4604755
aF170.4540557
aa(lp11
F199.6193598
aF201.4744332
aF194.9978919
aF176.4892632
aF174.74092940000003
aF183.865688
aF174.63517380000002
aF182.18862750000002
aF167.6151888
aF236.443616
aF186.12152719999997
aF172.46088060000002
aa(lp12
F210.07363880000003
aF216.4647704
aF240.3211074
aF207.27271000000002
aF180.7097448
aF195.13103339999998
aF218.3864279
aF232.7832234
aF199.48521899999997
aF214.477474
aF208.26851249999999
aF198.34127719999998
aa(lp13
F211.631957
aF245.34789100000003
aF288.1827544
aF276.466655
aF246.0917632
aF380.26400550000005
aF222.8131434
aF282.7712492
aF215.3099888
aF196.17175799999998
aF235.669583
aF243.9888888
aa(lp14
F370.04642279999996
aF405.07261980000004
aF467.4056904000001
aF306.5934834
aF337.16746
aF342.0633013
aF348.82948000000005
aF408.18193520000005
aF261.200003
aF230.43440059999998
aF517.4894053
aF825.2400769999999
aa(lp15
F443.48314880000004
aF1011.3959520000001
aF464.1699689
aF357.2212328
aF500.4967635
aF517.3402516
aF896.2915816
aF417.40749320000003
aF665.7817077999999
aF969.2683840000001
aF446.59312600000004
aF1339.8830249999999
aa(lp16
F1677.8448260000002
aF1219.3252302999997
aF760.801748
aF1483.7484556000002
aF1176.8230916
aF1031.6034588
aF1827.7526377000002
aF1062.209512
aF818.4698264
aF1155.5392925
aF1384.6577292
aF1528.8118421999998
aa(lp17
F1404.17244
aF1364.0563472000001
aF1658.6665262
aF1467.1885428
aF1386.7578905999999
aF1636.7465995999999
aF2420.8017167999997
aF1845.5734084999997
aF1381.8516952
aF802.905825
aF1694.88338
aF1868.9184642999999
aa(lp18
F1928.0779795999997
aF2534.4224160000003
aF2044.6365168000002
aF1888.6864428999997
aF2560.2316126
aF1758.8865375
aF2107.0873994999997
aF1555.5368071999999
aF2663.3530083000005
aF1944.334174
aF2148.2294934
aF1974.4690175
aa(lp19
F2613.0605456
aF2080.3362936
aF2489.7517014
aF2423.5220344
aF2689.6128225
aF2299.8812802
aF2620.9185056
aF2499.2049911999998
aF2695.01828
aF2222.1043720000002
aF2289.9389657
aF2329.931791
aa(lp20
F2995.0738499999998
aF2797.900078
aF3123.8248344999997
aF3283.813296
aF3574.3185917
aF3215.0127732
aF3074.8213342
aF2694.8929952
aF3362.3805972
aF3517.6758848
aF2427.3310388
aF2975.002245
aa(lp21
F2939.810165
aF3069.2250172
aF3325.5578258000005
aF3063.2696839
aF2435.5655338
aF3431.466976
aF3077.6782416
aF3378.0319966
aF3359.566257
aF3543.0066523
aF3546.0131704
aF3581.768684
aa(lp22
F3481.2034643999996
aF3207.7036485
aF3472.4243904
aF3587.2734091999996
aF3364.1388558000003
aF3566.7745335
aF4237.2223687999995
aF3414.2502096000003
aF3760.634182
aF3279.5797828000004
aF3394.4846718999997
aF3467.5087418
aasS'random_99'
p23
(lp24
(lp25
F131.0937732
aF160.01410529999998
aF228.1180084
aF169.4578414
aF170.43952159999998
aF139.4538396
aF127.63814150000002
aF204.74174879999998
aF125.70266750000002
aF133.1164061
aF149.70248270000002
aF136.04362120000002
aa(lp26
F134.329081
aF125.3408478
aF130.81223999999997
aF124.915242
aF131.79735599999998
aF136.8979072
aF130.3457246
aF123.70504720000001
aF132.1403515
aF121.44244979999999
aF134.5003112
aF119.38777900000001
aa(lp27
F150.89868890000002
aF132.17200739999998
aF122.2147296
aF131.300976
aF143.015433
aF126.56567040000002
aF135.3739342
aF158.5304992
aF130.0369991
aF130.8974656
aF127.9257546
aF176.13696929999998
aa(lp28
F135.5067822
aF124.95883760000001
aF131.5005295
aF141.4932402
aF127.3535632
aF132.6833926
aF128.6314665
aF133.5317636
aF130.95468
aF156.8354805
aF169.26973670000004
aF134.63371920000003
aa(lp29
F132.0490302
aF133.528264
aF140.85166850000002
aF136.4760144
aF134.80179320000002
aF136.01135499999998
aF138.9480608
aF133.2475277
aF133.30970000000002
aF144.1182895
aF133.15560420000003
aF131.6819536
aa(lp30
F133.83781599999998
aF147.7746615
aF159.5638838
aF155.66380279999998
aF141.4769786
aF152.0279625
aF156.8905422
aF139.24434390000002
aF139.90541629999998
aF141.4669283
aF153.9232796
aF150.977203
aa(lp31
F133.24746900000002
aF151.76957550000003
aF148.5920304
aF151.4163742
aF161.4247145
aF146.76405359999998
aF161.3333476
aF168.7658272
aF150.00761440000002
aF167.79666999999998
aF147.00134200000002
aF175.8803675
aa(lp32
F161.12560620000002
aF165.6708246
aF159.09933769999998
aF167.6115678
aF150.7357628
aF168.094398
aF182.572259
aF171.2295643
aF153.8425216
aF167.2947144
aF156.008334
aF164.0244782
aa(lp33
F200.57335840000002
aF249.4118832
aF183.97178720000002
aF195.288859
aF210.43931339999997
aF172.9369294
aF188.5058715
aF170.3827046
aF150.509699
aF263.08219249999996
aF259.3937082
aF188.35031800000002
aa(lp34
F222.18722499999996
aF179.85691479999997
aF247.19915020000002
aF175.6443783
aF204.7841355
aF216.24000750000002
aF266.346739
aF188.6316804
aF230.43777719999997
aF227.4971983
aF207.0731214
aF195.8828826
aa(lp35
F339.7798764
aF282.38755819999994
aF257.24032639999996
aF229.84237799999997
aF319.4472592
aF404.145805
aF229.00626620000003
aF371.8664976
aF268.857759
aF320.2159504
aF229.8819633
aF259.5231648
aa(lp36
F397.54139039999995
aF1250.249969
aF787.0008798
aF330.52989219999995
aF691.40908
aF288.18338120000004
aF498.3846735
aF358.44372319999997
aF482.7104999999999
aF370.97432680000003
aF346.373164
aF718.3326677
aa(lp37
F759.034351
aF563.8555408
aF881.8740052
aF375.76402690000003
aF403.2454704
aF476.18493480000006
aF306.79312660000005
aF828.5127024
aF908.8699346000001
aF590.1181629999999
aF794.2699098
aF598.6732256
aa(lp38
F1450.9915945999999
aF1465.6534724000003
aF754.7137626000001
aF1313.6829999999998
aF1133.9441444
aF1536.2042817
aF1455.4697352
aF797.822096
aF1643.4146640000001
aF954.350081
aF1338.0872212
aF1016.7051964
aa(lp39
F1958.3023236000004
aF1849.3247482000002
aF1835.2301504999998
aF1504.2769973999998
aF1761.2849631000001
aF1844.619888
aF1712.1841124999999
aF1353.910805
aF1756.1093872
aF1624.0323741
aF2053.8836635999996
aF1972.5920016999996
aa(lp40
F2436.1709445999995
aF2006.7128016
aF2887.9888994000003
aF2164.965815
aF2036.4890792
aF2096.81857
aF2563.3101248000003
aF2252.6693307
aF1907.8260339999995
aF2093.746996
aF2679.9716936
aF2480.62932
aa(lp41
F1861.8709012
aF2554.0718519999996
aF2322.9025682
aF2308.9621009999996
aF2163.6300287000004
aF2772.439045
aF2609.5873589999997
aF2310.353526
aF3029.246482
aF2512.49741
aF2041.6150171999998
aF2898.736426
aa(lp42
F3016.9348864000003
aF2310.9824774
aF3173.6908441
aF2670.4746160000004
aF3199.8471179
aF2899.719558
aF2968.2079473999997
aF3483.849148
aF3194.9125236
aF2980.9053604
aF2948.1225600000002
aF3126.7043540000004
aa(lp43
F3333.9939172
aF2979.3579071999998
aF3243.3473994
aF3092.9947116000003
aF3621.8390419
aF3434.8610018000004
aF3408.8151880000005
aF3719.0467477
aF3353.3722585000005
aF3131.7293258
aF3132.4341885
aF3613.109832
aa(lp44
F3397.2679264
aF3200.9958085
aF3231.320937
aF3326.2799873000004
aF3652.9482815999995
aF4065.7441468
aF3435.952951
aF3264.8192157999997
aF3526.7968115999997
aF3171.7379618000004
aF3605.4311893
aF3890.9598599999995
aasS'single_95'
p45
(lp46
(lp47
F89.5136575
aF111.87825670000001
aF104.367275
aF89.7643228
aF101.014206
aF122.9164486
aF112.755181
aF84.9015698
aF84.0760245
aF99.7379718
aF95.23352080000001
aF117.4702161
aa(lp48
F86.9180848
aF95.022168
aF110.76365280000002
aF105.69070959999999
aF89.4311758
aF100.54365250000001
aF97.449073
aF106.06623680000001
aF110.13437060000001
aF87.7888696
aF89.4086352
aF89.749296
aa(lp49
F93.67720500000001
aF96.2205917
aF100.8195372
aF102.14299650000001
aF110.5065604
aF105.86094800000001
aF94.0391535
aF96.25832600000001
aF98.8200664
aF99.162056
aF117.11213810000002
aF95.21533579999999
aa(lp50
F113.26601679999999
aF112.5220164
aF111.600279
aF114.065192
aF105.34402060000001
aF106.4183472
aF117.1976698
aF116.958864
aF101.04261919999999
aF103.8164176
aF113.2254528
aF110.8255785
aa(lp51
F118.3399392
aF120.3782272
aF125.3260667
aF118.40168349999999
aF112.181072
aF120.149618
aF108.5069728
aF114.06896839999999
aF115.99984800000001
aF113.1784928
aF116.96092499999999
aF111.71502480000001
aa(lp52
F120.18184440000002
aF122.0692277
aF119.6009383
aF113.19083450000002
aF114.5744324
aF112.4121656
aF125.35656199999997
aF118.13889830000001
aF122.384256
aF119.3947942
aF117.06528409999999
aF120.8711505
aa(lp53
F128.86861240000002
aF127.8178993
aF126.45232299999998
aF123.8789291
aF126.05070790000002
aF123.6836274
aF123.90502599999998
aF124.3943885
aF122.5553726
aF123.80378239999999
aF127.3704197
aF122.29446600000003
aa(lp54
F126.56190899999999
aF128.633318
aF141.82082839999998
aF134.69044
aF130.44385
aF132.62728199999998
aF131.39576160000001
aF131.140727
aF137.810628
aF127.2652215
aF133.382001
aF130.04007719999998
aa(lp55
F151.7430942
aF139.29412
aF146.50610160000002
aF135.9136239
aF139.3506041
aF136.23023600000002
aF137.7744632
aF134.28901000000002
aF131.9652048
aF144.8321172
aF147.28494419999998
aF139.7491536
aa(lp56
F157.9595362
aF166.072493
aF164.35763939999998
aF161.785268
aF141.995178
aF161.54878799999997
aF155.6558168
aF161.69932260000002
aF161.27784300000002
aF157.0706245
aF161.26876249999998
aF148.1498204
aa(lp57
F165.1188815
aF204.80609890000002
aF197.72193149999998
aF186.792965
aF185.6999216
aF214.9207305
aF175.2055537
aF215.5865234
aF177.564864
aF155.432313
aF179.9889674
aF184.78821440000002
aa(lp58
F308.0869136
aF234.40130360000003
aF349.7306460000001
aF215.5546145
aF268.9731555
aF279.5503893
aF236.71644
aF285.9962504
aF203.9405756
aF175.234797
aF363.2413273
aF735.6428429999999
aa(lp59
F241.70749990000002
aF700.7045600000001
aF392.8210976
aF283.9489568
aF414.7557255
aF460.631091
aF759.8960912
aF307.0267913
aF508.74543059999996
aF770.0881600000001
aF317.18783740000003
aF1191.2619599999998
aa(lp60
F1436.0323112
aF920.0049747999999
aF613.4962395
aF1118.594136
aF692.2934460000001
aF479.7955275
aF1588.3963318
aF789.335392
aF716.484099
aF959.909939
aF1143.215746
aF1403.2092647999998
aa(lp61
F1288.8337000000001
aF1063.3033496
aF1302.3487519999999
aF1180.1181262
aF1091.8916252
aF1359.8850107999997
aF1667.5368672
aF1230.7227793
aF1101.4127944
aF602.9906550000001
aF1145.02294
aF1502.0997946
aa(lp62
F1535.0691659999998
aF1949.9348256
aF1744.6300808
aF1332.7552033
aF2039.7974984
aF1456.8182537
aF1665.837411
aF1397.066201
aF2128.5128871
aF1480.896324
aF1457.5422832000002
aF1578.327121
aa(lp63
F2177.0411096
aF1869.3071066999998
aF1986.7077545999998
aF1729.9523605999998
aF1919.8717394999999
aF1984.5677904
aF1921.6609144000004
aF1838.6970827999999
aF1949.2988864
aF1747.4220268000001
aF1825.9848295000002
aF2171.1700366
aa(lp64
F2053.6031
aF2488.8368256999997
aF2149.8161155
aF2596.7216808
aF2772.0227845
aF2649.9663528
aF2016.9573694
aF2106.1253976
aF2539.6684775
aF2709.615496
aF1858.8462728000002
aF2394.82184
aa(lp65
F2417.5516922
aF2357.3999494
aF2427.5570806
aF2548.2231064
aF2149.7887464
aF2667.624628
aF2636.2239126
aF2671.5579153000003
aF2375.2443309
aF2607.4615377
aF2634.0741202
aF2683.8994496
aa(lp66
F2766.6226557
aF2381.5024629
aF2803.9996158
aF2801.178888
aF2647.6589845000003
aF2856.2353884
aF3162.081227
aF2759.2862088
aF2717.735976
aF2622.2883165000003
aF2867.7468584999997
aF2751.7647656
aasS'single_50'
p67
(lp68
(lp69
F77.16161500000001
aF76.0511894
aF76.04448250000002
aF75.9061336
aF75.4688694
aF76.3166672
aF76.9876395
aF75.2160686
aF75.5331015
aF75.5096992
aF74.711044
aF76.0781826
aa(lp70
F75.1239142
aF75.17169759999999
aF75.8420804
aF75.84324
aF74.6471702
aF75.89518699999999
aF75.20494120000001
aF75.2656384
aF75.682025
aF75.5924776
aF76.2551674
aF75.50492
aa(lp71
F75.71202
aF75.2247405
aF76.17844980000001
aF75.0781968
aF75.4940836
aF75.536316
aF75.58164299999999
aF75.49068
aF75.840948
aF75.794726
aF75.5766777
aF75.837008
aa(lp72
F75.49183239999999
aF75.53586440000001
aF75.7941515
aF75.892968
aF75.6793856
aF76.0257584
aF75.7967674
aF76.080432
aF75.83560879999999
aF76.3217776
aF76.0815136
aF76.03366500000001
aa(lp73
F76.69009199999999
aF76.55521279999999
aF76.46117509999999
aF75.8271555
aF76.2638608
aF75.9627491
aF76.026512
aF75.7974842
aF76.4208
aF75.95276480000001
aF76.0276375
aF76.113354
aa(lp74
F76.7010894
aF76.43280680000001
aF76.9685341
aF76.56051120000001
aF76.7244608
aF76.2378502
aF77.10619519999999
aF76.3912938
aF76.89918750000001
aF76.29164879999999
aF76.2397328
aF76.6580435
aa(lp75
F76.52168560000001
aF77.2038015
aF77.88710549999999
aF77.1765994
aF77.1999108
aF76.46385480000001
aF76.5536023
aF77.26819
aF76.65533540000001
aF77.3204839
aF77.51403199999999
aF77.258961
aa(lp76
F77.40444299999999
aF77.76569
aF78.1884596
aF77.42119360000001
aF77.7618152
aF77.873339
aF78.0928998
aF77.74377100000001
aF77.5761095
aF76.98224400000001
aF77.756717
aF77.1967195
aa(lp77
F79.1490207
aF78.7727112
aF78.96473040000001
aF77.7360009
aF79.00900190000002
aF77.698772
aF78.7221003
aF78.15875400000002
aF78.1745779
aF78.3972584
aF79.4679554
aF78.9562068
aa(lp78
F79.8940666
aF80.32234700000001
aF81.0385539
aF80.648577
aF79.2739332
aF80.01756119999999
aF79.91608980000001
aF79.62412499999999
aF79.851321
aF80.3290596
aF79.853775
aF79.21835039999999
aa(lp79
F81.2142728
aF81.8391676
aF81.6506576
aF83.081748
aF81.14131520000001
aF82.931889
aF81.55213230000001
aF82.84173799999999
aF81.11461600000001
aF80.4487824
aF81.962072
aF83.6119896
aa(lp80
F92.055056
aF83.77290240000002
aF85.41518960000002
aF84.43821159999999
aF87.43323050000001
aF85.653806
aF86.90272000000002
aF84.76072160000001
aF85.98072199999999
aF83.8250544
aF85.48539110000002
aF93.323969
aa(lp81
F93.44841890000001
aF100.27000000000001
aF94.6714013
aF91.0591856
aF90.6052545
aF99.6150004
aF96.98970159999999
aF96.3695849
aF101.61155070000001
aF87.305104
aF100.8671044
aF97.57379399999999
aa(lp82
F109.1819168
aF106.92607179999999
aF113.63682700000001
aF107.1352694
aF109.6483984
aF102.9761598
aF112.46098810000001
aF106.05421199999999
aF104.74244540000001
aF125.29622549999999
aF113.18843369999999
aF105.7362162
aa(lp83
F123.45344
aF127.0883732
aF116.08154719999999
aF127.90017979999999
aF123.04532459999999
aF127.2078636
aF114.97150559999999
aF116.46117469999999
aF124.3853056
aF122.7829725
aF124.68705599999998
aF113.73260679999999
aa(lp84
F132.32049919999997
aF128.6484496
aF128.97498240000002
aF145.68827389999998
aF136.1316551
aF149.3853186
aF159.38752499999998
aF143.7226682
aF173.85124740000003
aF154.0464984
aF159.6678066
aF141.410549
aa(lp85
F165.91844
aF184.9221681
aF174.9189266
aF178.3240102
aF174.462531
aF159.83035619999998
aF159.11798960000002
aF179.16079919999999
aF162.305792
aF153.8103736
aF192.4086448
aF187.64660820000003
aa(lp86
F193.38138999999998
aF175.3774951
aF226.2325732
aF177.19264439999998
aF166.4680076
aF226.941072
aF220.2991058
aF172.16589759999997
aF207.8734204
aF148.14781920000001
aF205.53487280000002
aF171.83201780000002
aa(lp87
F176.3489654
aF309.233737
aF227.38520800000003
aF206.4780007
aF282.0150563
aF158.671624
aF268.2430512
aF174.6057115
aF323.0429643
aF314.68650510000003
aF238.8919376
aF192.4379408
aa(lp88
F311.4543621
aF437.6423748
aF275.9093448
aF437.53471879999995
aF340.37486470000005
aF267.38844529999994
aF228.53306569999998
aF279.2455802
aF358.128452
aF297.3772147
aF254.26240479999998
aF267.0518822
aasS'random_50'
p89
(lp90
(lp91
F73.9719518
aF73.2548945
aF74.6085432
aF74.5423895
aF73.4398064
aF74.7894093
aF75.37431910000001
aF74.51387159999999
aF74.43473
aF74.9062305
aF74.2598713
aF74.7182152
aa(lp92
F74.645932
aF74.75972759999999
aF74.34935039999999
aF74.422938
aF74.959053
aF75.4659552
aF74.90554730000001
aF74.9533329
aF75.379579
aF74.4400984
aF74.89519440000001
aF74.34910400000001
aa(lp93
F75.5943259
aF75.17481380000001
aF75.0088272
aF74.357176
aF75.59059500000001
aF75.10471620000001
aF74.9883202
aF75.1023136
aF75.20487349999999
aF74.5269719
aF74.5489407
aF74.8999989
aa(lp94
F75.4996695
aF75.1058799
aF75.2460205
aF74.6796469
aF74.9937128
aF75.06710899999999
aF75.24758499999999
aF75.318622
aF75.5989056
aF75.1788565
aF75.44475260000002
aF75.16942590000001
aa(lp95
F75.57523359999999
aF75.73315
aF75.0578855
aF75.4902792
aF75.39244020000001
aF75.829736
aF75.60591680000002
aF76.10462050000001
aF75.64386
aF75.257366
aF75.22823340000001
aF75.3183708
aa(lp96
F75.38519199999999
aF76.3217711
aF75.7560177
aF76.47272720000001
aF76.3872266
aF76.31215750000001
aF75.6504444
aF76.22475790000001
aF76.51418000000001
aF75.6681556
aF76.58900930000001
aF75.7219164
aa(lp97
F76.2861078
aF76.62456960000002
aF76.06316519999999
aF76.8213873
aF76.40667400000001
aF77.03251499999999
aF77.1492728
aF75.83257119999999
aF76.21198720000001
aF76.99925999999999
aF76.23069000000001
aF77.3628158
aa(lp98
F77.3358798
aF76.785625
aF77.48064439999999
aF77.4871488
aF77.32537160000001
aF77.77601999999999
aF77.260598
aF77.15736849999999
aF77.4957752
aF77.31674939999999
aF77.2010013
aF77.2864056
aa(lp99
F78.3404684
aF79.12166239999999
aF78.388116
aF78.0031426
aF78.03366539999999
aF78.04489179999999
aF78.7432151
aF78.5109062
aF78.034861
aF77.512895
aF78.720635
aF77.998258
aa(lp100
F79.53355219999999
aF78.6407972
aF79.64193639999999
aF78.93076970000001
aF79.82126349999999
aF79.1378575
aF80.40852029999999
aF79.6155682
aF79.971306
aF79.7400883
aF80.840938
aF79.8318916
aa(lp101
F83.49926219999999
aF82.4341492
aF81.49391119999999
aF81.06544199999999
aF81.1991062
aF83.4045685
aF81.30224960000001
aF81.926199
aF80.01554250000001
aF81.6179488
aF82.1092559
aF82.6128672
aa(lp102
F90.86065119999999
aF94.7188232
aF93.5473443
aF86.1044956
aF83.77373499999999
aF86.05452020000001
aF84.99371250000002
aF86.39563039999999
aF86.29279199999999
aF84.8437016
aF84.93404000000001
aF86.3583779
aa(lp103
F95.5125178
aF94.6192026
aF96.47143480000001
aF98.66012850000001
aF97.3655264
aF100.98089440000001
aF99.27872620000001
aF105.50509059999999
aF107.73646070000001
aF97.4083675
aF99.6555634
aF100.8804912
aa(lp104
F115.60262839999999
aF108.27933680000001
aF109.7146026
aF105.30605399999999
aF115.4918394
aF94.4806946
aF100.81533400000001
aF112.1983136
aF110.344831
aF120.86461700000001
aF111.4373279
aF109.79423589999999
aa(lp105
F118.33205000000001
aF120.2054959
aF115.57555620000001
aF116.22203189999999
aF115.6718644
aF120.6083128
aF145.6152321
aF122.47259439999999
aF115.75422879999999
aF131.4022076
aF130.9898237
aF125.28789629999999
aa(lp106
F138.50100279999998
aF151.2008348
aF129.2398921
aF146.15363100000002
aF121.31020050000001
aF161.76112750000001
aF152.004682
aF126.48728
aF137.418018
aF144.370665
aF123.91564880000001
aF117.089448
aa(lp107
F167.83352879999998
aF148.57086899999996
aF163.975387
aF140.04378300000002
aF165.1984985
aF166.28735999999998
aF229.336843
aF179.68596639999998
aF184.150471
aF192.18348
aF165.9105936
aF151.612976
aa(lp108
F179.709778
aF168.15525920000002
aF195.31565
aF168.90633350000002
aF210.9313769
aF171.8670452
aF211.9719698
aF184.37902479999997
aF195.9903898
aF195.21790199999998
aF194.36755600000004
aF263.346584
aa(lp109
F275.4097112
aF184.8739072
aF262.2647508
aF363.5236428
aF250.7494015
aF219.1802216
aF234.70404000000002
aF379.6364299
aF262.95689150000004
aF247.41229280000005
aF271.81937849999997
aF294.31469500000003
aa(lp110
F453.20277439999995
aF268.5571915
aF330.93719880000003
aF392.08101320000003
aF349.7786564
aF389.13615719999996
aF242.0911368
aF308.27674949999994
aF480.662058
aF534.5937033
aF474.9101809
aF296.93487
aasS'random_95'
p111
(lp112
(lp113
F90.2101641
aF97.7890405
aF118.1584888
aF88.69408949999999
aF85.65572
aF94.111773
aF85.9936615
aF114.13166519999999
aF88.399535
aF100.08753440000001
aF86.90168500000001
aF111.4644964
aa(lp114
F90.988978
aF99.7272462
aF89.600368
aF85.960158
aF88.39994999999999
aF107.94764
aF86.20270520000001
aF86.6700933
aF94.4064295
aF86.25893359999999
aF92.080338
aF85.14933300000001
aa(lp115
F115.50358640000002
aF102.22884590000001
aF95.8117584
aF100.291976
aF105.926355
aF94.9044561
aF90.217093
aF114.9875236
aF97.5082658
aF106.2889671
aF90.83886389999999
aF104.0373254
aa(lp116
F111.9206775
aF100.9604996
aF104.01927649999999
aF110.846484
aF101.4426936
aF107.73586129999998
aF112.15678399999999
aF105.22555679999999
aF106.1475792
aF116.847192
aF120.43930630000003
aF113.48717850000001
aa(lp117
F107.3183372
aF115.38455400000001
aF123.03427400000001
aF116.699468
aF114.01592730000002
aF109.604728
aF110.64353600000001
aF117.51051240000001
aF113.15592800000002
aF119.079499
aF117.52750080000001
aF115.1780844
aa(lp118
F110.286328
aF120.15624500000001
aF122.07929820000001
aF120.8061926
aF120.9844358
aF122.48828750000001
aF123.850752
aF118.55747980000001
aF121.68730310000001
aF116.9320934
aF120.758816
aF122.34512459999999
aa(lp119
F120.31089300000001
aF123.64112610000002
aF121.62187199999998
aF122.7351921
aF125.17522199999999
aF123.5915388
aF127.26840759999999
aF124.9141228
aF118.8950224
aF125.84965279999999
aF119.9602185
aF129.46255430000002
aa(lp120
F129.24212160000002
aF126.737096
aF130.7903737
aF131.1886142
aF127.4086838
aF135.14140099999997
aF132.911121
aF130.37236330000002
aF127.1749672
aF130.495563
aF128.8294428
aF129.2031656
aa(lp121
F148.4501568
aF157.2277744
aF141.4026144
aF145.4215354
aF152.53451459999997
aF133.459565
aF142.6582919
aF136.03368319999998
aF130.410755
aF146.03381
aF151.739874
aF139.601386
aa(lp122
F161.30776199999997
aF143.64363479999997
aF173.8911402
aF138.3532419
aF152.191634
aF148.66326250000003
aF190.05405090000002
aF144.8822084
aF170.06260559999998
aF170.4573781
aF159.8170815
aF156.1143342
aa(lp123
F254.06001719999995
aF210.9977012
aF181.68249999999998
aF171.810558
aF212.300382
aF241.86473499999997
aF184.1778098
aF299.4905424
aF170.38707200000002
aF238.81153999999998
aF182.5379357
aF190.79563199999998
aa(lp124
F316.64656319999995
aF1118.417888
aF718.257831
aF238.88382999999996
aF592.2944798
aF216.3232082
aF300.0711495
aF268.7324384
aF409.52661599999993
aF237.072246
aF269.854396
aF583.7413497
aa(lp125
F530.5767439
aF446.62670599999996
aF604.838374
aF273.211978
aF326.234736
aF383.91640320000005
aF246.79356700000002
aF556.5103108
aF770.144702
aF433.081738
aF685.1089340000001
aF475.72259519999994
aa(lp126
F1330.2935468
aF1118.2431350000002
aF561.7101678
aF1049.14719
aF845.6437996000001
aF1124.7385691
aF1320.3131404
aF638.529488
aF1239.251089
aF858.147191
aF978.0968982999999
aF808.6337608
aa(lp127
F1446.5266608000002
aF1341.700475
aF1368.5472519
aF1138.8104735999998
aF1436.9046322000002
aF1394.2115312
aF1335.2032763999998
aF1120.6348128
aF1638.9669072
aF1379.7521895999998
aF1617.1794013999997
aF1247.0838013999999
aa(lp128
F1754.3111932
aF1619.7903219999998
aF2175.662885
aF1716.290681
aF1881.9808154000002
aF1568.5832050000001
aF1680.8818272
aF1744.8180040999998
aF1645.1623209999996
aF1419.9359189
aF2246.656124
aF1673.028808
aa(lp129
F1635.0793888
aF1820.3184074999997
aF1961.4772881
aF2020.4296575
aF1666.6655741
aF1951.565596
aF1974.386961
aF1994.6357681999996
aF2084.430658
aF1934.681072
aF1714.4352356
aF2007.979776
aa(lp130
F2212.860514
aF1912.1430008
aF2127.6337637
aF2321.365599
aF2483.1278761999997
aF2435.2292629999997
aF2312.1290071
aF2709.1782471999995
aF2333.1217054000003
aF2174.1180648
aF2227.3302460000004
aF2440.2180080000003
aa(lp131
F2278.7643955999997
aF2624.218912
aF2513.9856348
aF2263.7421432
aF2631.0171889
aF2665.9335826
aF2413.1947128
aF2694.0560545
aF2651.2321705000004
aF2517.6175802000002
aF2657.6378913
aF2760.770792
aa(lp132
F2914.6877888
aF2592.7611475
aF2750.987148
aF2410.5176579000004
aF2989.7710854999996
aF2903.9081624
aF2898.7275574
aF2773.4134452
aF2939.89913
aF2276.0850107
aF2652.3926561
aF3030.6856799999996
aasS'minimum_x'
p133
(lp134
(lp135
I5
aI5
aI5
aI5
aI5
aI5
aI5
aI5
aI5
aI5
aI5
aI5
aa(lp136
I10
aI10
aI10
aI10
aI10
aI10
aI10
aI10
aI10
aI10
aI10
aI10
aa(lp137
I15
aI15
aI15
aI15
aI15
aI15
aI15
aI15
aI15
aI15
aI15
aI15
aa(lp138
I20
aI20
aI20
aI20
aI20
aI20
aI20
aI20
aI20
aI20
aI20
aI20
aa(lp139
I25
aI25
aI25
aI25
aI25
aI25
aI25
aI25
aI25
aI25
aI25
aI25
aa(lp140
I30
aI30
aI30
aI30
aI30
aI30
aI30
aI30
aI30
aI30
aI30
aI30
aa(lp141
I35
aI35
aI35
aI35
aI35
aI35
aI35
aI35
aI35
aI35
aI35
aI35
aa(lp142
I40
aI40
aI40
aI40
aI40
aI40
aI40
aI40
aI40
aI40
aI40
aI40
aa(lp143
I45
aI45
aI45
aI45
aI45
aI45
aI45
aI45
aI45
aI45
aI45
aI45
aa(lp144
I50
aI50
aI50
aI50
aI50
aI50
aI50
aI50
aI50
aI50
aI50
aI50
aa(lp145
I55
aI55
aI55
aI55
aI55
aI55
aI55
aI55
aI55
aI55
aI55
aI55
aa(lp146
I60
aI60
aI60
aI60
aI60
aI60
aI60
aI60
aI60
aI60
aI60
aI60
aa(lp147
I65
aI65
aI65
aI65
aI65
aI65
aI65
aI65
aI65
aI65
aI65
aI65
aa(lp148
I70
aI70
aI70
aI70
aI70
aI70
aI70
aI70
aI70
aI70
aI70
aI70
aa(lp149
I75
aI75
aI75
aI75
aI75
aI75
aI75
aI75
aI75
aI75
aI75
aI75
aa(lp150
I80
aI80
aI80
aI80
aI80
aI80
aI80
aI80
aI80
aI80
aI80
aI80
aa(lp151
I85
aI85
aI85
aI85
aI85
aI85
aI85
aI85
aI85
aI85
aI85
aI85
aa(lp152
I90
aI90
aI90
aI90
aI90
aI90
aI90
aI90
aI90
aI90
aI90
aI90
aa(lp153
I95
aI95
aI95
aI95
aI95
aI95
aI95
aI95
aI95
aI95
aI95
aI95
aa(lp154
I100
aI100
aI100
aI100
aI100
aI100
aI100
aI100
aI100
aI100
aI100
aI100
aasS'minimum_99'
p155
(lp156
(lp157
F222.76926479999997
aF138.7800968
aF220.3554502
aF173.52690429999998
aF132.74389250000002
aF189.3047165
aF226.86968659999997
aF175.03718880000002
aF132.5400248
aF220.3543325
aF133.4202835
aF139.4612047
aa(lp158
F137.74766880000004
aF134.7620725
aF127.02798179999999
aF199.541789
aF130.4956448
aF122.11577070000001
aF124.60869139999997
aF126.78488499999997
aF135.8711496
aF129.60981199999998
aF126.05650160000002
aF125.2931979
aa(lp159
F134.3075718
aF130.3256604
aF141.196252
aF134.523465
aF129.11756259999999
aF132.5112764
aF127.9181445
aF138.39049599999998
aF130.7595834
aF127.95786230000002
aF126.4695308
aF137.0215692
aa(lp160
F136.29941
aF134.0826221
aF139.72844700000002
aF131.59653600000001
aF130.95330159999997
aF133.8283358
aF127.9732704
aF138.9348252
aF137.5529547
aF138.2211672
aF132.18520139999998
aF131.3282006
aa(lp161
F138.2261828
aF131.41170720000002
aF134.92621999999997
aF131.1836672
aF134.1562871
aF133.99053089999998
aF153.94694049999998
aF136.67904800000002
aF144.8506994
aF130.58212559999998
aF148.9206275
aF136.5872952
aa(lp162
F151.7173189
aF154.01523650000001
aF140.94782999999998
aF156.4426278
aF138.2166665
aF147.804416
aF141.67805869999998
aF145.0697919
aF138.28975780000002
aF146.7788112
aF139.82283
aF169.54847740000002
aa(lp163
F143.0300092
aF158.4066783
aF144.9102812
aF151.504904
aF165.010472
aF138.090092
aF146.77164499999998
aF142.17279200000002
aF146.84490559999998
aF146.9358239
aF153.9871583
aF154.8290078
aa(lp164
F154.39734439999998
aF167.75620320000002
aF164.3312264
aF170.640152
aF197.6116017
aF160.67652800000002
aF160.93823
aF153.3077988
aF164.2245392
aF153.9393072
aF171.84936700000003
aF175.0234666
aa(lp165
F174.560432
aF187.551052
aF154.7653052
aF174.2210598
aF171.95432870000002
aF166.91323999999997
aF235.61969180000003
aF185.3830618
aF172.1825058
aF176.68370260000003
aF234.4761934
aF167.0258365
aa(lp166
F183.32701400000002
aF192.1929287
aF181.48756400000002
aF242.99539439999995
aF207.07132409999997
aF193.4589509
aF206.41208240000003
aF198.483872
aF180.18893899999998
aF207.11799639999998
aF176.6273078
aF219.54307039999998
aa(lp167
F236.11462179999998
aF269.383665
aF246.955085
aF218.3169623
aF282.5773532
aF306.1185596
aF371.0737702
aF228.61747759999997
aF482.5025882
aF240.55732970000003
aF226.7407714
aF228.92714660000001
aa(lp168
F280.32349280000005
aF254.01894850000002
aF364.1622684
aF312.641416
aF393.134056
aF260.3668945
aF544.5498512
aF328.58220800000004
aF454.56035929999996
aF797.8392343999999
aF252.8852062
aF418.5019046
aa(lp169
F933.4580821000001
aF1239.7083148000002
aF1016.9371574999999
aF933.9666096
aF361.113834
aF1009.9106694999999
aF377.4883761
aF835.561958
aF1155.5938642
aF406.1313288
aF430.0152776
aF1084.8478054
aa(lp170
F679.5797475
aF1107.4999360000002
aF793.0656277
aF1541.3449705
aF1024.6464752000002
aF1839.670613
aF2016.7769506000004
aF904.2406859999999
aF1400.4250898
aF951.2744424
aF825.6133168
aF1051.3087342000001
aa(lp171
F1950.2361098
aF1283.2500192000002
aF852.3035903
aF1919.38499
aF1702.193581
aF1020.7017571000001
aF1323.2496856
aF1568.6679192000001
aF1955.9478368000002
aF1388.8781953
aF1642.8594335
aF1197.5269008
aa(lp172
F2345.4245163
aF1415.889067
aF1994.9787544
aF2113.9063220000003
aF1998.2478864000002
aF2375.6637229999997
aF1596.1948678
aF1948.8267812000004
aF1885.6103366999998
aF1696.0613589
aF1983.3168099999998
aF2603.6482295000005
aa(lp173
F2151.6784390000003
aF2553.0297361999997
aF2920.5517737
aF2752.593987
aF2922.2394206
aF2412.8138428
aF2253.927028
aF2606.1552432
aF2360.9918088
aF2392.548333
aF2787.6685412
aF3001.6662240000005
aa(lp174
F2676.2142803999996
aF2727.656124
aF3563.0587600000003
aF2859.2152913
aF2915.1523288
aF3360.1448696
aF2951.3038643
aF2866.2135634
aF3027.4871764000004
aF2725.8641651000003
aF3312.3019596
aF2712.2941217999996
aa(lp175
F3198.9393856
aF3389.8389918
aF3444.7679864
aF3464.241456
aF3431.9165273000003
aF3321.1059937999994
aF3531.8858772999997
aF3550.2209664
aF2878.3478812
aF3370.5270299000003
aF3175.1246435999997
aF3048.3161115
aa(lp176
F3210.7833702000003
aF3551.476922
aF3725.743706
aF3504.2616927000004
aF3579.5413163999997
aF3425.3715371999997
aF3266.0690136000003
aF3693.8744643
aF3639.4949852
aF3550.2276524
aF3380.579487
aF3658.1730264
aasS'minimum_50'
p177
(lp178
(lp179
F74.6418532
aF75.0697242
aF74.7640706
aF75.1716759
aF75.5829245
aF75.8053325
aF75.1852365
aF75.67058399999999
aF75.82670970000001
aF75.4739252
aF74.9717785
aF74.7262393
aa(lp180
F75.8676696
aF75.29182349999999
aF75.17736500000001
aF76.4224136
aF75.3806114
aF74.9540568
aF74.9240236
aF75.1166284
aF75.2338479
aF75.1070696
aF75.6765488
aF75.2039083
aa(lp181
F74.7456034
aF75.1104947
aF75.7549152
aF75.44044840000001
aF75.20432779999999
aF75.22128710000001
aF75.711085
aF75.267436
aF75.9608037
aF75.7365149
aF74.6453406
aF75.8246412
aa(lp182
F75.5329112
aF75.50100020000001
aF75.4630125
aF75.303534
aF75.3605173
aF76.320267
aF75.6104154
aF75.5724656
aF75.4649883
aF76.4646784
aF75.6047644
aF75.7585852
aa(lp183
F76.05445839999999
aF75.8384912
aF76.22428
aF76.31014640000001
aF76.7105066
aF75.63268679999999
aF76.415785
aF75.73017200000001
aF76.4183783
aF76.4162096
aF75.596948
aF75.3739304
aa(lp184
F76.2108362
aF76.18153
aF75.8241175
aF76.5912113
aF76.081255
aF76.4153936
aF75.02065909999999
aF75.6816757
aF76.6523752
aF76.48160949999999
aF76.5419441
aF75.9459976
aa(lp185
F76.55470940000001
aF77.1578921
aF76.538675
aF76.4217712
aF77.029416
aF76.47362150000001
aF76.50173749999999
aF76.5520688
aF76.81477439999999
aF76.8189653
aF76.6812841
aF76.9918562
aa(lp186
F77.41281339999999
aF77.2768704
aF77.80453800000001
aF78.6959546
aF77.50143779999999
aF77.2856594
aF77.781294
aF77.41189899999999
aF77.5757726
aF77.1881808
aF77.4109267
aF77.51321519999999
aa(lp187
F78.46532869999999
aF78.640292
aF78.19859679999999
aF78.0092127
aF78.2947484
aF77.96072000000001
aF78.19536380000001
aF77.8714808
aF78.7466741
aF78.03536820000001
aF78.5077642
aF78.1330149
aa(lp188
F78.203762
aF78.62083709999999
aF79.0283394
aF79.18162799999999
aF79.7127897
aF79.18591090000001
aF79.0286446
aF79.486345
aF79.13638359999999
aF79.88153489999999
aF78.920822
aF78.6865924
aa(lp189
F81.6762854
aF82.06198499999999
aF82.19955949999999
aF81.2732579
aF81.0229148
aF81.9829028
aF82.4891716
aF80.92956939999999
aF80.0225752
aF81.4982834
aF80.4682674
aF80.3662512
aa(lp190
F83.0210888
aF84.238103
aF85.340364
aF84.1539568
aF86.0131474
aF84.0214963
aF83.97721039999999
aF83.79340350000001
aF86.9974259
aF84.4730106
aF83.141344
aF85.5386726
aa(lp191
F94.2047617
aF89.8687596
aF93.9495125
aF102.52482989999999
aF97.04242599999999
aF86.9456279
aF104.0082251
aF89.58521
aF91.43877
aF99.6314256
aF94.6079888
aF94.50276919999999
aa(lp192
F116.76747300000001
aF109.7907576
aF117.34357580000001
aF101.2412158
aF114.43846370000001
aF121.1079077
aF98.3471088
aF111.029124
aF100.8243883
aF104.192016
aF111.2742896
aF105.0779316
aa(lp193
F113.7210308
aF125.11007680000002
aF121.9523297
aF123.073759
aF118.54807779999999
aF137.97260590000002
aF119.9198152
aF133.5689024
aF118.7856176
aF120.9044064
aF126.3996515
aF123.01212799999999
aa(lp194
F123.05256229999999
aF130.2952783
aF128.69617
aF121.42492200000001
aF121.46617200000001
aF133.844084
aF137.4518366
aF135.95066720000003
aF130.35278019999998
aF131.8247172
aF128.69438
aF128.9275335
aa(lp195
F168.68694950000003
aF180.53939039999997
aF156.12724930000002
aF167.15482500000002
aF170.4329153
aF148.37710479999998
aF209.91719920000003
aF168.665976
aF166.10855600000002
aF145.8740841
aF139.35193
aF223.322222
aa(lp196
F271.82125999999994
aF189.19725300000002
aF159.42611
aF222.3702112
aF167.4049675
aF163.9985234
aF259.237967
aF435.7135513
aF204.2151736
aF181.532418
aF189.99963639999999
aF191.6058227
aa(lp197
F233.61517280000004
aF269.6609868
aF175.5756432
aF225.99484800000002
aF223.0792561
aF196.838585
aF252.6131308
aF250.9055808
aF254.9905572
aF232.28630750000002
aF227.61246509999998
aF399.6693689999999
aa(lp198
F332.41875600000003
aF250.82861279999997
aF337.261264
aF350.1846848
aF453.28814959999994
aF248.99319559999998
aF248.3728827
aF259.55347750000004
aF430.3738214
aF287.784497
aF290.130833
aF451.4229392
aasS'random_x'
p199
(lp200
(lp201
I5
aI5
aI5
aI5
aI5
aI5
aI5
aI5
aI5
aI5
aI5
aI5
aa(lp202
I10
aI10
aI10
aI10
aI10
aI10
aI10
aI10
aI10
aI10
aI10
aI10
aa(lp203
I15
aI15
aI15
aI15
aI15
aI15
aI15
aI15
aI15
aI15
aI15
aI15
aa(lp204
I20
aI20
aI20
aI20
aI20
aI20
aI20
aI20
aI20
aI20
aI20
aI20
aa(lp205
I25
aI25
aI25
aI25
aI25
aI25
aI25
aI25
aI25
aI25
aI25
aI25
aa(lp206
I30
aI30
aI30
aI30
aI30
aI30
aI30
aI30
aI30
aI30
aI30
aI30
aa(lp207
I35
aI35
aI35
aI35
aI35
aI35
aI35
aI35
aI35
aI35
aI35
aI35
aa(lp208
I40
aI40
aI40
aI40
aI40
aI40
aI40
aI40
aI40
aI40
aI40
aI40
aa(lp209
I45
aI45
aI45
aI45
aI45
aI45
aI45
aI45
aI45
aI45
aI45
aI45
aa(lp210
I50
aI50
aI50
aI50
aI50
aI50
aI50
aI50
aI50
aI50
aI50
aI50
aa(lp211
I55
aI55
aI55
aI55
aI55
aI55
aI55
aI55
aI55
aI55
aI55
aI55
aa(lp212
I60
aI60
aI60
aI60
aI60
aI60
aI60
aI60
aI60
aI60
aI60
aI60
aa(lp213
I65
aI65
aI65
aI65
aI65
aI65
aI65
aI65
aI65
aI65
aI65
aI65
aa(lp214
I70
aI70
aI70
aI70
aI70
aI70
aI70
aI70
aI70
aI70
aI70
aI70
aa(lp215
I75
aI75
aI75
aI75
aI75
aI75
aI75
aI75
aI75
aI75
aI75
aI75
aa(lp216
I80
aI80
aI80
aI80
aI80
aI80
aI80
aI80
aI80
aI80
aI80
aI80
aa(lp217
I85
aI85
aI85
aI85
aI85
aI85
aI85
aI85
aI85
aI85
aI85
aI85
aa(lp218
I90
aI90
aI90
aI90
aI90
aI90
aI90
aI90
aI90
aI90
aI90
aI90
aa(lp219
I95
aI95
aI95
aI95
aI95
aI95
aI95
aI95
aI95
aI95
aI95
aI95
aa(lp220
I100
aI100
aI100
aI100
aI100
aI100
aI100
aI100
aI100
aI100
aI100
aI100
aasS'single_x'
p221
(lp222
(lp223
I5
aI5
aI5
aI5
aI5
aI5
aI5
aI5
aI5
aI5
aI5
aI5
aa(lp224
I10
aI10
aI10
aI10
aI10
aI10
aI10
aI10
aI10
aI10
aI10
aI10
aa(lp225
I15
aI15
aI15
aI15
aI15
aI15
aI15
aI15
aI15
aI15
aI15
aI15
aa(lp226
I20
aI20
aI20
aI20
aI20
aI20
aI20
aI20
aI20
aI20
aI20
aI20
aa(lp227
I25
aI25
aI25
aI25
aI25
aI25
aI25
aI25
aI25
aI25
aI25
aI25
aa(lp228
I30
aI30
aI30
aI30
aI30
aI30
aI30
aI30
aI30
aI30
aI30
aI30
aa(lp229
I35
aI35
aI35
aI35
aI35
aI35
aI35
aI35
aI35
aI35
aI35
aI35
aa(lp230
I40
aI40
aI40
aI40
aI40
aI40
aI40
aI40
aI40
aI40
aI40
aI40
aa(lp231
I45
aI45
aI45
aI45
aI45
aI45
aI45
aI45
aI45
aI45
aI45
aI45
aa(lp232
I50
aI50
aI50
aI50
aI50
aI50
aI50
aI50
aI50
aI50
aI50
aI50
aa(lp233
I55
aI55
aI55
aI55
aI55
aI55
aI55
aI55
aI55
aI55
aI55
aI55
aa(lp234
I60
aI60
aI60
aI60
aI60
aI60
aI60
aI60
aI60
aI60
aI60
aI60
aa(lp235
I65
aI65
aI65
aI65
aI65
aI65
aI65
aI65
aI65
aI65
aI65
aI65
aa(lp236
I70
aI70
aI70
aI70
aI70
aI70
aI70
aI70
aI70
aI70
aI70
aI70
aa(lp237
I75
aI75
aI75
aI75
aI75
aI75
aI75
aI75
aI75
aI75
aI75
aI75
aa(lp238
I80
aI80
aI80
aI80
aI80
aI80
aI80
aI80
aI80
aI80
aI80
aI80
aa(lp239
I85
aI85
aI85
aI85
aI85
aI85
aI85
aI85
aI85
aI85
aI85
aI85
aa(lp240
I90
aI90
aI90
aI90
aI90
aI90
aI90
aI90
aI90
aI90
aI90
aI90
aa(lp241
I95
aI95
aI95
aI95
aI95
aI95
aI95
aI95
aI95
aI95
aI95
aI95
aa(lp242
I100
aI100
aI100
aI100
aI100
aI100
aI100
aI100
aI100
aI100
aI100
aI100
aasS'minimum_95'
p243
(lp244
(lp245
F114.840942
aF88.2921168
aF126.1589636
aF115.97666240000001
aF113.9284072
aF111.7360865
aF103.9479795
aF88.09140959999999
aF89.7646097
aF115.12654760000001
aF90.21158500000001
aF93.6175008
aa(lp246
F103.80253440000001
aF101.71893850000001
aF95.9800381
aF103.07900599999999
aF86.4058454
aF87.1845282
aF87.18422999999999
aF88.39818279999999
aF94.0997412
aF87.7556144
aF87.8711112
aF85.9567721
aa(lp247
F115.50813539999999
aF91.14912029999999
aF104.3137
aF106.9540466
aF89.7678362
aF102.8883689
aF91.392805
aF106.158428
aF88.6109589
aF98.1982255
aF89.60501919999999
aF95.84604
aa(lp248
F111.9606092
aF105.18706470000001
aF99.5594548
aF118.00857
aF105.7024666
aF112.5086946
aF89.7705114
aF116.7017376
aF117.67678939999999
aF120.0097904
aF109.6727032
aF110.02150350000001
aa(lp249
F118.41508349999998
aF116.02971040000001
aF117.46372
aF115.0512674
aF119.04265909999998
aF115.9790721
aF117.171824
aF112.19721200000001
aF123.84011090000001
aF113.329794
aF113.1850445
aF116.63227760000001
aa(lp250
F118.2586464
aF121.812357
aF117.65091749999999
aF118.5808429
aF120.4915943
aF123.44103799999999
aF113.3139845
aF121.12246590000001
aF119.545695
aF118.1737167
aF117.27556279999999
aF124.6954302
aa(lp251
F123.81539560000002
aF125.52448310000001
aF123.97990490000001
aF123.72489719999999
aF124.88004
aF121.5779405
aF119.64344
aF123.8002288
aF125.18275319999998
aF123.32828570000001
aF125.041465
aF124.60742630000001
aa(lp252
F127.89400259999998
aF132.4989984
aF130.9173949
aF133.5362852
aF137.0817279
aF126.1464302
aF130.02196320000002
aF125.12644159999999
aF130.7313905
aF126.4702318
aF130.1586481
aF131.9487844
aa(lp253
F136.5404411
aF134.93615
aF127.0085398
aF133.78181840000002
aF132.87376519999998
aF135.26072
aF148.80816020000003
aF131.2392784
aF134.8976171
aF136.1210651
aF149.6444583
aF132.1482927
aa(lp254
F136.598204
aF143.03836389999998
aF143.6397627
aF175.64195039999996
aF149.2933683
aF149.6678895
aF163.8658866
aF152.07808649999998
aF139.135508
aF162.4096191
aF137.4439202
aF163.2732106
aa(lp255
F170.163954
aF206.209295
aF186.97641199999998
aF167.46702020000004
aF201.49568179999997
aF225.7013546
aF299.9406556
aF177.6897598
aF313.2376647
aF182.50599680000002
aF175.8909206
aF165.3217333
aa(lp256
F199.63474960000002
aF205.08896950000002
aF281.9740038
aF235.2995904
aF315.6540919
aF206.19927059999998
aF470.40661839999996
aF243.367737
aF383.71633669999994
aF741.9282642000001
aF189.17866
aF337.72434499999997
aa(lp257
F816.6425587000001
aF1124.5731972
aF911.4722125
aF842.6422862999999
aF290.62683999999996
aF942.4903102
aF306.68158589999996
aF730.9117819999999
aF989.0892974000001
aF325.7249812
aF344.948945
aF1019.0606783999999
aa(lp258
F568.4140635
aF937.7022904
aF695.0379723
aF1431.9476994
aF852.6284780000001
aF1485.1004201
aF1758.4198896000003
aF813.7858799999999
aF1090.9221033
aF678.1602192
aF711.4222128
aF826.7527134
aa(lp259
F1718.7904663999998
aF861.676464
aF693.866131
aF1493.364967
aF1400.2182822999998
aF889.8547369000001
aF922.2319804000001
aF1349.8635848000001
aF1653.7403270000002
aF1121.2177711000002
aF1274.1102485
aF1026.9999791999999
aa(lp260
F1850.1952893
aF909.097015
aF1606.4839516
aF1464.7077120000001
aF1414.0259232000003
aF1748.7970699999998
aF1324.0740916000002
aF1696.2416516000003
aF1435.5185932
aF1360.3623334
aF1708.2021099999997
aF1996.1490225000002
aa(lp261
F1723.2529584000001
aF1814.1909719999999
aF2058.6034642
aF2136.0706005
aF2282.8943009
aF1864.9417326999999
aF1880.2510928000004
aF2128.6354159999996
aF1816.3602052
aF1850.9590995
aF2132.9918834000005
aF2321.1187095
aa(lp262
F2010.0705159999998
aF2151.336016
aF2701.128955
aF2116.4420293
aF2524.6687933
aF2427.8917262
aF2359.498519
aF2298.1337101
aF2161.9449172
aF2093.47544
aF2616.54157
aF2147.2584924999996
aa(lp263
F2535.1718048
aF2358.5380511999997
aF2547.9131694000002
aF2923.051992
aF2530.3994713
aF2755.7759293999998
aF2751.0527121
aF2823.3153312
aF2392.1815417999996
aF2394.3628829
aF2555.1137345999996
aF2335.7716502999997
aa(lp264
F2585.7051601000003
aF2892.6924808
aF2724.322954
aF2994.3630151
aF2561.0403451999996
aF2948.0787056
aF2488.1211528000003
aF2996.6355967
aF2880.6727532
aF2744.0376392
aF2624.282456
aF2804.763729
aas.