(dp0
S'single_99'
p1
(lp2
(lp3
F228.4957704
aF236.86416599999998
aF288.8008
aF212.39416949999998
aF245.9685194
aF204.33517
aF245.97654150000002
aF288.1774622
aF202.6223432
aF236.87511049999998
aF296.25042500000006
aF296.23719539999996
aa(lp4
F345.717552
aF229.57816799999998
aF231.57223739999998
aF227.67170120000006
aF208.1206625
aF213.40460180000002
aF229.5726855
aF245.9738164
aF243.26881699999998
aF216.1707232
aF217.4072562
aF216.887136
aa(lp5
F216.160692
aF238.59111200000004
aF228.47154580000003
aF234.19421049999997
aF245.95967359999997
aF270.3149123
aF223.8646126
aF249.66674900000004
aF243.84407599999997
aF254.3321264
aF318.550076
aF238.6043148
aa(lp6
F216.2921787
aF217.59510550000002
aF315.3842669
aF229.5702258
aF243.24208
aF229.56429579999997
aF236.88124559999997
aF254.30804449999997
aF212.39408619999998
aF243.85154999999997
aF236.87861120000002
aF218.99737149999999
aa(lp7
F212.40796070000002
aF243.27583639999997
aF234.77068419999998
aF217.8729658
aF261.608928
aF256.4563232
aF238.60395249999996
aF213.38347999999996
aF245.48118900000003
aF243.8314518
aF231.577823
aF216.17330680000003
aa(lp8
F243.84716160000002
aF279.7457975
aF269.876691
aF218.7553832
aF241.39052920000003
aF245.97941
aF243.8152422
aF229.58607439999997
aF284.7887654
aF241.80103999999997
aF244.75145790000002
aF254.32999349999997
aa(lp9
F288.7942628
aF271.4268692
aF254.3207048
aF269.50786100000005
aF243.83638
aF293.955171
aF266.45514860000003
aF268.4865888
aF276.7017476
aF237.6401196
aF242.07875239999996
aF264.286766
aa(lp10
F296.74358040000004
aF280.5485415
aF236.87283449999998
aF255.6961728
aF263.9849506
aF278.82618579999996
aF239.3965145
aF271.5801184
aF269.0613143
aF268.004336
aF281.1804844999999
aF259.76535559999996
aa(lp11
F290.85488000000004
aF261.7867668
aF299.9162639
aF245.9599396
aF314.6915019
aF252.9005842
aF321.6619506
aF285.99345359999995
aF279.7454653
aF258.7863278
aF283.12659679999996
aF302.52535659999995
aa(lp12
F319.417523
aF283.90850720000003
aF286.5875212
aF369.1556608
aF376.9264208
aF282.2185817
aF315.3518508
aF294.77444119999996
aF333.1345711999999
aF346.143544
aF571.025686
aF279.96918
aa(lp13
F432.76097459999994
aF457.47248799999994
aF447.11546380000004
aF328.6231054
aF317.9996775
aF416.73054299999995
aF367.7673901
aF273.46898000000004
aF304.579816
aF414.1335422
aF301.98722499999997
aF327.16646560000004
aa(lp14
F411.8543919999999
aF412.4711855
aF575.5875484000001
aF479.08774999999997
aF617.162002
aF576.6301292
aF568.2522855999999
aF632.6081552
aF352.0979768
aF421.64748019999996
aF615.6249816000001
aF377.71096000000006
aa(lp15
F672.0782078
aF731.622628
aF500.8355456
aF676.496001
aF941.3871533999999
aF747.5036288
aF605.5003264000001
aF693.7593036000001
aF883.9729789000002
aF415.9112636
aF679.4917552
aF711.6576252000001
aa(lp16
F545.3524590000001
aF695.5425756
aF1640.9634324
aF892.8810643999999
aF1324.2168248
aF1313.601694
aF1531.9422339999999
aF1227.603758
aF1807.5792683
aF1249.7885752
aF1376.6520992
aF1111.7922826
aa(lp17
F2023.1756272
aF1185.8818792
aF1503.9130192
aF803.4758216
aF1030.7146228
aF1831.3204433
aF1426.8640059000002
aF1428.8808508
aF1005.58236
aF529.6566982
aF1001.9978914999999
aF1455.9345506
aa(lp18
F2436.2272540000004
aF1651.579
aF1757.8295148
aF1547.7442142999998
aF2051.1654494000004
aF1430.9778402
aF1384.5052532
aF1997.3794815999997
aF1346.3843722
aF1631.8306739
aF2165.867036
aF1174.659545
aa(lp19
F2365.7443908999994
aF1988.1149440000002
aF2761.9425286
aF1950.5834538
aF2588.941492
aF2750.0613698
aF2416.4124675
aF2051.425899
aF1628.8221616
aF2399.8611665000003
aF2868.1442095
aF2366.1393794
aa(lp20
F2088.132078
aF2723.1286625000002
aF3277.5238904000003
aF2395.3088890000004
aF2843.3387359999997
aF2958.4560462000004
aF2298.7218255
aF3025.0065591000002
aF2992.4165593
aF2825.1803245
aF2734.352146
aF2043.1113915999997
aa(lp21
F3188.6775829999997
aF3229.9626061999998
aF3131.0901859000005
aF2771.3786264
aF3415.1244012
aF2837.2474996
aF3569.8124439
aF2791.704142
aF3686.8515495
aF2688.7775999999994
aF2846.3300576
aF2847.983818
aa(lp22
F3985.1728040000007
aF2787.7806676
aF3963.0735757
aF3123.5904778000004
aF4274.261761
aF3445.5369689999998
aF3100.209537
aF2928.8511190000004
aF2688.6588840000004
aF3132.1726943999997
aF3997.2391529999995
aF3362.3511877999995
aasS'minimum_50'
p23
(lp24
(lp25
F57.253144999999996
aF50.822383
aF52.5360412
aF59.6288117
aF56.080276
aF57.27993599999999
aF65.41671079999999
aF59.3092257
aF64.1745188
aF58.7042761
aF58.9188666
aF57.524682199999994
aa(lp26
F56.7454862
aF59.202928
aF58.9223072
aF67.0288264
aF54.7765506
aF57.51139719999999
aF57.854833
aF63.797732
aF57.96434639999999
aF62.050681999999995
aF61.7862439
aF57.96088999999999
aa(lp27
F59.6188108
aF61.063866700000005
aF57.36032
aF58.9134598
aF59.542640000000006
aF58.706787999999996
aF60.463375199999994
aF55.835587999999994
aF64.05766659999999
aF61.2099669
aF63.556029499999994
aF58.849633000000004
aa(lp28
F59.62745149999999
aF61.9138896
aF61.7978968
aF56.7462
aF59.5514642
aF58.8615963
aF60.91939109999999
aF58.93947360000001
aF63.291376
aF58.620318
aF62.268464200000004
aF57.222531499999995
aa(lp29
F60.60615399999999
aF61.023113599999995
aF63.6871952
aF62.043935
aF61.6056948
aF63.861778599999994
aF59.5000958
aF61.132269
aF63.61694400000001
aF61.2495212
aF58.1703737
aF63.218911
aa(lp30
F61.67723839999999
aF60.3774988
aF64.2962024
aF62.316267200000006
aF63.4295675
aF61.8232541
aF59.290125499999995
aF61.196729600000005
aF62.458545
aF61.60823980000001
aF61.80287
aF61.223082899999994
aa(lp31
F62.392763599999995
aF64.521504
aF64.06381499999999
aF69.424408
aF59.3542892
aF68.307663
aF63.782984
aF66.27920400000001
aF64.946291
aF64.88432699999998
aF66.3007124
aF66.9333708
aa(lp32
F66.4154073
aF63.5845552
aF66.97517519999998
aF66.5641488
aF70.2719077
aF68.61483919999999
aF64.0738892
aF61.256209
aF68.8473755
aF67.015261
aF66.79982
aF65.0963712
aa(lp33
F67.4690648
aF70.100396
aF71.672096
aF70.357064
aF71.3048646
aF71.486504
aF70.07851720000001
aF72.84179420000001
aF70.34767320000002
aF71.2460551
aF67.01521639999999
aF69.41385079999999
aa(lp34
F74.7735755
aF73.0479155
aF70.9584572
aF69.827724
aF79.35181419999999
aF81.909381
aF71.92406799999999
aF70.697368
aF81.09919559999999
aF73.71284560000001
aF71.343369
aF74.0053344
aa(lp35
F82.70407320000001
aF79.9531185
aF78.8588959
aF80.227153
aF82.65211160000003
aF73.219441
aF81.90989759999998
aF91.2202138
aF74.77654229999999
aF83.5216564
aF81.76007060000002
aF72.66739079999999
aa(lp36
F85.1451496
aF85.423208
aF98.4178008
aF89.1116916
aF100.631548
aF95.49597560000001
aF92.331656
aF91.81121679999998
aF91.3295163
aF80.267434
aF91.7221162
aF101.0941416
aa(lp37
F96.0974491
aF103.0008535
aF92.09206760000001
aF115.51656639999999
aF84.2368245
aF100.4079732
aF107.2249167
aF106.3340996
aF111.36022390000002
aF101.85432039999999
aF97.05601920000001
aF95.5953116
aa(lp38
F110.90428569999999
aF98.63819560000002
aF105.6539177
aF110.6094225
aF113.2353171
aF115.5698048
aF113.6439032
aF125.5164584
aF96.33968999999999
aF111.12471950000001
aF118.8337931
aF118.19691700000001
aa(lp39
F123.7086724
aF134.36004
aF129.2987795
aF174.56230019999995
aF119.5966925
aF121.1216504
aF117.61047959999999
aF123.72952260000001
aF132.4726442
aF140.57640130000001
aF125.64590170000001
aF144.75181000000003
aa(lp40
F123.1630055
aF188.353539
aF146.0953375
aF131.4885904
aF119.15119399999999
aF137.1693639
aF149.2495384
aF160.24240900000004
aF158.8769024
aF167.81497600000003
aF154.49936000000002
aF146.54337630000003
aa(lp41
F175.4450412
aF236.98613500000002
aF166.3940088
aF222.923086
aF151.10001900000003
aF198.89934719999997
aF176.6388536
aF172.31637160000002
aF165.448832
aF207.17802679999997
aF187.782551
aF194.34414560000005
aa(lp42
F171.55943230000003
aF190.2463456
aF267.23808319999995
aF189.3463158
aF241.2516967
aF205.50438409999998
aF244.696378
aF252.6944404
aF233.6089715
aF384.61521000000005
aF247.81014330000005
aF177.15587
aa(lp43
F207.92232260000003
aF192.3033555
aF236.18582120000002
aF317.87837399999995
aF217.28651370000003
aF311.2676534
aF267.00955369999997
aF295.86062300000003
aF233.71280559999997
aF228.0205864
aF210.11310699999999
aF321.1656002
aa(lp44
F270.431216
aF523.12188
aF395.74553929999996
aF384.55992100000003
aF326.819027
aF343.2014108999999
aF335.86209349999996
aF501.352564
aF281.3152631
aF329.5649921
aF251.81108919999997
aF242.151594
aasS'random_99'
p45
(lp46
(lp47
F310.5818786
aF208.4094916
aF213.96736649999997
aF243.85502010000002
aF200.10334
aF254.32889500000005
aF208.1194185
aF208.4072672
aF242.67347240000004
aF220.5266766
aF189.9306842
aF189.321376
aa(lp48
F254.32584080000004
aF216.2781368
aF213.4673712
aF208.11055229999997
aF225.14328799999998
aF267.41029160000005
aF238.60786799999997
aF210.54051369999996
aF213.4004382
aF212.39839800000001
aF228.48785199999998
aF234.9014186
aa(lp49
F296.2559296
aF243.83978
aF247.25794100000002
aF230.7307691
aF243.853535
aF236.880548
aF210.31907250000003
aF232.25737999999998
aF234.80333660000002
aF243.246526
aF212.40987369999996
aF269.0650528
aa(lp50
F243.8441734
aF287.17338540000003
aF231.586584
aF220.5090789
aF237.8278192
aF236.8727132
aF235.1646063
aF243.2573615
aF250.008687
aF222.97113750000003
aF245.26789879999998
aF216.1667189
aa(lp51
F236.8747552
aF254.32874880000003
aF235.06660319999997
aF253.13568020000002
aF216.0957284
aF216.2773018
aF243.827718
aF236.90709199999995
aF213.3965908
aF261.6136696
aF243.86064080000003
aF244.22480079999997
aa(lp52
F249.61811840000001
aF243.2726431
aF256.8614152
aF228.48067129999995
aF245.535735
aF243.25111839999997
aF289.05526330000004
aF288.80060480000003
aF268.7181378
aF268.8434854
aF243.85821370000005
aF295.526202
aa(lp53
F270.19879579999997
aF238.58138739999998
aF273.5903392
aF253.8069926
aF265.85905679999996
aF243.98897000000002
aF259.61368500000003
aF249.82907679999997
aF324.379103
aF276.118882
aF255.6588062
aF231.35210090000004
aa(lp54
F248.69709300000005
aF267.57181929999996
aF323.22167559999997
aF298.2599945
aF315.3163123
aF267.45409
aF395.21470440000013
aF311.80468199999996
aF356.14695600000005
aF226.10063190000002
aF243.23825320000003
aF216.45773499999996
aa(lp55
F314.7865536
aF282.2401484
aF302.5403083
aF254.861992
aF256.1832668
aF279.0779344
aF254.321395
aF269.4726069
aF394.53666250000003
aF336.5441296
aF353.4978788
aF345.69521679999997
aa(lp56
F443.16094659999993
aF337.4319201
aF288.80033519999995
aF354.0907595
aF341.6434522
aF377.91688719999996
aF285.5135335
aF288.046827
aF311.15944299999995
aF324.91828669999995
aF311.3658962
aF443.7265502
aa(lp57
F396.0156605
aF334.0851225
aF396.31649480000004
aF314.2849476
aF531.982575
aF326.069857
aF618.1866785
aF627.9759851
aF593.6224427999999
aF481.6507044
aF393.28818299999995
aF751.120521
aa(lp58
F372.8480708
aF670.7711069
aF362.6795914
aF379.6666996
aF296.25515759999996
aF607.4947619999999
aF727.8374676
aF480.4997218
aF620.953393
aF416.10082329999994
aF467.2484446
aF690.2113275
aa(lp59
F488.9796169000001
aF706.00496
aF1066.0188552000002
aF1337.0360199000002
aF695.7895000000001
aF646.951014
aF747.8560849999999
aF597.944098
aF670.9541591000001
aF1202.0918796
aF891.6067814999999
aF472.5435432
aa(lp60
F566.1096185
aF1254.3014676
aF1378.611339
aF1191.845158
aF544.8822568
aF577.4020096
aF579.5245
aF504.73166810000004
aF1521.4948352999997
aF1110.13968
aF780.716195
aF1264.476598
aa(lp61
F1225.020905
aF1536.4406510000001
aF1069.5203224
aF1178.5422509999999
aF2132.5445025
aF1485.1458896000001
aF1460.471
aF1162.0919156
aF2349.2033776000003
aF976.3454068000001
aF1044.636438
aF1103.9141819999998
aa(lp62
F1241.0438392
aF1891.5945619999998
aF848.7890998
aF1688.5896358000002
aF2501.0091343999998
aF2221.5006093
aF2604.5261939999996
aF1726.9873071999998
aF1933.7120012000003
aF2605.3888506000003
aF1339.013588
aF2303.1231556000002
aa(lp63
F2115.4997272
aF2175.9177673
aF2714.3020499
aF1975.5478832000003
aF2667.5264064
aF2529.4985079999997
aF3102.9741910000002
aF3261.49397
aF1866.6592974000002
aF2800.7315203999997
aF2092.1402832
aF2137.9737115
aa(lp64
F3138.97697
aF2527.002693
aF2813.2895427
aF2119.6007732999997
aF2919.625643
aF2952.8830152
aF2184.8550845
aF2134.131086
aF3210.0856972
aF2603.2826188
aF2268.2365499999996
aF2185.4469176
aa(lp65
F3668.9069348
aF2999.6906159000005
aF2590.6249555
aF2305.0141599999997
aF3135.5427959999997
aF3112.2273392
aF2907.3251626
aF3294.6775733000004
aF3059.374471
aF3418.2956427999998
aF3107.8833047999997
aF3245.004368
aa(lp66
F3742.6263612
aF2598.1779735999994
aF4479.8730239999995
aF3354.0857075
aF3390.744265
aF3094.3126715999997
aF3189.5818114
aF3492.174832
aF3669.1368439999997
aF3076.2891148999997
aF3447.3919119999996
aF2957.0626313999996
aasS'random_soj_95'
p67
(lp68
(lp69
F167.20440000000002
aF144.0366
aF138.7812
aF161.8573
aF152.5438
aF167.5128
aF142.6432
aF146.076
aF141.01160000000002
aF168.59290000000001
aF137.3781
aF125.3448
aa(lp70
F181.055
aF137.728
aF179.9619
aF158.3182
aF161.2164
aF184.0725
aF162.24360000000001
aF156.1752
aF158.01420000000002
aF139.1756
aF149.1874
aF172.8432
aa(lp71
F167.8308
aF156.2607
aF144.62
aF166.07500000000002
aF157.53500000000003
aF175.84
aF146.9756
aF162.8257
aF150.8676
aF166.95000000000002
aF148.0845
aF173.91500000000002
aa(lp72
F156.92249999999999
aF175.98000000000002
aF162.50500000000002
aF155.8317
aF177.9207
aF162.4203
aF155.82000000000002
aF153.055
aF169.4912
aF164.0093
aF161.245
aF153.055
aa(lp73
F161.24480000000003
aF172.45250000000001
aF180.1086
aF179.7795
aF155.79090000000002
aF162.13320000000002
aF158.27
aF145.881
aF153.0144
aF173.0025
aF172.51
aF167.9744
aa(lp74
F174.7648
aF171.768
aF173.91449999999998
aF161.175
aF169.1967
aF174.9
aF174.5625
aF174.47500000000002
aF176.995
aF171.9744
aF174.82500000000002
aF195.78900000000002
aa(lp75
F174.965
aF168.6315
aF181.19500000000002
aF184.5672
aF176.05
aF159.04000000000002
aF176.2717
aF175.245
aF171.81
aF177.77079999999998
aF176.22500000000002
aF166.7459
aa(lp76
F172.7616
aF171.30599999999998
aF200.8167
aF197.07899999999998
aF182.1173
aF204.8656
aF235.2301
aF196.59679999999997
aF198.9041
aF169.344
aF169.8
aF172.4598
aa(lp77
F213.29999999999998
aF192.36350000000002
aF189.029
aF180.04000000000002
aF183.8145
aF194.2125
aF177.13500000000002
aF191.191
aF260.7727
aF210.933
aF231.6852
aF220.23540000000003
aa(lp78
F243.532
aF222.01649999999998
aF204.41520000000003
aF217.1736
aF219.478
aF240.81599999999997
aF199.9242
aF199.7632
aF218.35000000000002
aF216.38160000000002
aF202.12199999999999
aF280.632
aa(lp79
F253.1451
aF223.46880000000002
aF240.5592
aF223.2292
aF390.42900000000003
aF222.66090000000003
aF435.88480000000004
aF489.2428
aF347.083
aF334.42379999999997
aF288.9789
aF607.77
aa(lp80
F261.99039999999997
aF498.14680000000004
aF263.886
aF266.9238
aF201.7491
aF444.9441
aF456.889
aF349.87
aF299.0903
aF302.257
aF344.8557
aF418.3608
aa(lp81
F344.3848
aF497.46599999999995
aF937.982
aF1004.7495000000001
aF500.8614
aF399.4955
aF471.62699999999995
aF352.286
aF524.7866
aF1025.5308
aF665.283
aF332.3265
aa(lp82
F412.36949999999996
aF1081.99
aF1229.4672
aF1038.1924
aF413.9835
aF428.8959
aF481.3974
aF377.17400000000004
aF1145.154
aF650.3158000000001
aF611.8228
aF1084.5900000000001
aa(lp83
F1021.8492
aF1078.819
aF755.384
aF873.8694
aF1889.6704
aF1187.2644
aF955.3383
aF876.8799
aF1936.4514000000001
aF765.0871
aF851.5283
aF854.6419999999999
aa(lp84
F1150.552
aF1277.3749
aF540.3299999999999
aF1130.3588
aF1965.1248999999998
aF1183.7450999999999
aF2315.424
aF1376.9932000000001
aF1402.181
aF1873.5357
aF964.5372
aF1546.578
aa(lp85
F1264.9632
aF1698.4252
aF1717.7993999999999
aF1335.8329999999999
aF2270.099
aF1978.3500000000001
aF2217.7536
aF2490.6312000000003
aF1493.9189999999999
aF2506.2780000000002
aF1598.912
aF1767.2096
aa(lp86
F2403.9285
aF1867.0997
aF1875.3821999999998
aF1892.2745
aF2260.5575
aF2303.854
aF1955.2691
aF1847.6068
aF2656.0109
aF1942.6495
aF2107.6149
aF1437.3568
aa(lp87
F2661.2547999999997
aF2147.064
aF2057.2062
aF1954.9959000000001
aF2320.5502
aF2554.3755
aF2284.3396
aF2562.4508
aF2239.1568
aF3080.781
aF2246.8351
aF2670.36
aa(lp88
F2822.6286
aF2129.2032
aF2506.1418
aF2692.2322
aF2283.384
aF2593.998
aF2547.9827999999998
aF2720.5584000000003
aF2426.6209
aF2539.7658
aF2677.8843
aF2327.0135
aasS'single_soj_95'
p89
(lp90
(lp91
F166.13760000000002
aF163.205
aF146.3629
aF176.6287
aF180.6903
aF155.4336
aF148.26000000000002
aF154.6686
aF142.24
aF169.2396
aF188.6796
aF177.95250000000001
aa(lp92
F178.1901
aF168.10500000000002
aF142.2414
aF167.1776
aF153.2224
aF149.485
aF171.50000000000003
aF160.86
aF178.716
aF157.3742
aF157.251
aF135.47379999999998
aa(lp93
F149.835
aF158.49120000000002
aF164.53500000000003
aF131.1913
aF172.09500000000003
aF160.262
aF153.7362
aF157.887
aF155.6709
aF162.78500000000003
aF177.97500000000002
aF152.6856
aa(lp94
F166.9725
aF154.89780000000002
aF184.266
aF146.47050000000002
aF163.03000000000003
aF148.219
aF160.44000000000003
aF166.63500000000002
aF151.655
aF157.55270000000002
aF165.585
aF162.435
aa(lp95
F166.4412
aF175.2048
aF162.393
aF159.84500000000003
aF168.07000000000002
aF171.955
aF158.97000000000003
aF151.125
aF166.95000000000002
aF178.115
aF159.95000000000002
aF154.9152
aa(lp96
F165.8209
aF170.50320000000002
aF167.23520000000002
aF145.1296
aF167.47500000000002
aF161.6712
aF157.2398
aF160.46280000000002
aF167.26500000000001
aF181.68500000000003
aF185.07399999999998
aF177.5925
aa(lp97
F183.2224
aF177.52
aF174.77280000000002
aF178.60500000000002
aF180.084
aF187.5555
aF174.9563
aF186.3018
aF207.7084
aF159.8784
aF171.35999999999999
aF170.10000000000002
aa(lp98
F191.16160000000002
aF176.12130000000002
aF168.624
aF182.16520000000003
aF177.6754
aF191.617
aF182.3454
aF173.43040000000002
aF187.98749999999998
aF173.6224
aF184.45
aF175.0268
aa(lp99
F196.5054
aF176.85500000000002
aF196.0035
aF182.1582
aF188.25840000000002
aF177.45000000000002
aF224.11980000000003
aF190.0812
aF185.6312
aF193.635
aF192.99779999999998
aF212.0896
aa(lp100
F220.7625
aF212.18560000000002
aF181.8704
aF225.1344
aF226.047
aF198.4359
aF208.971
aF217.503
aF221.0632
aF250.15499999999997
aF313.68240000000003
aF193.81470000000002
aa(lp101
F252.9505
aF322.6965
aF277.9384
aF230.2396
aF204.0596
aF303.8784
aF253.6296
aF189.4365
aF215.5431
aF301.8428
aF210.0168
aF205.7625
aa(lp102
F255.7415
aF291.2476
aF483.678
aF333.4284
aF408.70610000000005
aF429.0025
aF430.59380000000004
aF456.3615
aF246.433
aF288.4995
aF359.06399999999996
aF265.5808
aa(lp103
F462.6006
aF534.3714
aF369.3036
aF508.65150000000006
aF605.559
aF532.95
aF500.379
aF477.3496
aF483.4221
aF264.0
aF497.1132
aF382.007
aa(lp104
F365.2277
aF569.205
aF1131.7572
aF534.24
aF1113.039
aF822.5536
aF1275.9742999999999
aF988.037
aF1395.9459
aF1078.9086
aF1166.901
aF939.8675
aa(lp105
F1582.3458
aF1045.4546
aF1288.6219
aF667.81
aF715.3488
aF1521.1634999999999
aF1241.0549999999998
aF1228.9725
aF838.041
aF385.0071
aF673.7541
aF1177.3312
aa(lp106
F1379.0072
aF1352.6385
aF1349.1205
aF1304.6784
aF1262.5504
aF1203.636
aF1146.535
aF1451.9628
aF1007.774
aF1444.8787
aF1386.7239000000002
aF765.5871999999999
aa(lp107
F1509.1923
aF1842.9408
aF2294.5896000000002
aF1507.143
aF2415.043
aF1885.8159999999998
aF1616.1172000000001
aF1369.8378
aF1175.233
aF2162.2562000000003
aF2049.8192
aF1632.477
aa(lp108
F1717.8719
aF1489.7736
aF2416.541
aF2064.621
aF2235.7432
aF1820.905
aF1878.7859999999998
aF2387.7316
aF2474.6428
aF2273.154
aF2322.7992
aF1836.0936000000002
aa(lp109
F2179.4409
aF2395.3476
aF2340.7422
aF2196.936
aF2687.7648
aF2032.9015000000002
aF2808.7884
aF1957.0914000000002
aF2870.4111000000003
aF2468.7425
aF2437.5260000000003
aF2341.5348
aa(lp110
F2615.1066
aF2084.6142
aF2617.181
aF2617.1595
aF3230.2844
aF2722.3965000000003
aF2609.4123
aF2411.7983999999997
aF2144.4606
aF2690.1614
aF2813.986
aF2678.0062000000003
aasS'random_soj_99'
p111
(lp112
(lp113
F285.46860000000004
aF196.1559
aF188.1492
aF235.7247
aF176.315
aF225.2856
aF179.7965
aF174.9904
aF211.2844
aF196.62740000000002
aF171.34290000000001
aF167.2704
aa(lp114
F245.38500000000002
aF196.1548
aF194.4576
aF185.8789
aF200.244
aF251.5506
aF217.67100000000002
aF188.5482
aF194.5842
aF194.75300000000001
aF207.3452
aF207.9216
aa(lp115
F279.20120000000003
aF220.28400000000002
aF227.04500000000002
aF213.955
aF225.57500000000002
aF235.83
aF185.627
aF209.82
aF210.9133
aF230.895
aF192.5771
aF249.48000000000002
aa(lp116
F224.25339999999997
aF265.96500000000003
aF214.20000000000002
aF199.7863
aF224.0277
aF220.8582
aF216.68500000000003
aF225.57500000000002
aF230.7005
aF202.1535
aF231.98000000000002
aF200.44500000000002
aa(lp117
F235.5696
aF228.36
aF234.9312
aF251.5455
aF195.2802
aF195.41070000000002
aF224.70000000000002
aF214.92
aF194.67839999999998
aF239.14440000000002
aF221.416
aF232.8128
aa(lp118
F232.6688
aF217.70200000000003
aF238.134
aF211.29500000000002
aF227.965
aF223.49040000000002
aF268.6467
aF266.735
aF249.13000000000002
aF246.8634
aF237.05500000000004
aF272.9878
aa(lp119
F250.145
aF222.2746
aF253.68000000000004
aF239.2314
aF246.50500000000002
aF220.675
aF243.1825
aF231.63000000000002
aF297.5004
aF256.3486
aF236.49500000000003
aF213.8203
aa(lp120
F236.60649999999998
aF242.28359999999998
aF301.56419999999997
aF289.8726
aF291.0953
aF265.3901
aF381.0002
aF294.176
aF334.1255
aF216.7515
aF227.56
aF215.8854
aa(lp121
F301.68
aF262.9277
aF284.8007
aF235.20000000000002
aF238.82150000000001
aF257.47499999999997
aF235.37500000000003
aF250.32459999999998
aF371.2725
aF314.6814
aF333.3081
aF325.3818
aa(lp122
F421.2307
aF318.0081
aF273.2148
aF336.9916
aF327.33820000000003
aF359.4144
aF264.9051
aF271.0344
aF301.5
aF307.78290000000004
aF295.1802
aF421.8192
aa(lp123
F375.3321
aF312.09000000000003
aF375.9644
aF296.2344
aF510.4294
aF324.9261
aF597.649
aF627.2876
aF570.873
aF460.3302
aF370.8474
aF735.3
aa(lp124
F353.5456
aF646.7259
aF340.494
aF361.9096
aF279.9468
aF598.8357
aF703.8340000000001
aF458.8634
aF606.719
aF391.93699999999995
aF446.3406
aF666.0224999999999
aa(lp125
F460.2504
aF677.7299999999999
aF1065.3039999999999
aF1311.9137
aF695.3
aF624.6587
aF724.449
aF583.4092
aF646.7338
aF1175.6303999999998
aF890.9475
aF451.572
aa(lp126
F556.8131
aF1222.3847999999998
aF1360.7724
aF1167.1604
aF521.9494
aF553.3968
aF558.1494
aF480.06600000000003
aF1504.6905000000002
aF1079.104
aF757.308
aF1246.7250000000001
aa(lp127
F1201.59
aF1518.041
aF1043.6468
aF1153.2573
aF2107.33
aF1460.1424
aF1436.2320000000002
aF1134.2178
aF2333.2632
aF950.9743
aF1018.9129999999999
aF1093.4769999999999
aa(lp128
F1236.6743999999999
aF1867.9428
aF835.5899999999999
aF1662.6676
aF2485.7942
aF2204.6403
aF2598.8900000000003
aF1707.2776000000001
aF1908.588
aF2579.3974
aF1314.588
aF2268.5553
aa(lp129
F2088.3264
aF2144.7054
aF2695.7259
aF1953.2295
aF2656.3680000000004
aF2503.875
aF3084.144
aF3244.085
aF1841.1598
aF2775.5047
aF2067.4303999999997
aF2112.8536
aa(lp130
F3112.717
aF2501.0926
aF2788.5678
aF2092.5105
aF2897.8675
aF2926.2309999999998
aF2175.9541
aF2118.8336
aF3183.5724
aF2570.7198
aF2242.665
aF2169.4864
aa(lp131
F3642.2907999999998
aF2974.6535999999996
aF2561.9755
aF2285.9925000000003
aF3109.1448
aF3094.1135999999997
aF2889.7783999999997
aF3266.7641999999996
aF3032.388
aF3392.586
aF3082.5543
aF3226.6000000000004
aa(lp132
F3724.8552
aF2593.0175999999997
aF4463.0848
aF3329.3225
aF3364.2
aF3068.0397
aF3163.9366
aF3465.3528
aF3645.708
aF3050.3979
aF3421.5594
aF2931.3752999999997
aasS'single_soj_99'
p133
(lp134
(lp135
F201.22560000000001
aF216.19500000000002
aF262.2212
aF189.4315
aF245.36610000000002
aF177.3765
aF227.81500000000003
aF260.42580000000004
aF174.98250000000002
aF236.43300000000002
aF268.515
aF268.9775
aa(lp136
F321.17760000000004
aF212.8
aF217.2894
aF210.3248
aF194.3525
aF196.21
aF223.615
aF226.38000000000002
aF241.52100000000002
aF203.3068
aF199.6404
aF191.27679999999998
aa(lp137
F204.05
aF223.6176
aF221.585
aF211.2995
aF243.32000000000002
aF248.82969999999997
aF205.2046
aF229.6278
aF224.29149999999998
aF235.41000000000003
aF295.40000000000003
aF210.9032
aa(lp138
F210.80970000000002
aF199.863
aF295.49629999999996
aF208.3674
aF225.40000000000003
aF208.2867
aF219.66000000000003
aF234.60500000000002
aF196.94500000000002
aF222.13500000000002
aF235.48000000000002
aF202.40500000000003
aa(lp139
F195.0294
aF242.47979999999998
aF217.153
aF201.985
aF242.20000000000002
aF235.93500000000003
aF220.675
aF192.0
aF226.97500000000002
aF226.03000000000003
aF213.395
aF199.44679999999997
aa(lp140
F223.13129999999998
aF259.8603
aF249.60320000000002
aF199.12640000000002
aF235.13000000000002
aF226.2252
aF229.0798
aF210.70680000000002
aF264.3732
aF224.00000000000003
aF243.79299999999998
aF237.5325
aa(lp141
F288.2752
aF251.09000000000003
aF233.28480000000002
aF249.69000000000003
aF242.5888
aF274.07099999999997
aF248.37939999999998
aF253.25279999999998
aF273.2872
aF220.1408
aF227.60999999999999
aF243.95000000000002
aa(lp142
F280.07840000000004
aF261.01730000000003
aF220.06799999999998
aF240.28480000000002
aF244.3708
aF262.0605
aF235.3038
aF248.37120000000002
aF250.0125
aF249.4304
aF265.87149999999997
aF239.98520000000002
aa(lp143
F272.58000000000004
aF247.66000000000003
aF289.8665
aF230.2811
aF293.47560000000004
aF234.01000000000002
aF304.86060000000003
aF265.6248
aF260.4552
aF253.734
aF262.3424
aF290.9536
aa(lp144
F306.0225
aF283.57120000000003
aF262.1676
aF350.7312
aF372.8528
aF267.9391
aF294.8162
aF294.294
aF316.5248
aF333.53999999999996
aF570.456
aF260.604
aa(lp145
F418.891
aF433.839
aF444.0492
aF318.1096
aF305.6475
aF393.84240000000005
aF345.8546
aF253.83329999999998
aF286.18399999999997
aF403.8668
aF282.555
aF307.45799999999997
aa(lp146
F393.736
aF394.00899999999996
aF549.6842
aF461.25
aF592.7614000000001
aF557.1145
aF554.0808000000001
aF609.2415
aF332.1896
aF400.93469999999996
aF585.5039999999999
aF359.03999999999996
aa(lp147
F649.3326
aF707.6174
aF493.7228
aF652.5498
aF917.0715
aF722.865
aF583.4928
aF672.4796
aF862.2173
aF396.9504
aF656.7072
aF685.8922
aa(lp148
F529.3007
aF676.2483
aF1615.7484
aF869.7149999999999
aF1305.196
aF1297.8129999999999
aF1506.5965999999999
aF1207.8100000000002
aF1784.5676999999998
aF1224.1411
aF1353.4080000000001
aF1111.2305
aa(lp149
F1993.9284
aF1160.8204
aF1477.3124
aF779.1428
aF1013.9817999999999
aF1822.0658999999998
aF1416.1337999999998
aF1404.27
aF982.827
aF509.0399
aF996.9765
aF1439.8576
aa(lp150
F2412.5616
aF1625.6399999999999
aF1740.9756
aF1521.8508
aF2034.1216000000002
aF1406.174
aF1359.815
aF1972.8576
aF1321.703
aF1627.5543
aF2139.5946
aF1174.012
aa(lp151
F2339.3349
aF1987.548
aF2753.0352000000003
aF1933.4755
aF2543.826
aF2728.528
aF2388.9660000000003
aF2038.0962
aF1609.452
aF2372.2595
aF2842.9797000000003
aF2339.1918
aa(lp152
F2065.779
aF2697.8849999999998
aF3243.3096
aF2377.245
aF2834.212
aF2931.486
aF2272.6782
aF3007.1164
aF2966.3604
aF2798.0175
aF2707.452
aF2029.0072
aa(lp153
F3163.4694000000004
aF3212.4084
aF3114.7842
aF2745.0076000000004
aF3388.4634
aF2813.0094000000004
aF3542.4873000000002
aF2775.1446
aF3668.9727000000003
aF2663.075
aF2845.2632000000003
aF2821.377
aa(lp154
F3959.226
aF2761.3869
aF3932.999
aF3088.8855000000003
aF4263.6522
aF3419.9514
aF3074.7354
aF2893.308
aF2687.544
aF3095.0244
aF3970.7815
aF3355.9516
aasS'single_95'
p155
(lp156
(lp157
F189.3122784
aF181.212554
aF161.3136
aF198.10066109999997
aF181.1455262
aF179.441008
aF160.41286600000004
aF172.41222739999998
aF167.7154704
aF169.57965259999997
aF210.552602
aF197.78654139999998
aa(lp158
F193.18592700000002
aF181.4262013
aF153.24902939999998
aF181.13223440000004
aF164.546456
aF163.5820013
aF176.08855
aF176.3217508
aF181.43433199999998
aF167.9558208
aF171.4482155
aF153.893826
aa(lp159
F159.6339644
aF169.591944
aF170.35911180000002
aF148.0254827
aF176.34883559999997
aF174.66505799999996
aF167.7195122
aF171.67908500000001
aF170.6818696
aF176.34034640000002
aF192.00652150000002
aF174.0397084
aa(lp160
F171.44529749999998
aF168.82299330000004
aF198.09175799999997
aF161.4898485
aF176.09275599999998
aF163.57780599999998
aF173.0410704
aF181.81027149999997
aF163.5706898
aF173.137791
aF167.70173240000003
aF176.10328049999998
aa(lp161
F181.4123286
aF176.08988639999998
aF176.33762019999998
aF172.4583266
aF181.55191680000001
aF187.9516576
aF172.38479099999998
aF167.97380749999996
aF181.12169800000004
aF192.2104319
aF174.53063
aF167.94995520000003
aa(lp162
F181.2375488
aF183.62434
aF181.890351
aF160.0375448
aF171.95832900000002
aF175.81246
aF167.7094822
aF175.1955224
aF180.7722675
aF196.26574759999997
aF186.2052822
aF190.5539815
aa(lp163
F183.5574086
aF192.61069759999998
aF191.1823928
aF192.85487450000002
aF181.03177499999998
aF202.6061055
aF188.13979970000003
aF197.56489280000002
aF210.30694219999998
aF172.6399308
aF182.2565024
aF185.52510799999996
aa(lp164
F202.6186096
aF189.48246150000003
aF181.56124599999998
aF194.0312772
aF192.41203029999997
aF204.31089319999998
aF185.9092785
aF189.92466530000002
aF202.99575769999998
aF186.609616
aF195.82834999999994
aF189.55768039999998
aa(lp165
F209.68383440000002
aF186.99787289999998
aF202.9835781
aF194.93253520000002
aF203.3289266
aF192.19602899999998
aF236.8940898
aF204.7030884
aF199.44120429999998
aF198.0766295
aF208.5025096
aF220.88664759999998
aa(lp166
F230.43783500000004
aF212.64215360000003
aF198.87648480000001
aF237.0541696
aF228.741117
aF209.0940433
aF224.01651400000003
aF217.9003494
aF232.94135079999995
aF260.136658
aF314.7104494
aF208.37753650000002
aa(lp167
F261.5517903
aF340.520128
aF280.1396876
aF238.7801629
aF212.83675240000002
aF321.626688
aF269.7562276
aF204.8789
aF229.58425689999999
aF309.53694620000005
aF224.51527599999997
aF219.02194000000003
aa(lp168
F267.97773799999993
aF305.3536922
aF506.6615560000001
aF346.5900964
aF425.829523
aF444.20377400000007
aF441.9608266
aF474.2852112
aF261.256389
aF303.77811699999995
aF377.56798060000006
aF279.47468920000006
aa(lp169
F478.8658118
aF553.0165079999999
aF374.7043072
aF527.4408675000001
aF622.2129084
aF551.1375039999999
aF520.063652
aF492.5669736000001
aF496.02454530000006
aF276.615
aF514.7538262
aF396.4983620000001
aa(lp170
F376.53744900000004
aF585.47906
aF1149.7079292
aF548.5022383999999
aF1129.5710182
aF833.1419968
aF1297.918357
aF1004.6328566000001
aF1413.9558661
aF1101.6716352
aF1186.9438649
aF940.3756510000001
aa(lp171
F1605.8836664
aF1068.1580708
aF1311.8965951999999
aF688.93082
aF727.3924048
aF1529.1073745
aF1250.4980525
aF1250.5378489
aF857.68588
aF400.9215478
aF677.6306051
aF1190.6143471999999
aa(lp172
F1392.947343
aF1374.4716625
aF1362.2680765
aF1327.1109264
aF1273.2104486
aF1224.8793228
aF1167.4709748
aF1470.4294347999999
aF1027.8661875999999
aF1448.6800351
aF1404.2886740000001
aF767.8741520000001
aa(lp173
F1526.8617042999997
aF1843.5749024000002
aF2302.0276353
aF1520.4817268
aF2458.078206
aF1900.9831931000003
aF1634.7466385
aF1380.053031
aF1190.5373364000002
aF2187.8270534000003
aF2068.330792
aF1651.2964910000003
aa(lp174
F1736.7610158000002
aF1504.4332259999999
aF2442.054709
aF2081.0548762000003
aF2243.8272896
aF1840.5591385000002
aF1900.4728649999997
aF2401.9397529000003
aF2496.5142051
aF2295.5208956
aF2346.1107316000002
aF1848.8935907999996
aa(lp175
F2197.8181505
aF2408.5964517999996
aF2353.1834269
aF2218.425304
aF2708.9460864000002
aF2050.477201
aF2830.8238212
aF1968.863578
aF2884.4168535
aF2492.96064
aF2438.722568
aF2363.7705832
aa(lp176
F2633.2944164000005
aF2104.9706168
aF2637.9017983000003
aF2646.8203842000003
aF3238.374422
aF2743.0914525
aF2631.1771315
aF2441.7234312
aF2146.1217141
aF2722.5688064
aF2833.645932
aF2683.3386370999997
aasS'single_50'
p177
(lp178
(lp179
F59.82450600000001
aF59.653848
aF56.8552
aF56.939594099999994
aF65.5471376
aF64.040164
aF59.49064250000001
aF62.78952109999999
aF65.5508336
aF60.94510129999999
aF59.620637
aF60.937158
aa(lp180
F63.091212
aF60.461824500000006
aF59.82537239999999
aF55.83662370000001
aF57.30660050000001
aF59.5703252
aF62.3314935
aF60.6814624
aF54.102255799999995
aF58.345292799999996
aF59.360562599999994
aF54.779633
aa(lp181
F60.9950072
aF60.50048600000001
aF59.1254958
aF57.45861969999999
aF59.5668204
aF57.9333506
aF61.6568442
aF59.053283
aF57.4397696
aF61.852172
aF59.69212829999999
aF57.8685319
aa(lp182
F62.2725867
aF60.79310970000001
aF62.038403499999994
aF59.857473
aF59.278556
aF57.52070259999999
aF58.641891199999996
aF57.869691499999995
aF58.528699399999994
aF61.666743
aF60.4896944
aF62.44520749999999
aa(lp183
F61.463714499999995
aF63.2588356
aF64.95946239999999
aF60.9963176
aF62.41136
aF64.0961216
aF57.97550799999999
aF59.62938399999999
aF64.63664840000001
aF60.5749458
aF61.59437299999999
aF60.52414340000001
aa(lp184
F64.0747072
aF65.57505499999999
aF61.642353
aF61.204781600000004
aF63.15846640000001
aF63.303385
aF60.543058900000005
aF64.76204719999998
aF65.6617562
aF62.40931319999999
aF63.46859250000001
aF61.19209769999999
aa(lp185
F66.9919412
aF68.8370618
aF65.8322549
aF66.94923050000001
aF65.722935
aF67.2939131
aF66.9242351
aF63.797555200000005
aF66.40880539999999
aF62.040894599999994
aF62.73962319999999
aF64.73234719999999
aa(lp186
F64.35366320000001
aF64.87641900000001
aF66.1771695
aF72.57011920000001
aF64.47975729999999
aF69.54318459999999
aF67.0646445
aF67.8058477
aF69.54652879999999
aF67.28337599999999
aF64.84458889999999
aF67.7068595
aa(lp187
F72.4598192
aF64.0379811
aF68.63757919999999
aF69.7410772
aF70.12973040000001
aF67.66904849999999
aF75.03905400000001
aF71.47373280000001
aF73.7388058
aF70.5902027
aF73.7014352
aF71.57509679999998
aa(lp188
F79.8079346
aF73.93983720000001
aF71.6997858
aF71.36564960000001
aF73.4034294
aF71.4808399
aF73.484058
aF76.4504588
aF73.73650919999999
aF78.86465240000001
aF76.7619679
aF71.361014
aa(lp189
F82.23975389999998
aF92.5273536
aF81.4395714
aF82.3501752
aF74.279897
aF95.6418135
aF81.7592872
aF75.11834
aF76.5731833
aF81.65940499999999
aF78.008917
aF71.1205792
aa(lp190
F82.26967759999998
aF84.3415004
aF105.3367276
aF86.64377599999999
aF90.596605
aF99.99262280000002
aF88.42318329999999
aF95.5280144
aF82.93976070000001
aF97.5642848
aF96.13843220000001
aF84.37448200000001
aa(lp191
F95.578657
aF116.211832
aF99.527098
aF99.463098
aF96.693878
aF93.3195232
aF113.4072732
aF104.58344880000001
aF98.35505360000002
aF86.7560736
aF110.50271679999999
aF101.04669040000002
aa(lp192
F109.33977200000001
aF109.09856439999999
aF112.0813162
aF103.01939399999999
aF115.4921657
aF114.8533372
aF113.161717
aF109.47428059999999
aF110.24345679999999
aF147.9363248
aF117.59105570000001
aF128.716705
aa(lp193
F130.4344688
aF168.5236902
aF137.30240320000001
aF143.3045456
aF123.87978520000001
aF111.49984800000001
aF120.84099320000001
aF129.8451667
aF119.08083200000002
aF115.2372658
aF146.9046554
aF121.0058436
aa(lp194
F174.749639
aF149.99801000000002
aF158.1814047
aF139.43241749999996
aF171.79477020000002
aF174.0717786
aF166.84200520000002
aF137.35612799999998
aF158.1077778
aF157.8956206
aF128.570388
aF129.79451
aa(lp195
F178.78274259999995
aF173.14464320000002
aF138.97652090000003
aF151.130823
aF169.8821872
aF176.88029900000004
aF211.3081465
aF171.90508799999998
aF191.74486480000002
aF156.1501274
aF167.371447
aF203.82609500000004
aa(lp196
F189.321816
aF227.21372399999998
aF186.800477
aF193.76815670000005
aF248.5020996
aF186.4098077
aF251.98131149999998
aF241.7819248
aF285.9072317999999
aF223.3342827
aF200.0947587
aF255.62012759999996
aa(lp197
F178.35225949999997
aF281.9693118
aF240.03418030000003
aF238.5240388
aF227.42559180000003
aF315.763585
aF172.9735776
aF245.080244
aF208.85698050000002
aF208.42943999999997
aF294.56608959999994
aF222.31205160000002
aa(lp198
F386.9273896
aF299.9094128
aF299.0942326
aF427.31615320000003
aF248.61096399999997
aF427.425054
aF238.049774
aF399.8414208000001
aF237.71571020000002
aF245.0364448
aF309.355004
aF273.8380142
aasS'random_50'
p199
(lp200
(lp201
F57.54158339999999
aF58.182521200000004
aF60.52264449999999
aF54.70303800000001
aF62.40965800000001
aF62.45095750000001
aF60.4711849
aF63.8564712
aF54.74990010000001
aF59.6370435
aF48.860146199999996
aF60.4831905
aa(lp202
F63.17175760000001
aF56.9346538
aF61.795579200000006
aF59.191842
aF54.5274784
aF54.2345248
aF57.800687999999994
aF58.92526959999999
aF59.619360199999996
aF58.849001400000006
aF57.372049
aF61.81859609999999
aa(lp203
F60.750781599999996
aF60.5447845
aF58.709071
aF61.206734
aF56.940047
aF59.05052
aF64.0761805
aF60.468529499999995
aF58.370097200000004
aF58.721365999999996
aF57.84348459999999
aF57.84649279999999
aa(lp204
F64.1557095
aF63.6045154
aF62.10890199999999
aF58.82075449999999
aF63.5192848
aF57.836344
aF60.566039499999995
aF61.9990787
aF61.035780800000005
aF58.6979125
aF61.76403409999999
aF60.9803498
aa(lp205
F59.840367199999996
aF64.5835715
aF57.87108719999999
aF60.9430334
aF60.222000799999996
aF61.4647522
aF62.2874766
aF61.777657199999986
aF61.9958606
aF62.44878940000001
aF66.887726
aF61.7564152
aa(lp206
F66.16635199999999
aF66.72850869999999
aF64.16998339999999
aF60.52086829999999
aF66.9053103
aF64.0784896
aF63.5887594
aF59.5898912
aF64.57189840000001
aF59.259215
aF63.41420320000001
aF63.277854
aa(lp207
F64.8710948
aF63.759455599999995
aF61.7666128
aF66.2849916
aF62.44803999999999
aF59.045432000000005
aF65.847866
aF65.57860079999999
aF66.7310075
aF62.877171999999995
aF63.58402399999999
aF64.0969513
aa(lp208
F67.05679080000002
aF66.9030571
aF71.87956120000001
aF72.5435605
aF66.3855523
aF71.64582000000001
aF73.274628
aF66.3123531
aF68.6636352
aF64.5624856
aF64.9727008
aF65.30824
aa(lp209
F70.1596848
aF71.7079468
aF66.8980504
aF72.63893619999999
aF71.9383292
aF69.7307008
aF68.0838358
aF72.82202640000001
aF73.8458805
aF72.98412640000001
aF76.1307728
aF71.6637856
aa(lp210
F73.732863
aF79.6191531
aF76.9625552
aF72.06947449999998
aF76.4338013
aF77.2566896
aF79.60744150000001
aF76.0109475
aF72.60307549999999
aF74.87924659999999
aF75.0880511
aF77.6053928
aa(lp211
F81.44723600000002
aF78.5632174
aF80.65570880000001
aF76.45871470000002
aF81.2848125
aF75.774196
aF89.9276883
aF82.8608105
aF79.77361939999999
aF85.4649904
aF87.06211349999998
aF91.7039193
aa(lp212
F94.81826160000001
aF96.51376069999999
aF86.50468599999999
aF90.9536379
aF74.25886999999999
aF87.71867400000001
aF94.14201
aF87.0654017
aF81.70875849999999
aF91.3892867
aF97.99842220000001
aF90.35990070000001
aa(lp213
F96.30258520000001
aF93.20547199999999
aF100.87846980000002
aF94.25849160000001
aF109.278055
aF94.879802
aF106.91266999999999
aF94.31938899999999
aF94.9078904
aF100.74413059999999
aF113.2629686
aF95.89000890000001
aa(lp214
F94.45000999999999
aF104.5640436
aF139.1159125
aF97.188402
aF110.96473359999999
aF129.819712
aF143.78050000000002
aF119.10423290000001
aF101.02811099999998
aF108.98018499999999
aF114.59055299999999
aF112.93746639999999
aa(lp215
F120.08321799999999
aF127.26492739999999
aF131.1474112
aF128.368329
aF140.89358149999998
aF132.76486080000004
aF133.668625
aF122.79209800000001
aF128.94554680000002
aF124.13468440000001
aF122.66756020000001
aF120.1788132
aa(lp216
F180.35788560000003
aF202.9948095
aF147.22622560000002
aF150.52421040000002
aF139.51479199999997
aF134.65341750000002
aF180.50453939999997
aF190.036504
aF156.19397710000004
aF161.6926048
aF150.5895514
aF138.2776744
aa(lp217
F203.35857560000002
aF208.232607
aF147.5322281
aF138.95655680000004
aF165.57109079999998
aF247.9384552
aF141.7934164
aF158.6931752
aF202.04031540000003
aF200.11577960000002
aF218.32072570000003
aF183.06270099999998
aa(lp218
F233.440255
aF339.3056815
aF221.1063871
aF230.54297189999997
aF164.23201699999998
aF270.43818639999995
aF246.63215749999998
aF214.75217199999997
aF194.9843973
aF186.6286256
aF209.122311
aF286.68177399999996
aa(lp219
F259.69553329999997
aF399.27564
aF378.27765750000003
aF235.6437856
aF241.335459
aF180.36225110000004
aF266.33345560000004
aF223.82975350000004
aF258.5723974
aF276.70342179999994
aF207.0725064
aF319.0049504
aa(lp220
F339.6748316
aF308.6851372
aF197.132349
aF253.0434437
aF377.8289473
aF319.2375264
aF253.49060020000002
aF403.27511200000004
aF372.1210208
aF227.22096829999995
aF288.979204
aF239.5466138
aasS'random_95'
p221
(lp222
(lp223
F182.7903444
aF154.6503784
aF159.0684565
aF167.7284859
aF174.5467768
aF189.31613500000003
aF165.6841888
aF174.542968
aF162.40474360000002
aF189.31909109999998
aF152.8971738
aF142.8994495
aa(lp224
F189.78851440000003
aF152.127248
aF197.5834503
aF177.81442739999997
aF181.5723128
aF195.977485
aF179.42534879999997
aF174.55703319999998
aF174.1879682
aF153.70602960000002
aF164.55967399999997
aF195.9967122
aa(lp225
F179.75352639999997
aF173.1332815
aF160.021676
aF179.1151715
aF170.831063
aF177.325904
aF167.72895300000002
aF181.43348129999998
aF168.8274552
aF176.08965999999998
aF163.59322149999997
aF187.63275439999998
aa(lp226
F171.45992249999998
aF190.5690888
aF176.0835826
aF172.4029751
aF189.46594720000002
aF174.45252779999998
aF170.23156360000002
aF165.0793511
aF183.76118879999999
aF181.15077250000002
aF171.9316697
aF165.0793511
aa(lp227
F163.3348976
aF192.20087870000003
aF180.2317746
aF181.7981498
aF172.4060378
aF179.4790168
aF173.01732379999999
aF161.31526809999997
aF167.72962280000002
aF189.48158500000002
aF190.564763
aF176.29699839999998
aa(lp228
F187.4994464
aF192.2214604
aF187.79488059999997
aF174.67341449999998
aF182.33754929999998
aF190.56139999999996
aF189.4766875
aF189.29476799999998
aF191.0038047
aF187.7707264
aF180.26466550000004
aF213.03851
aa(lp229
F189.49542859999997
aF181.15417349999998
aF195.4765683
aF196.2957848
aF189.933528
aF176.09537600000002
aF188.2696746
aF189.0660232
aF187.65132499999999
aF191.50639599999997
aF191.02078099999997
aF180.77215770000004
aa(lp230
F181.80855520000003
aF189.46574049999998
aF215.5097206
aF203.34484249999997
aF197.5529143
aF207.44204000000002
aF244.03791220000005
aF208.40585009999998
aF212.17003920000002
aF176.85718240000003
aF181.55230600000002
aF173.14169499999997
aa(lp231
F222.95796600000003
aF206.515442
aF201.184201
aF195.9887784
aF197.1875204
aF210.5546936
aF191.79127019999999
aF205.85398650000002
aF277.2078195
aF225.85511200000002
aF245.9491696
aF234.41049040000001
aa(lp232
F258.210016
aF236.71909649999998
aF216.2802848
aF228.26138699999998
aF229.560538
aF254.32610799999998
aF215.88975700000003
aF213.790656
aF226.29971270000001
aF228.49189679999998
aF213.218882
aF295.23451700000004
aa(lp233
F267.6747255
aF239.2726992
aF254.29630640000005
aF236.87122180000003
aF407.29312500000003
aF224.06533300000004
aF450.90744319999993
aF489.7979603
aF361.1377987999999
aF350.1346836
aF306.59147549999994
aF621.5056889
aa(lp234
F277.3728272
aF516.6779587999999
aF281.1281866
aF280.41148130000005
aF213.5556662
aF452.832706
aF473.0474946
aF366.45899
aF306.95966409999994
aF320.9289112999999
aF361.7036437
aF433.6152072
aa(lp235
F365.9618953000001
aF518.232032
aF938.7255566000002
aF1024.0094865
aF501.26770500000003
aF413.82950999999997
aF488.190455
aF361.44109
aF544.4797887000001
aF1048.6383017
aF666.2274101999999
aF348.0033459
aa(lp236
F419.3091325
aF1110.429755
aF1245.6098920000002
aF1060.346798
aF432.175562
aF447.9009748
aF499.9645
aF397.5726659
aF1157.9889203999999
aF669.122586
aF630.7367745
aF1100.5559512
aa(lp237
F1041.9748714
aF1092.222809
aF774.3613119999999
aF893.1225779999999
aF1912.4896271999996
aF1208.3039776
aF972.0590249999999
aF898.5590998000001
aF1949.8089052
aF785.7565396
aF873.0611058000001
aF862.8025719999999
aa(lp238
F1154.708936
aF1293.5533584999998
aF549.0633626
aF1150.0247054000001
aF1977.2723367999995
aF1193.5370181
aF2320.6244303999997
aF1392.9307503999999
aF1421.0437269000001
aF1892.6208283
aF982.5018372000001
aF1570.7558560000002
aa(lp239
F1281.4402636000002
aF1723.3433474
aF1731.6605833999997
aF1351.5791168000003
aF2279.7177202
aF1998.9483423999998
aF2231.5058704
aF2504.0465584
aF1514.938047
aF2529.167696
aF1618.4574960000002
aF1788.839314
aa(lp240
F2424.415185
aF1886.4961834999997
aF1892.7011323
aF1916.9294876999998
aF2277.653887
aF2325.0099168
aF1963.5967595
aF1860.9956304999996
aF2678.2888377
aF1967.6446469999998
aF2131.6563229999997
aF1448.3816912
aa(lp241
F2681.9784188
aF2165.582741
aF2080.2429582
aF1971.2939008
aF2340.482479
aF2569.3371485000002
aF2298.6126019
aF2585.2487742000003
aF2259.2812156
aF3104.3222037999994
aF2265.3410135999998
aF2686.3051327999997
aa(lp242
F2836.4934740999997
aF2133.6431952
aF2517.5551215
aF2712.4010694
aF2301.9202078
aF2616.4873439999997
aF2568.7822012
aF2741.9614960000004
aF2442.2300937
aF2561.9562997999997
aF2698.8367639999997
aF2347.5916629999997
aasS'minimum_x'
p243
(lp244
(lp245
I5
aI5
aI5
aI5
aI5
aI5
aI5
aI5
aI5
aI5
aI5
aI5
aa(lp246
I10
aI10
aI10
aI10
aI10
aI10
aI10
aI10
aI10
aI10
aI10
aI10
aa(lp247
I15
aI15
aI15
aI15
aI15
aI15
aI15
aI15
aI15
aI15
aI15
aI15
aa(lp248
I20
aI20
aI20
aI20
aI20
aI20
aI20
aI20
aI20
aI20
aI20
aI20
aa(lp249
I25
aI25
aI25
aI25
aI25
aI25
aI25
aI25
aI25
aI25
aI25
aI25
aa(lp250
I30
aI30
aI30
aI30
aI30
aI30
aI30
aI30
aI30
aI30
aI30
aI30
aa(lp251
I35
aI35
aI35
aI35
aI35
aI35
aI35
aI35
aI35
aI35
aI35
aI35
aa(lp252
I40
aI40
aI40
aI40
aI40
aI40
aI40
aI40
aI40
aI40
aI40
aI40
aa(lp253
I45
aI45
aI45
aI45
aI45
aI45
aI45
aI45
aI45
aI45
aI45
aI45
aa(lp254
I50
aI50
aI50
aI50
aI50
aI50
aI50
aI50
aI50
aI50
aI50
aI50
aa(lp255
I55
aI55
aI55
aI55
aI55
aI55
aI55
aI55
aI55
aI55
aI55
aI55
aa(lp256
I60
aI60
aI60
aI60
aI60
aI60
aI60
aI60
aI60
aI60
aI60
aI60
aa(lp257
I65
aI65
aI65
aI65
aI65
aI65
aI65
aI65
aI65
aI65
aI65
aI65
aa(lp258
I70
aI70
aI70
aI70
aI70
aI70
aI70
aI70
aI70
aI70
aI70
aI70
aa(lp259
I75
aI75
aI75
aI75
aI75
aI75
aI75
aI75
aI75
aI75
aI75
aI75
aa(lp260
I80
aI80
aI80
aI80
aI80
aI80
aI80
aI80
aI80
aI80
aI80
aI80
aa(lp261
I85
aI85
aI85
aI85
aI85
aI85
aI85
aI85
aI85
aI85
aI85
aI85
aa(lp262
I90
aI90
aI90
aI90
aI90
aI90
aI90
aI90
aI90
aI90
aI90
aI90
aa(lp263
I95
aI95
aI95
aI95
aI95
aI95
aI95
aI95
aI95
aI95
aI95
aI95
aa(lp264
I100
aI100
aI100
aI100
aI100
aI100
aI100
aI100
aI100
aI100
aI100
aI100
aasS'minimum_soj_95'
p265
(lp266
(lp267
F155.69930000000002
aF149.9388
aF152.99280000000002
aF116.9668
aF142.032
aF156.9478
aF158.305
aF135.9324
aF162.645
aF138.8309
aF146.9009
aF132.5097
aa(lp268
F149.485
aF154.8633
aF160.05259999999998
aF150.9897
aF159.91500000000002
aF170.485
aF120.493
aF152.1772
aF164.82150000000001
aF164.08
aF159.1182
aF168.49
aa(lp269
F176.1712
aF160.2261
aF154.0832
aF164.85000000000002
aF159.25000000000003
aF152.32
aF168.5509
aF151.1405
aF180.36960000000002
aF168.73080000000002
aF145.6866
aF162.657
aa(lp270
F154.21
aF158.79500000000002
aF145.2869
aF164.22000000000003
aF158.97000000000003
aF157.46759999999998
aF150.3504
aF153.7212
aF172.51500000000001
aF174.9318
aF163.4128
aF159.5418
aa(lp271
F163.24
aF168.245
aF164.675
aF156.835
aF169.085
aF167.0772
aF148.6917
aF169.6599
aF157.7823
aF174.47500000000002
aF155.7246
aF171.95850000000002
aa(lp272
F164.99
aF152.25000000000003
aF152.985
aF152.185
aF168.0672
aF159.32000000000002
aF162.645
aF159.424
aF160.335
aF174.42540000000002
aF154.00740000000002
aF168.7422
aa(lp273
F159.775
aF155.4185
aF151.30440000000002
aF175.5216
aF174.23399999999998
aF185.1558
aF183.64710000000002
aF180.1766
aF178.8864
aF178.1505
aF182.00000000000003
aF190.89000000000001
aa(lp274
F184.1464
aF174.768
aF191.6215
aF183.41729999999998
aF178.36
aF180.1086
aF168.59500000000003
aF161.386
aF225.506
aF169.03379999999999
aF162.5934
aF185.81
aa(lp275
F167.615
aF206.7925
aF218.5414
aF192.85000000000002
aF187.53000000000003
aF196.77349999999998
aF230.7888
aF192.81799999999998
aF181.89600000000002
aF190.47000000000003
aF174.59279999999998
aF170.6755
aa(lp276
F223.45409999999998
aF198.58259999999999
aF225.85160000000002
aF191.8968
aF232.0584
aF242.66619999999998
aF184.94840000000002
aF180.19
aF220.70720000000003
aF197.97780000000003
aF185.64000000000001
aF222.9897
aa(lp277
F331.8425
aF265.0143
aF244.9872
aF412.7175
aF282.4068
aF185.4214
aF289.6275
aF371.42640000000006
aF202.36800000000002
aF225.40000000000003
aF289.1472
aF198.31680000000003
aa(lp278
F287.43
aF270.27000000000004
aF407.419
aF354.7985
aF675.1986
aF324.0608
aF480.667
aF770.7644
aF260.53860000000003
aF261.75079999999997
aF317.867
aF403.7712
aa(lp279
F516.0134
aF363.22
aF375.3685
aF572.8184
aF235.43280000000001
aF909.1251000000001
aF454.3892
aF330.57280000000003
aF562.0492
aF485.5662
aF465.034
aF349.3015
aa(lp280
F527.6256000000001
aF270.0368
aF798.5340000000001
aF962.3404
aF353.4672
aF496.716
aF794.934
aF734.9738
aF402.4185
aF729.9006
aF411.2289
aF466.05
aa(lp281
F1372.0428
aF1492.4055
aF1078.7841
aF1094.2448000000002
aF481.57300000000004
aF1134.1227000000001
aF1075.2492
aF1027.8713
aF928.7124
aF719.9952000000001
aF1072.5782
aF1501.4144000000001
aa(lp282
F1480.996
aF1712.0839999999998
aF1264.77
aF1984.6092
aF2134.365
aF714.5408
aF1017.575
aF1125.5966999999998
aF1210.4352
aF1145.2448000000002
aF1871.025
aF1856.8346999999999
aa(lp283
F2190.47
aF1938.6696
aF977.862
aF1849.9077
aF1922.5124
aF1545.6096
aF1561.021
aF955.9991999999999
aF1663.6768000000002
aF1175.9808
aF1944.0459
aF1526.4299999999998
aa(lp284
F2229.331
aF2095.044
aF1891.3716
aF2260.3455
aF1668.7451
aF1743.75
aF2278.731
aF1791.7581
aF2038.7664
aF1967.0025
aF1845.3408
aF2166.4587
aa(lp285
F2413.3788
aF2225.7138999999997
aF2264.712
aF1906.217
aF2301.7891999999997
aF2392.3934999999997
aF2386.3956
aF2221.02
aF2019.771
aF2335.0572
aF2116.7352
aF1843.6542
aa(lp286
F2510.3232
aF2625.2576
aF2953.7508
aF3067.4312
aF2413.3506
aF2186.4595999999997
aF2470.9698
aF2079.5632
aF2525.1736
aF2473.52
aF2209.1823
aF2987.3412
aasS'minimum_99'
p287
(lp288
(lp289
F238.588405
aF220.452571
aF229.5732337
aF205.98892850000001
aF245.99030800000003
aF243.27236639999998
aF287.174542
aF197.5860739
aF368.31129039999996
aF251.85980899999998
aF245.97035920000002
aF238.59177229999997
aa(lp290
F234.7687018
aF225.73449599999998
aF254.33677039999998
aF236.8686856
aF243.2690498
aF238.58160959999998
aF201.3322645
aF231.80804
aF228.50638559999996
aF288.7709996
aF216.1741694
aF243.84826699999996
aa(lp291
F243.89012040000003
aF230.8321122
aF238.6087568
aF254.3033222
aF255.985802
aF213.4042078
aF236.86019519999996
aF228.50463259999998
aF245.9635663
aF274.4690571
aF205.5363146
aF243.27529750000002
aa(lp292
F239.59882739999995
aF218.294734
aF219.42613509999998
aF236.87257000000002
aF238.6021412
aF243.25175610000002
aF208.11218909999997
aF210.5369056
aF261.815856
aF244.76281299999997
aF236.21627740000002
aF231.58612349999999
aa(lp293
F219.57439329999997
aF261.6202472
aF238.60781880000002
aF236.87853080000002
aF244.1093684
aF232.66739219999997
aF216.1534808
aF245.9776754
aF248.52206400000003
aF245.9603882
aF229.58328550000002
aF243.25524900000002
aa(lp294
F234.21354559999997
aF226.9580978
aF216.14726
aF225.7272828
aF249.0976008
aF236.7827591
aF228.50017799999998
aF245.95705600000002
aF238.5785241
aF261.0325735
aF238.58626699999996
aF250.7991525
aa(lp295
F240.67323239999996
aF233.8656768
aF228.48952
aF275.65444
aF270.0100079
aF285.4920308
aF289.950792
aF246.2218648
aF239.50403470000003
aF270.75765359999997
aF254.5420895
aF243.85611580000003
aa(lp296
F282.21476309999997
aF274.76957469999996
aF279.73308
aF300.3469864
aF263.21967789999997
aF243.83058860000003
aF255.4694932
aF231.5681894
aF337.09249900000003
aF245.9826275
aF240.41230099999999
aF318.5245728
aa(lp297
F267.8778336
aF340.4321896
aF327.738456
aF270.297756
aF287.9241631
aF271.5619952
aF351.02109700000005
aF269.0623268
aF247.17686560000004
aF296.2443208
aF240.9326132
aF255.9093988
aa(lp298
F352.20312800000005
aF269.4679484
aF367.78306549999996
aF296.22368
aF331.68924739999994
aF359.800581
aF293.67151
aF263.4229724
aF310.865055
aF280.20070480000004
aF278.010651
aF323.4878248
aa(lp299
F511.3413936
aF412.91280600000005
aF344.2763196
aF531.5628039999999
aF407.1736192000001
aF274.933996
aF416.33669139999995
aF516.5478494
aF309.3064351
aF308.598192
aF399.8076636
aF284.0073924
aa(lp300
F394.19980309999994
aF519.7862359999999
aF539.023998
aF521.1530508
aF815.4343408
aF426.8604772
aF643.0054484999999
aF939.8121913999998
aF400.51503749999995
aF466.555928
aF435.12457340000003
aF709.5195592
aa(lp301
F643.0849060000002
aF538.9262980000001
aF557.5464284
aF699.2830096
aF345.6186207
aF1116.1168356
aF543.2511513
aF515.2575596
aF781.6554661000001
aF990.2132615
aF697.7934568000001
aF446.35126769999994
aa(lp302
F1145.9663471
aF369.89182880000004
aF1235.9654693
aF1165.874826
aF478.75753619999995
aF755.0723936
aF929.4153012999999
aF1321.3175187
aF689.594094
aF855.4853425
aF609.0951878
aF645.0548184
aa(lp303
F1700.1918438000002
aF1665.932008
aF2085.4519213
aF1381.9720817999998
aF570.0074258
aF1609.5386576
aF1490.6794052
aF1819.1083665
aF1336.4310085999998
aF865.1892715
aF1329.1820212
aF1998.1922100000002
aa(lp304
F1829.6261574999999
aF2335.8313715
aF2022.8134499999999
aF2233.6883368
aF2712.2556750000003
aF1019.0282729999999
aF1189.6590052
aF1395.0847439000001
aF2137.7241006
aF1645.311562
aF2437.5496
aF2255.5946087
aa(lp305
F3277.9268444
aF2623.4664109000005
aF1306.1745624999999
aF2827.754792
aF2677.0921605
aF2296.2787565
aF1875.9647832
aF1293.3993448
aF2409.3128319999996
aF1342.4459983999998
aF2284.276412
aF1887.1517040000003
aa(lp306
F2705.0205880000003
aF2733.8845152
aF2352.0559872
aF2994.4247574
aF2328.6243841
aF2242.9680817999997
aF3221.1673755
aF2694.984622
aF2588.0956848
aF2399.2908528
aF2474.3661897
aF3016.9524312000003
aa(lp307
F3064.9071428
aF3267.8290435000004
aF2765.8271214
aF2274.9391195999997
aF2910.786282
aF2984.6010655
aF2742.4971507
aF2648.0977268
aF2289.6350343999998
aF3316.7919664
aF2752.8139446
aF2290.1140772
aa(lp308
F3767.6073176
aF3151.0653527
aF3678.9608625
aF3934.285852
aF2834.467885
aF3010.4676848999998
aF3691.391606
aF2997.6795685
aF3252.9536393
aF2934.5249644
aF3253.6857006
aF3759.6003371999996
aasS'random_soj_50'
p309
(lp310
(lp311
F51.293400000000005
aF50.5113
aF50.1636
aF52.186
aF48.2405
aF54.7756
aF50.5261
aF51.568400000000004
aF46.7631
aF52.096500000000006
aF41.9619
aF50.9112
aa(lp312
F54.845000000000006
aF51.0293
aF56.0416
aF50.406
aF47.419200000000004
aF50.1768
aF48.336000000000006
aF52.1456
aF51.1662
aF49.3529
aF51.6749
aF51.8616
aa(lp313
F54.07020000000001
aF54.3141
aF48.895
aF56.7
aF51.415000000000006
aF56.7
aF52.9086
aF50.975500000000004
aF50.3386
aF55.19500000000001
aF51.7018
aF53.480000000000004
aa(lp314
F57.1095
aF57.715
aF56.35000000000001
aF52.0515
aF57.8463
aF53.24400000000001
aF53.025000000000006
aF57.435
aF56.099199999999996
aF52.3205
aF54.98500000000001
aF56.49
aa(lp315
F56.6456
aF57.6125
aF57.7752
aF58.1985
aF54.3924
aF55.41030000000001
aF54.39000000000001
aF54.972
aF56.5488
aF56.5191
aF59.019999999999996
aF58.6432
aa(lp316
F61.664
aF58.854000000000006
aF58.96549999999999
aF54.845000000000006
aF61.8557
aF58.257600000000004
aF55.620599999999996
aF54.215
aF59.64000000000001
aF53.265
aF60.480000000000004
aF55.6306
aa(lp317
F58.870000000000005
aF58.97239999999999
aF57.120000000000005
aF60.9924
aF57.75000000000001
aF52.78000000000001
aF61.457
aF60.65500000000001
aF60.650999999999996
aF58.315599999999996
aF57.400000000000006
aF58.1571
aa(lp318
F63.2314
aF59.929199999999994
aF66.4734
aF69.20139999999999
aF60.7353
aF67.9098
aF70.574
aF62.5008
aF64.1246
aF61.236
aF60.64
aF64.3536
aa(lp319
F66.24
aF66.7429
aF62.141600000000004
aF64.47000000000001
aF67.0335
aF64.2
aF61.915000000000006
aF67.5376
aF69.2473
aF67.6476
aF71.2236
aF66.46560000000001
aa(lp320
F66.2885
aF72.2811
aF72.2448
aF68.44359999999999
aF72.1203
aF70.8992
aF72.7299
aF67.522
aF67.75
aF70.77420000000001
aF71.1531
aF73.7088
aa(lp321
F75.8472
aF73.2536
aF75.0064
aF71.9518
aF76.6805
aF73.99080000000001
aF86.8062
aF82.698
aF76.2415
aF81.0432
aF81.67530000000001
aF86.49
aa(lp322
F86.93119999999999
aF93.0177
aF81.06
aF85.61540000000001
aF70.03500000000001
aF81.6489
aF89.65
aF82.8421
aF78.4055
aF85.963
aF91.2942
aF87.0573
aa(lp323
F90.4032
aF89.43599999999999
aF99.946
aF92.41080000000001
aF109.0394
aF91.4341
aF100.398
aF91.2406
aF91.3072
aF98.35439999999998
aF111.619
aF90.9315
aa(lp324
F92.726
aF100.43279999999999
aF137.085
aF93.5676
aF106.2838
aF123.096
aF137.7846
aF109.79400000000001
aF99.735
aF105.70550000000001
aF111.14320000000001
aF107.73
aa(lp325
F116.604
aF124.7134
aF127.19839999999999
aF125.2767
aF137.358
aF127.12519999999999
aF129.8535
aF119.349
aF127.3626
aF119.7869
aF119.4627
aF119.0302
aa(lp326
F178.5992
aF200.4443
aF144.48
aF142.4688
aF138.131
aF132.14249999999998
aF178.589
aF187.68200000000002
aF152.779
aF159.3792
aF147.70139999999998
aF134.4222
aa(lp327
F200.7072
aF204.386
aF141.2721
aF135.983
aF164.346
aF243.925
aF140.2176
aF157.6436
aF197.7458
aF197.2703
aF214.0404
aF177.4864
aa(lp328
F230.65550000000002
aF335.64329999999995
aF217.2294
aF226.1515
aF162.4825
aF267.267
aF242.7535
aF212.8672
aF192.4841
aF182.8376
aF206.6193
aF283.436
aa(lp329
F253.43429999999998
aF394.56
aF373.9575
aF233.5113
aF238.4742
aF179.2713
aF262.99039999999997
aF218.059
aF255.6072
aF272.691
aF205.23489999999998
aF313.48
aa(lp330
F336.5736
aF307.0752
aF192.07479999999998
aF250.4831
aF373.44399999999996
aF314.9388
aF250.7638
aF398.76480000000004
aF369.7056
aF221.8293
aF283.7373
aF236.6401
aasS'single_soj_50'
p331
(lp332
(lp333
F50.184000000000005
aF47.46000000000001
aF51.4328
aF50.1897
aF65.3544
aF53.7138
aF54.425000000000004
aF54.52290000000001
aF46.410000000000004
aF60.769800000000004
aF48.0726
aF51.425
aa(lp334
F56.235600000000005
aF55.825
aF52.7244
aF51.0148
aF51.9977
aF51.940000000000005
aF60.65500000000001
aF52.080000000000005
aF49.385400000000004
aF52.9522
aF53.869200000000006
aF47.6729
aa(lp335
F55.230000000000004
aF55.522800000000004
aF55.33500000000001
aF46.9943
aF52.605000000000004
aF52.173399999999994
aF56.5082
aF54.2826
aF49.4584
aF56.175000000000004
aF55.19500000000001
aF47.934599999999996
aa(lp336
F60.25770000000001
aF55.300200000000004
aF55.244499999999995
aF54.069
aF54.53000000000001
aF51.6749
aF54.32000000000001
aF50.435
aF54.215
aF55.7471
aF57.260000000000005
aF56.525000000000006
aa(lp337
F55.809000000000005
aF62.224199999999996
aF58.016
aF56.42000000000001
aF57.75000000000001
aF56.28000000000001
aF52.36000000000001
aF53.6
aF58.31
aF55.93000000000001
aF54.145
aF55.71339999999999
aa(lp338
F58.5746
aF60.7614
aF54.665600000000005
aF54.2432
aF61.46000000000001
aF58.162200000000006
aF56.0801
aF58.44840000000001
aF59.7996
aF57.29500000000001
aF61.974999999999994
aF56.011500000000005
aa(lp339
F66.8608
aF61.98500000000001
aF58.607400000000005
aF61.845000000000006
aF65.3256
aF59.403099999999995
aF61.31289999999999
aF60.0237
aF65.5788
aF57.3408
aF58.98
aF56.84
aa(lp340
F60.547200000000004
aF59.957800000000006
aF61.30799999999999
aF67.6872
aF58.4614
aF64.2135
aF64.6758
aF61.35360000000001
aF62.699999999999996
aF62.486399999999996
aF59.49829999999999
aF62.286500000000004
aa(lp341
F67.89720000000001
aF60.44500000000001
aF65.912
aF64.09270000000001
aF62.409600000000005
aF61.425000000000004
aF69.95400000000001
aF66.2704
aF68.5072
aF67.431
aF67.7336
aF67.8528
aa(lp342
F76.42949999999999
aF73.25120000000001
aF65.4434
aF67.6044
aF72.1554
aF67.6377
aF67.487
aF76.206
aF69.3768
aF74.40899999999999
aF75.3084
aF65.9892
aa(lp343
F79.15650000000001
aF87.0233
aF80.2676
aF77.2448
aF70.213
aF90.1068
aF76.7312
aF67.60889999999999
aF71.4167
aF79.57
aF72.8406
aF66.681
aa(lp344
F77.6258
aF79.22319999999999
aF99.3538
aF82.656
aF86.22350000000002
aF96.0055
aF84.90690000000001
aF90.62549999999999
aF78.0979
aF91.7928
aF91.368
aF79.96799999999999
aa(lp345
F92.169
aF110.67559999999999
aF97.8615
aF95.4804
aF92.655
aF90.1725
aF104.77890000000001
aF101.0568
aF95.1352
aF82.7904
aF105.48479999999999
aF97.12440000000001
aa(lp346
F105.5356
aF105.8967
aF109.4742
aF100.27499999999999
aF111.92649999999999
aF112.03939999999999
aF108.4383
aF105.71700000000001
aF108.7992
aF143.7464
aF115.593
aF128.4625
aa(lp347
F127.0836
aF163.83990000000003
aF134.37290000000002
aF137.4848
aF121.16619999999999
aF109.704
aF119.6424
aF127.4175
aF114.96990000000001
aF109.7581
aF144.9014
aF118.9856
aa(lp348
F172.16559999999998
aF146.3076
aF156.3159
aF135.63
aF170.17280000000002
aF170.982
aF163.215
aF134.208
aF150.547
aF157.44219999999999
aF125.5918
aF124.93599999999999
aa(lp349
F175.15859999999998
aF171.73440000000002
aF138.4488
aF149.7925
aF163.2216
aF174.64
aF208.7348
aF167.2944
aF185.706
aF150.03820000000002
aF164.6722
aF201.465
aa(lp350
F185.68800000000002
aF223.64639999999997
aF184.773
aF187.1235
aF243.88819999999998
aF177.581
aF248.3286
aF240.3392
aF282.6904
aF219.73049999999998
aF196.6194
aF253.5192
aa(lp351
F173.89710000000002
aF279.8676
aF238.0914
aF234.51420000000002
aF225.5001
aF312.8775
aF169.9632
aF243.33720000000002
aF207.76530000000002
aF201.53
aF292.6872
aF219.4074
aa(lp352
F381.6324
aF295.51320000000004
aF294.882
aF421.137
aF247.7928
aF422.8524
aF235.21079999999998
aF393.4656
aF234.1332
aF241.3048
aF304.442
aF272.2924
aasS'minimum_soj_99'
p353
(lp354
(lp355
F212.7898
aF200.6103
aF203.7528
aF178.911
aF228.9997
aF217.1028
aF265.65000000000003
aF178.4067
aF341.32000000000005
aF228.381
aF223.1624
aF214.04610000000002
aa(lp356
F217.03500000000003
aF204.22480000000002
aF230.0519
aF214.3661
aF234.88500000000002
aF236.88000000000002
aF174.629
aF206.346
aF206.29440000000002
aF265.75500000000005
aF206.1844
aF226.06500000000003
aa(lp357
F227.2592
aF215.2854
aF213.3439
aF234.29000000000002
aF236.63500000000002
aF193.82719999999998
aF224.6864
aF204.77100000000002
aF226.0662
aF258.9474
aF185.4122
aF223.395
aa(lp358
F221.83
aF202.3
aF198.5489
aF219.62500000000003
aF221.27
aF236.25719999999998
aF191.34060000000002
aF210.1344
aF248.78000000000003
aF230.7726
aF225.1068
aF215.2777
aa(lp359
F208.21500000000003
aF242.62000000000003
aF221.235
aF218.61
aF226.03000000000003
aF213.88680000000002
aF195.3324
aF230.62140000000002
aF227.539
aF228.09500000000003
aF210.99300000000002
aF230.9846
aa(lp360
F217.21
aF210.455
aF200.37500000000003
aF204.93
aF229.07520000000002
aF219.205
aF211.26000000000002
aF228.79600000000002
aF221.09500000000003
aF240.25950000000003
aF219.3564
aF233.0075
aa(lp361
F222.67000000000002
aF211.6781
aF210.1344
aF257.04
aF249.52949999999998
aF267.6718
aF271.09810000000004
aF229.06760000000003
aF222.0064
aF252.756
aF235.72500000000002
aF237.54500000000002
aa(lp362
F262.6997
aF253.51289999999997
aF261.555
aF286.09889999999996
aF246.12
aF237.8634
aF236.74
aF212.226
aF317.814
aF227.64299999999997
aF220.5012
aF294.695
aa(lp363
F248.08
aF320.7226
aF327.6856
aF250.53000000000003
aF266.665
aF253.0605
aF333.2065
aF262.87239999999997
aF227.30640000000002
aF274.68
aF224.98139999999998
aF237.2513
aa(lp364
F333.0944
aF262.19919999999996
aF348.749
aF278.832
aF318.0144
aF336.2492
aF273.182
aF244.86599999999999
aF291.165
aF264.0428
aF260.7375
aF306.3446
aa(lp365
F489.324
aF388.08439999999996
aF322.4096
aF508.6536
aF387.2752
aF254.3792
aF395.8507
aF494.28720000000004
aF289.2312
aF282.8
aF377.5056
aF265.0428
aa(lp366
F393.745
aF505.57500000000005
aF524.295
aF497.65799999999996
aF815.1202000000001
aF410.8628
aF634.8386
aF939.5673
aF380.475
aF448.32079999999996
aF427.251
aF687.2138
aa(lp367
F619.476
aF515.874
aF537.2119
aF673.7984
aF331.92240000000004
aF1099.8267
aF527.2316000000001
aF492.3072
aF757.5756
aF969.7035
aF674.001
aF423.8805
aa(lp368
F1129.1544000000001
aF348.8128
aF1211.1876000000002
aF1141.7508
aF458.41859999999997
aF731.3568
aF915.642
aF1296.5918
aF671.6225999999999
aF841.107
aF586.5534
aF621.2088
aa(lp369
F1675.4148
aF1641.224
aF2061.0567
aF1358.2046
aF554.4324
aF1580.4526
aF1465.0152
aF1814.1744999999999
aF1313.5599
aF840.8240000000001
aF1304.3368
aF1968.7128
aa(lp370
F1803.23
aF2314.6452999999997
aF1996.8232
aF2208.7212
aF2686.1249999999995
aF1014.031
aF1165.1562
aF1369.6839
aF2120.6406
aF1619.4918
aF2411.375
aF2230.9076999999997
aa(lp371
F3251.5004999999996
aF2608.9395999999997
aF1283.75
aF2796.8316
aF2651.994
aF2278.134
aF1851.322
aF1249.7887999999998
aF2375.056
aF1317.1456
aF2259.5028
aF1849.1
aa(lp372
F2678.676
aF2708.328
aF2334.7151999999996
aF2977.3527
aF2311.4729
aF2218.5
aF3175.4385
aF2669.1465
aF2562.5856
aF2372.628
aF2447.4698
aF2991.6978
aa(lp373
F3039.3468
aF3241.8235
aF2744.013
aF2246.6394
aF2885.4159999999997
aF2960.0235
aF2715.9222
aF2638.3524
aF2265.0471
aF3291.6564000000003
aF2726.6274000000003
aF2263.0726
aa(lp374
F3764.6784000000002
aF3144.2418
aF3653.6499999999996
aF3907.9024
aF2808.9975000000004
aF2984.5348
aF3665.3892
aF2970.578
aF3236.9576
aF2906.386
aF3218.9391
aF3733.2828
aasS'random_x'
p375
(lp376
(lp377
I5
aI5
aI5
aI5
aI5
aI5
aI5
aI5
aI5
aI5
aI5
aI5
aa(lp378
I10
aI10
aI10
aI10
aI10
aI10
aI10
aI10
aI10
aI10
aI10
aI10
aa(lp379
I15
aI15
aI15
aI15
aI15
aI15
aI15
aI15
aI15
aI15
aI15
aI15
aa(lp380
I20
aI20
aI20
aI20
aI20
aI20
aI20
aI20
aI20
aI20
aI20
aI20
aa(lp381
I25
aI25
aI25
aI25
aI25
aI25
aI25
aI25
aI25
aI25
aI25
aI25
aa(lp382
I30
aI30
aI30
aI30
aI30
aI30
aI30
aI30
aI30
aI30
aI30
aI30
aa(lp383
I35
aI35
aI35
aI35
aI35
aI35
aI35
aI35
aI35
aI35
aI35
aI35
aa(lp384
I40
aI40
aI40
aI40
aI40
aI40
aI40
aI40
aI40
aI40
aI40
aI40
aa(lp385
I45
aI45
aI45
aI45
aI45
aI45
aI45
aI45
aI45
aI45
aI45
aI45
aa(lp386
I50
aI50
aI50
aI50
aI50
aI50
aI50
aI50
aI50
aI50
aI50
aI50
aa(lp387
I55
aI55
aI55
aI55
aI55
aI55
aI55
aI55
aI55
aI55
aI55
aI55
aa(lp388
I60
aI60
aI60
aI60
aI60
aI60
aI60
aI60
aI60
aI60
aI60
aI60
aa(lp389
I65
aI65
aI65
aI65
aI65
aI65
aI65
aI65
aI65
aI65
aI65
aI65
aa(lp390
I70
aI70
aI70
aI70
aI70
aI70
aI70
aI70
aI70
aI70
aI70
aI70
aa(lp391
I75
aI75
aI75
aI75
aI75
aI75
aI75
aI75
aI75
aI75
aI75
aI75
aa(lp392
I80
aI80
aI80
aI80
aI80
aI80
aI80
aI80
aI80
aI80
aI80
aI80
aa(lp393
I85
aI85
aI85
aI85
aI85
aI85
aI85
aI85
aI85
aI85
aI85
aI85
aa(lp394
I90
aI90
aI90
aI90
aI90
aI90
aI90
aI90
aI90
aI90
aI90
aI90
aa(lp395
I95
aI95
aI95
aI95
aI95
aI95
aI95
aI95
aI95
aI95
aI95
aI95
aa(lp396
I100
aI100
aI100
aI100
aI100
aI100
aI100
aI100
aI100
aI100
aI100
aI100
aasS'single_x'
p397
(lp398
(lp399
I5
aI5
aI5
aI5
aI5
aI5
aI5
aI5
aI5
aI5
aI5
aI5
aa(lp400
I10
aI10
aI10
aI10
aI10
aI10
aI10
aI10
aI10
aI10
aI10
aI10
aa(lp401
I15
aI15
aI15
aI15
aI15
aI15
aI15
aI15
aI15
aI15
aI15
aI15
aa(lp402
I20
aI20
aI20
aI20
aI20
aI20
aI20
aI20
aI20
aI20
aI20
aI20
aa(lp403
I25
aI25
aI25
aI25
aI25
aI25
aI25
aI25
aI25
aI25
aI25
aI25
aa(lp404
I30
aI30
aI30
aI30
aI30
aI30
aI30
aI30
aI30
aI30
aI30
aI30
aa(lp405
I35
aI35
aI35
aI35
aI35
aI35
aI35
aI35
aI35
aI35
aI35
aI35
aa(lp406
I40
aI40
aI40
aI40
aI40
aI40
aI40
aI40
aI40
aI40
aI40
aI40
aa(lp407
I45
aI45
aI45
aI45
aI45
aI45
aI45
aI45
aI45
aI45
aI45
aI45
aa(lp408
I50
aI50
aI50
aI50
aI50
aI50
aI50
aI50
aI50
aI50
aI50
aI50
aa(lp409
I55
aI55
aI55
aI55
aI55
aI55
aI55
aI55
aI55
aI55
aI55
aI55
aa(lp410
I60
aI60
aI60
aI60
aI60
aI60
aI60
aI60
aI60
aI60
aI60
aI60
aa(lp411
I65
aI65
aI65
aI65
aI65
aI65
aI65
aI65
aI65
aI65
aI65
aI65
aa(lp412
I70
aI70
aI70
aI70
aI70
aI70
aI70
aI70
aI70
aI70
aI70
aI70
aa(lp413
I75
aI75
aI75
aI75
aI75
aI75
aI75
aI75
aI75
aI75
aI75
aI75
aa(lp414
I80
aI80
aI80
aI80
aI80
aI80
aI80
aI80
aI80
aI80
aI80
aI80
aa(lp415
I85
aI85
aI85
aI85
aI85
aI85
aI85
aI85
aI85
aI85
aI85
aI85
aa(lp416
I90
aI90
aI90
aI90
aI90
aI90
aI90
aI90
aI90
aI90
aI90
aI90
aa(lp417
I95
aI95
aI95
aI95
aI95
aI95
aI95
aI95
aI95
aI95
aI95
aI95
aa(lp418
I100
aI100
aI100
aI100
aI100
aI100
aI100
aI100
aI100
aI100
aI100
aI100
aasS'minimum_95'
p419
(lp420
(lp421
F175.3172925
aF165.051316
aF172.7763187
aF135.99769580000003
aF156.38448000000002
aF176.02172639999998
aF172.36507739999996
aF150.81537079999998
aF181.4289819
aF153.9735601
aF162.3018547
aF151.39374709999998
aa(lp422
F162.31302780000001
aF171.99101599999997
aF177.1216016
aF167.97359120000002
aF167.7168542
aF173.0550562
aF140.4423965
aF173.059928
aF182.79260349999996
aF181.81703359999997
aF167.0476357
aF181.81038199999998
aa(lp423
F189.2781644
aF172.03228230000002
aF172.4024384
aF180.43642300000002
aF173.1131
aF167.70768
aF177.87158119999998
aF168.6799193
aF196.3716904
aF179.43040820000002
aF161.5167938
aF177.4950885
aa(lp424
F166.90288379999998
aF171.4332611
aF161.3386771
aF177.15737760000002
aF171.4345532
aF162.19356630000001
aF163.57427439999998
aF154.0381988
aF181.55892799999998
aF185.92100899999997
aF172.0180104
aF172.01369899999997
aa(lp425
F172.38700879999996
aF181.43422220000002
aF177.647774
aF170.8149338
aF182.6579038
aF181.83231379999998
aF164.55171140000002
aF181.4176989
aF172.50732480000002
aF188.150981
aF169.5922181
aF181.1481775
aa(lp426
F177.9090464
aF164.21211
aF165.0776296
aF167.72907260000002
aF182.8003188
aF172.4051864
aF176.32864349999997
aF171.430864
aF173.06657130000002
aF190.03277020000002
aF167.60348449999998
aF181.89017139999999
aa(lp427
F173.14161299999998
aF172.522368
aF164.54426999999998
aF189.8427376
aF189.3163508
aF197.77693480000002
aF196.43247200000002
aF193.7521468
aF192.98821220000002
aF191.36551529999997
aF196.78664
aF195.97022360000003
aa(lp428
F198.10140719999998
aF189.83142400000003
aF205.091604
aF192.5675048
aF190.8108337
aF184.6375994
aF182.11373709999998
aF176.10519340000002
aF239.40412099999998
aF182.66301650000003
aF177.8582195
aF201.49446239999997
aa(lp429
F181.4188808
aF219.82783
aF218.581314
aF208.19782
aF202.96731419999995
aF211.41180640000002
aF243.22577440000003
aF197.427626
aF197.82918400000003
aF205.5210382
aF187.3051664
aF184.27383799999998
aa(lp430
F236.30037950000002
aF204.4580027
aF238.76877019999995
aF203.892232
aF242.48143389999998
aF259.71632850000003
aF198.888262
aF194.076666
aF235.6865824
aF210.10391480000004
aF198.1023168
aF235.91484359999998
aa(lp431
F346.82606699999997
aF282.48946950000004
aF261.6134822
aF431.3660125
aF297.16235280000006
aF200.6239945
aF304.620005
aF388.4355278
aF216.70366399999997
aF245.97085600000003
aF306.2671932
aF212.95633439999997
aa(lp432
F287.8057434
aF278.2887056
aF418.9896635999999
aF371.5954811
aF675.4917744
aF337.5391792
aF487.2211075
aF770.9731991999998
aF274.43829809999994
aF272.477228
aF324.1753878
aF417.5351808
aa(lp433
F535.9599879000001
aF379.92694
aF389.655266
aF594.7070146
aF245.31323790000002
aF922.6993668000001
aF468.32273309999994
aF345.9880304
aF579.9965077
aF496.1207718
aF481.7487312
aF367.98072709999997
aa(lp434
F535.4888604
aF286.5633328
aF814.8849994999999
aF982.703838
aF369.18678239999997
aF512.884532
aF806.9025250999999
aF749.0822817000001
aF413.415015
aF742.4290864999999
aF427.11052129999996
aF484.33865000000003
aa(lp435
F1392.3681618
aF1514.897856
aF1091.7049099
aF1113.7121183999998
aF495.1121785000001
aF1155.0070952
aF1094.1078142
aF1030.7581721000001
aF944.9588935999999
aF740.9756557
aF1093.0655262999999
aF1523.9420800000003
aa(lp436
F1502.777069
aF1727.9180199999998
aF1281.2371249999999
aF2007.2483688
aF2155.131019
aF718.1764463999999
aF1039.07695
aF1146.9857767
aF1220.9077552
aF1164.024832
aF1891.3531200000002
aF1877.6380457000002
aa(lp437
F2208.357736
aF1949.6726434
aF995.0769801
aF1870.433674
aF1940.7513933000002
aF1558.1003735999998
aF1581.8018075999998
aF990.6261282000002
aF1687.6861696
aF1198.7582611999999
aF1965.643361
aF1557.8784592000002
aa(lp438
F2251.624353
aF2115.1777496
aF1905.7250476
aF2273.345271
aF1681.1313378999998
aF1762.9850074999997
aF2311.923553
aF1809.6757948
aF2059.3926937
aF1989.3881190000002
aF1866.0245712000003
aF2185.5088948000002
aa(lp439
F2433.9082147999998
aF2243.5943419
aF2282.9984336
aF1930.400278
aF2322.0448809
aF2412.4410755
aF2409.8631385999997
aF2230.69014
aF2041.7195439999998
aF2353.1681872
aF2137.9143208
aF1866.1425523999999
aa(lp440
F2512.3038848
aF2630.9685664000003
aF2974.2628781000003
aF3088.460826
aF2435.3632076
aF2205.8103773
aF2489.305139
aF2099.2577164
aF2537.6553023
aF2497.551608
aF2233.0551918
aF3008.4326387999995
aasS'minimum_soj_50'
p441
(lp442
(lp443
F49.168200000000006
aF45.4619
aF45.5328
aF49.3782
aF44.6809
aF50.734500000000004
aF58.31
aF52.832100000000004
aF50.540000000000006
aF51.6749
aF52.6702
aF44.735400000000006
aa(lp444
F51.065000000000005
aF51.2714
aF52.8992
aF58.130900000000004
aF47.845000000000006
aF53.410000000000004
aF47.065999999999995
aF51.4318
aF51.573600000000006
aF50.225
aF58.2714
aF53.550000000000004
aa(lp445
F54.8784
aF56.316900000000004
aF51.11
aF50.61000000000001
aF53.2
aF53.312
aF56.8214
aF49.980000000000004
aF58.44840000000001
aF56.5086
aF57.2815
aF53.106
aa(lp446
F54.425000000000004
aF57.120000000000005
aF54.0152
aF52.50000000000001
aF55.19500000000001
aF57.02759999999999
aF55.872600000000006
aF58.766400000000004
aF60.13
aF54.1236
aF57.9444
aF52.143299999999996
aa(lp447
F56.7
aF56.56
aF58.940000000000005
aF55.12500000000001
aF56.910000000000004
aF58.44840000000001
aF53.739900000000006
aF56.079
aF57.8565
aF56.77
aF53.074200000000005
aF59.879400000000004
aa(lp448
F57.190000000000005
aF55.93000000000001
aF59.465
aF56.32
aF58.220000000000006
aF56.455000000000005
aF53.58500000000001
aF56.8136
aF57.75000000000001
aF55.34460000000001
aF56.604000000000006
aF56.2067
aa(lp449
F56.63
aF56.367999999999995
aF58.8618
aF61.128
aF52.965999999999994
aF63.360499999999995
aF59.6037
aF61.398
aF60.192
aF59.294999999999995
aF60.620000000000005
aF65.17
aa(lp450
F61.1651
aF57.7264
aF62.2167
aF63.373799999999996
aF65.56
aF66.9048
aF58.940000000000005
aF56.11
aF64.343
aF61.9892
aF59.784000000000006
aF58.905
aa(lp451
F61.565000000000005
aF65.351
aF71.64959999999999
aF64.82000000000001
aF64.89
aF65.835
aF66.27940000000001
aF70.9806
aF64.5858
aF65.83500000000001
aF61.5678
aF63.92829999999999
aa(lp452
F70.6549
aF69.98899999999999
aF65.9976
aF65.66760000000001
aF74.8752
aF76.4092
aF66.7576
aF65.11999999999999
aF75.8268
aF69.4316
aF66.5125
aF68.8788
aa(lp453
F79.01299999999999
aF73.8969
aF73.8184
aF76.5102
aF77.9246
aF67.1932
aF77.86880000000001
aF86.3944
aF69.2376
aF76.51
aF77.0776
aF66.5676
aa(lp454
F84.92
aF82.35000000000001
aF95.282
aF84.966
aF100.42450000000001
aF88.8444
aF89.8656
aF91.7476
aF86.3478
aF76.97739999999999
aF88.693
aF96.5874
aa(lp455
F91.1886
aF97.3455
aF88.5241
aF110.10560000000001
aF80.48400000000001
aF98.3799
aF103.34440000000001
aF101.58720000000001
aF107.6644
aF99.24359999999999
aF92.944
aF90.094
aa(lp456
F109.26480000000001
aF92.3786
aF103.49640000000001
aF108.15050000000001
aF108.3063
aF111.7824
aF111.888
aF122.9776
aF93.351
aF108.9258
aF114.2343
aF112.569
aa(lp457
F121.7304
aF132.12
aF127.49050000000001
aF170.1494
aF116.265
aF118.8929
aF115.50959999999999
aF123.1978
aF129.9753
aF135.95680000000002
aF123.0138
aF142.4408
aa(lp458
F120.86200000000001
aF186.07379999999998
aF144.2054
aF128.1336
aF117.99
aF136.1633
aF145.4804
aF154.809
aF156.0624
aF163.6064
aF152.7625
aF143.5273
aa(lp459
F173.7865
aF234.93999999999997
aF163.056
aF220.2903
aF149.532
aF196.8192
aF174.30599999999998
aF161.96959999999999
aF163.056
aF201.81119999999999
aF183.9069
aF190.23999999999998
aa(lp460
F167.8521
aF186.98399999999998
aF263.8512
aF188.11589999999998
aF239.4623
aF203.25
aF240.006
aF248.7063
aF229.848
aF378.97499999999997
aF243.6522
aF173.0925
aa(lp461
F205.1406
aF190.69549999999998
aF232.85399999999998
aF312.961
aF215.3156
aF307.8558
aF263.5602
aF286.539
aF231.01289999999997
aF225.4014
aF204.633
aF315.2691
aa(lp462
F270.144
aF521.92
aF392.7924
aF380.6452
aF323.0745
aF339.0868
aF331.2617
aF494.832
aF279.9192
aF325.9115
aF249.0462
aF240.306
aas.