(dp0
S'single_NodeRedirections'
p1
(lp2
(lp3
F0.0
aa(lp4
F0.0
aa(lp5
F0.0
aa(lp6
F0.0
aa(lp7
F0.0
aa(lp8
F0.0
aa(lp9
F0.0
aa(lp10
F0.0
aa(lp11
F0.0
aa(lp12
F0.0
aa(lp13
F0.0
aa(lp14
F0.0
aa(lp15
F0.0
aa(lp16
F0.0
aa(lp17
F0.0
aa(lp18
F0.0
aa(lp19
F0.0
aa(lp20
F0.0
aa(lp21
F0.0
aa(lp22
F0.0
aasS'random_NodeTotal'
p23
(lp24
(lp25
F0.0
aa(lp26
F0.0
aa(lp27
F0.0
aa(lp28
F0.0
aa(lp29
F0.0
aa(lp30
F0.0
aa(lp31
F0.0
aa(lp32
F0.0
aa(lp33
F0.0
aa(lp34
F0.0
aa(lp35
F0.0
aa(lp36
F0.0
aa(lp37
F0.0
aa(lp38
F0.0
aa(lp39
F0.0
aa(lp40
F0.0
aa(lp41
F0.0
aa(lp42
F0.0
aa(lp43
F0.0
aa(lp44
F0.0
aasS'minimum_AggRedirections'
p45
(lp46
(lp47
F0.0
aa(lp48
F0.0
aa(lp49
F0.0
aa(lp50
F0.0
aa(lp51
F0.0
aa(lp52
F0.0
aa(lp53
F0.0
aa(lp54
F0.0
aa(lp55
F0.0
aa(lp56
F0.0
aa(lp57
F0.0
aa(lp58
F0.0
aa(lp59
F0.0
aa(lp60
F0.0
aa(lp61
F0.0
aa(lp62
F0.0
aa(lp63
F0.0
aa(lp64
F0.0
aa(lp65
F0.0
aa(lp66
F0.0
aasS'single_AggRedirections'
p67
(lp68
(lp69
F0.0
aa(lp70
F0.0
aa(lp71
F0.0
aa(lp72
F0.0
aa(lp73
F0.0
aa(lp74
F0.0
aa(lp75
F0.0
aa(lp76
F0.0
aa(lp77
F0.0
aa(lp78
F0.0
aa(lp79
F0.0
aa(lp80
F0.0
aa(lp81
F0.0
aa(lp82
F0.0
aa(lp83
F0.0
aa(lp84
F0.0
aa(lp85
F0.0
aa(lp86
F0.0
aa(lp87
F0.0
aa(lp88
F0.0
aasS'minimum_NodeRedirections'
p89
(lp90
(lp91
F0.0
aa(lp92
F0.0
aa(lp93
F0.0
aa(lp94
F0.0
aa(lp95
F0.0
aa(lp96
F0.0
aa(lp97
F0.0
aa(lp98
F0.0
aa(lp99
F0.0
aa(lp100
F0.0
aa(lp101
F0.0
aa(lp102
F0.0
aa(lp103
F0.0
aa(lp104
F0.0
aa(lp105
F0.0
aa(lp106
F0.0
aa(lp107
F0.0
aa(lp108
F0.0
aa(lp109
F0.0
aa(lp110
F0.0
aasS'random_x'
p111
(lp112
(lp113
I5
aa(lp114
I10
aa(lp115
I15
aa(lp116
I20
aa(lp117
I25
aa(lp118
I30
aa(lp119
I35
aa(lp120
I40
aa(lp121
I45
aa(lp122
I50
aa(lp123
I55
aa(lp124
I60
aa(lp125
I65
aa(lp126
I70
aa(lp127
I75
aa(lp128
I80
aa(lp129
I85
aa(lp130
I90
aa(lp131
I95
aa(lp132
I100
aasS'minimum_x'
p133
(lp134
(lp135
I5
aa(lp136
I10
aa(lp137
I15
aa(lp138
I20
aa(lp139
I25
aa(lp140
I30
aa(lp141
I35
aa(lp142
I40
aa(lp143
I45
aa(lp144
I50
aa(lp145
I55
aa(lp146
I60
aa(lp147
I65
aa(lp148
I70
aa(lp149
I75
aa(lp150
I80
aa(lp151
I85
aa(lp152
I90
aa(lp153
I95
aa(lp154
I100
aasS'single_x'
p155
(lp156
(lp157
I5
aa(lp158
I10
aa(lp159
I15
aa(lp160
I20
aa(lp161
I25
aa(lp162
I30
aa(lp163
I35
aa(lp164
I40
aa(lp165
I45
aa(lp166
I50
aa(lp167
I55
aa(lp168
I60
aa(lp169
I65
aa(lp170
I70
aa(lp171
I75
aa(lp172
I80
aa(lp173
I85
aa(lp174
I90
aa(lp175
I95
aa(lp176
I100
aasS'random_NodeRedirections'
p177
(lp178
(lp179
F0.0
aa(lp180
F0.0
aa(lp181
F0.0
aa(lp182
F0.0
aa(lp183
F0.0
aa(lp184
F0.0
aa(lp185
F0.0
aa(lp186
F0.0
aa(lp187
F0.0
aa(lp188
F0.0
aa(lp189
F0.0
aa(lp190
F0.0
aa(lp191
F0.0
aa(lp192
F0.0
aa(lp193
F0.0
aa(lp194
F0.0
aa(lp195
F0.0
aa(lp196
F0.0
aa(lp197
F0.0
aa(lp198
F0.0
aasS'minimum_EdgeTotal'
p199
(lp200
(lp201
F5820.0
aa(lp202
F11890.0
aa(lp203
F17556.0
aa(lp204
F23584.0
aa(lp205
F28693.0
aa(lp206
F35281.0
aa(lp207
F41933.0
aa(lp208
F47427.0
aa(lp209
F53335.0
aa(lp210
F59062.0
aa(lp211
F63567.0
aa(lp212
F69538.0
aa(lp213
F75385.0
aa(lp214
F83812.0
aa(lp215
F87537.0
aa(lp216
F94381.0
aa(lp217
F100046.0
aa(lp218
F106022.0
aa(lp219
F109974.0
aa(lp220
F118503.0
aasS'minimum_NodeTotal'
p221
(lp222
(lp223
F0.0
aa(lp224
F0.0
aa(lp225
F0.0
aa(lp226
F0.0
aa(lp227
F0.0
aa(lp228
F0.0
aa(lp229
F0.0
aa(lp230
F0.0
aa(lp231
F0.0
aa(lp232
F0.0
aa(lp233
F0.0
aa(lp234
F0.0
aa(lp235
F0.0
aa(lp236
F0.0
aa(lp237
F0.0
aa(lp238
F0.0
aa(lp239
F0.0
aa(lp240
F0.0
aa(lp241
F0.0
aa(lp242
F0.0
aasS'single_NodeTotal'
p243
(lp244
(lp245
F0.0
aa(lp246
F0.0
aa(lp247
F0.0
aa(lp248
F0.0
aa(lp249
F0.0
aa(lp250
F0.0
aa(lp251
F0.0
aa(lp252
F0.0
aa(lp253
F0.0
aa(lp254
F0.0
aa(lp255
F0.0
aa(lp256
F0.0
aa(lp257
F0.0
aa(lp258
F0.0
aa(lp259
F0.0
aa(lp260
F0.0
aa(lp261
F0.0
aa(lp262
F0.0
aa(lp263
F0.0
aa(lp264
F0.0
aasS'single_AggTotal'
p265
(lp266
(lp267
F5342.0
aa(lp268
F10496.0
aa(lp269
F15381.0
aa(lp270
F21116.0
aa(lp271
F25906.0
aa(lp272
F31120.0
aa(lp273
F36365.0
aa(lp274
F41939.0
aa(lp275
F47013.0
aa(lp276
F52805.0
aa(lp277
F57875.0
aa(lp278
F63453.0
aa(lp279
F68107.0
aa(lp280
F73995.0
aa(lp281
F79658.0
aa(lp282
F84147.0
aa(lp283
F88829.0
aa(lp284
F94156.0
aa(lp285
F99113.0
aa(lp286
F106108.0
aasS'minimum_AggTotal'
p287
(lp288
(lp289
F5179.0
aa(lp290
F10630.0
aa(lp291
F15747.0
aa(lp292
F21160.0
aa(lp293
F25730.0
aa(lp294
F31654.0
aa(lp295
F37527.0
aa(lp296
F42510.0
aa(lp297
F47871.0
aa(lp298
F52980.0
aa(lp299
F56987.0
aa(lp300
F62286.0
aa(lp301
F67630.0
aa(lp302
F75130.0
aa(lp303
F78437.0
aa(lp304
F84404.0
aa(lp305
F89601.0
aa(lp306
F95141.0
aa(lp307
F98501.0
aa(lp308
F106306.0
aasS'minimum_CoreRedirections'
p309
(lp310
(lp311
F0.0
aa(lp312
F0.0
aa(lp313
F0.0
aa(lp314
F0.0
aa(lp315
F0.0
aa(lp316
F0.0
aa(lp317
F0.0
aa(lp318
F0.0
aa(lp319
F0.0
aa(lp320
F0.0
aa(lp321
F0.0
aa(lp322
F0.0
aa(lp323
F0.0
aa(lp324
F0.0
aa(lp325
F0.0
aa(lp326
F0.0
aa(lp327
F0.0
aa(lp328
F0.0
aa(lp329
F0.0
aa(lp330
F0.0
aasS'minimum_EdgeRedirections'
p331
(lp332
(lp333
F0.0
aa(lp334
F0.0
aa(lp335
F0.0
aa(lp336
F0.0
aa(lp337
F0.0
aa(lp338
F0.0
aa(lp339
F0.0
aa(lp340
F0.0
aa(lp341
F0.0
aa(lp342
F0.0
aa(lp343
F0.0
aa(lp344
F0.0
aa(lp345
F0.0
aa(lp346
F0.0
aa(lp347
F0.0
aa(lp348
F0.0
aa(lp349
F0.0
aa(lp350
F0.0
aa(lp351
F0.0
aa(lp352
F0.0
aasS'single_EdgeTotal'
p353
(lp354
(lp355
F5884.0
aa(lp356
F11719.0
aa(lp357
F17198.0
aa(lp358
F23599.0
aa(lp359
F28917.0
aa(lp360
F34659.0
aa(lp361
F40637.0
aa(lp362
F46857.0
aa(lp363
F52454.0
aa(lp364
F58802.0
aa(lp365
F64539.0
aa(lp366
F70746.0
aa(lp367
F75973.0
aa(lp368
F82431.0
aa(lp369
F88773.0
aa(lp370
F93881.0
aa(lp371
F99139.0
aa(lp372
F104921.0
aa(lp373
F110611.0
aa(lp374
F118228.0
aasS'random_CoreRedirections'
p375
(lp376
(lp377
F0.0
aa(lp378
F0.0
aa(lp379
F0.0
aa(lp380
F0.0
aa(lp381
F0.0
aa(lp382
F0.0
aa(lp383
F0.0
aa(lp384
F0.0
aa(lp385
F0.0
aa(lp386
F0.0
aa(lp387
F0.0
aa(lp388
F0.0
aa(lp389
F0.0
aa(lp390
F0.0
aa(lp391
F0.0
aa(lp392
F0.0
aa(lp393
F0.0
aa(lp394
F0.0
aa(lp395
F0.0
aa(lp396
F0.0
aasS'single_EdgeRedirections'
p397
(lp398
(lp399
F0.0
aa(lp400
F0.0
aa(lp401
F0.0
aa(lp402
F0.0
aa(lp403
F0.0
aa(lp404
F0.0
aa(lp405
F0.0
aa(lp406
F0.0
aa(lp407
F0.0
aa(lp408
F0.0
aa(lp409
F0.0
aa(lp410
F0.0
aa(lp411
F0.0
aa(lp412
F0.0
aa(lp413
F0.0
aa(lp414
F0.0
aa(lp415
F0.0
aa(lp416
F0.0
aa(lp417
F0.0
aa(lp418
F0.0
aasS'single_CoreRedirections'
p419
(lp420
(lp421
F0.0
aa(lp422
F0.0
aa(lp423
F0.0
aa(lp424
F0.0
aa(lp425
F0.0
aa(lp426
F0.0
aa(lp427
F0.0
aa(lp428
F0.0
aa(lp429
F0.0
aa(lp430
F0.0
aa(lp431
F0.0
aa(lp432
F0.0
aa(lp433
F0.0
aa(lp434
F0.0
aa(lp435
F0.0
aa(lp436
F0.0
aa(lp437
F0.0
aa(lp438
F0.0
aa(lp439
F0.0
aa(lp440
F0.0
aasS'random_AggTotal'
p441
(lp442
(lp443
F5321.0
aa(lp444
F10848.0
aa(lp445
F15861.0
aa(lp446
F20661.0
aa(lp447
F26053.0
aa(lp448
F31770.0
aa(lp449
F37035.0
aa(lp450
F41950.0
aa(lp451
F47401.0
aa(lp452
F51413.0
aa(lp453
F57449.0
aa(lp454
F63196.0
aa(lp455
F67431.0
aa(lp456
F74329.0
aa(lp457
F77525.0
aa(lp458
F84144.0
aa(lp459
F89885.0
aa(lp460
F94966.0
aa(lp461
F98483.0
aa(lp462
F104982.0
aasS'random_CoreTotal'
p463
(lp464
(lp465
F2450.0
aa(lp466
F5049.0
aa(lp467
F7331.0
aa(lp468
F9545.0
aa(lp469
F12000.0
aa(lp470
F14643.0
aa(lp471
F17103.0
aa(lp472
F19369.0
aa(lp473
F21888.0
aa(lp474
F23737.0
aa(lp475
F26502.0
aa(lp476
F29198.0
aa(lp477
F31068.0
aa(lp478
F34274.0
aa(lp479
F35732.0
aa(lp480
F38773.0
aa(lp481
F41487.0
aa(lp482
F43863.0
aa(lp483
F45430.0
aa(lp484
F48434.0
aasS'random_AggRedirections'
p485
(lp486
(lp487
F0.0
aa(lp488
F0.0
aa(lp489
F0.0
aa(lp490
F0.0
aa(lp491
F0.0
aa(lp492
F0.0
aa(lp493
F0.0
aa(lp494
F0.0
aa(lp495
F0.0
aa(lp496
F0.0
aa(lp497
F0.0
aa(lp498
F0.0
aa(lp499
F0.0
aa(lp500
F0.0
aa(lp501
F0.0
aa(lp502
F0.0
aa(lp503
F0.0
aa(lp504
F0.0
aa(lp505
F0.0
aa(lp506
F0.0
aasS'single_CoreTotal'
p507
(lp508
(lp509
F2498.0
aa(lp510
F4844.0
aa(lp511
F7081.0
aa(lp512
F9731.0
aa(lp513
F11930.0
aa(lp514
F14371.0
aa(lp515
F16757.0
aa(lp516
F19339.0
aa(lp517
F21697.0
aa(lp518
F24363.0
aa(lp519
F26719.0
aa(lp520
F29263.0
aa(lp521
F31429.0
aa(lp522
F34186.0
aa(lp523
F36787.0
aa(lp524
F38832.0
aa(lp525
F40969.0
aa(lp526
F43486.0
aa(lp527
F45748.0
aa(lp528
F49008.0
aasS'minimum_CoreTotal'
p529
(lp530
(lp531
F2378.0
aa(lp532
F4882.0
aa(lp533
F7274.0
aa(lp534
F9781.0
aa(lp535
F11867.0
aa(lp536
F14611.0
aa(lp537
F17317.0
aa(lp538
F19628.0
aa(lp539
F22102.0
aa(lp540
F24449.0
aa(lp541
F26322.0
aa(lp542
F28754.0
aa(lp543
F31242.0
aa(lp544
F34682.0
aa(lp545
F36207.0
aa(lp546
F38825.0
aa(lp547
F41324.0
aa(lp548
F43960.0
aa(lp549
F45459.0
aa(lp550
F49113.0
aasS'random_EdgeTotal'
p551
(lp552
(lp553
F5961.0
aa(lp554
F11995.0
aa(lp555
F17627.0
aa(lp556
F23014.0
aa(lp557
F29081.0
aa(lp558
F35510.0
aa(lp559
F41284.0
aa(lp560
F46754.0
aa(lp561
F52882.0
aa(lp562
F57343.0
aa(lp563
F64082.0
aa(lp564
F70408.0
aa(lp565
F75306.0
aa(lp566
F82982.0
aa(lp567
F86637.0
aa(lp568
F94074.0
aa(lp569
F100158.0
aa(lp570
F105737.0
aa(lp571
F109851.0
aa(lp572
F117071.0
aasS'random_EdgeRedirections'
p573
(lp574
(lp575
F0.0
aa(lp576
F0.0
aa(lp577
F0.0
aa(lp578
F0.0
aa(lp579
F0.0
aa(lp580
F0.0
aa(lp581
F0.0
aa(lp582
F0.0
aa(lp583
F0.0
aa(lp584
F0.0
aa(lp585
F0.0
aa(lp586
F0.0
aa(lp587
F0.0
aa(lp588
F0.0
aa(lp589
F0.0
aa(lp590
F0.0
aa(lp591
F0.0
aa(lp592
F0.0
aa(lp593
F0.0
aa(lp594
F0.0
aas.