(dp0
S'minimum_99.99'
p1
(lp2
(lp3
F79.19058729999999
aa(lp4
F85.804919
aa(lp5
F98.17068210000001
aa(lp6
F93.7851213
aa(lp7
F89.4115622
aa(lp8
F106.4228569
aa(lp9
F96.8488143
aa(lp10
F117.6187374
aa(lp11
F111.8413148
aa(lp12
F128.95460400000002
aa(lp13
F132.06029270000002
aa(lp14
F141.9043085
aa(lp15
F151.88531030000001
aa(lp16
F136.5318455
aa(lp17
F160.195479
aa(lp18
F162.0122973
aa(lp19
F191.9842999
aa(lp20
F209.7505231
aa(lp21
F187.08578960000003
aa(lp22
F233.79711819999997
aasS'random_soj_99.99'
p23
(lp24
(lp25
F59.994499999999995
aa(lp26
F52.9952
aa(lp27
F54.995000000000005
aa(lp28
F78.99260000000001
aa(lp29
F67.99369999999999
aa(lp30
F86.99180000000001
aa(lp31
F79.99249999999999
aa(lp32
F94.991
aa(lp33
F81.9923
aa(lp34
F100.9904
aa(lp35
F124.988
aa(lp36
F120.9884
aa(lp37
F116.9888
aa(lp38
F143.9861
aa(lp39
F182.9822
aa(lp40
F170.9834
aa(lp41
F157.9847
aa(lp42
F207.97969999999998
aa(lp43
F259.9745
aa(lp44
F277.97270000000003
aasS'minimum_99'
p45
(lp46
(lp47
F57.211931799999995
aa(lp48
F57.634553
aa(lp49
F61.4767919
aa(lp50
F63.162485
aa(lp51
F62.4781046
aa(lp52
F64.947721
aa(lp53
F67.1422605
aa(lp54
F67.9844592
aa(lp55
F73.225002
aa(lp56
F74.67252
aa(lp57
F77.2664151
aa(lp58
F82.414741
aa(lp59
F87.5003552
aa(lp60
F87.768114
aa(lp61
F95.13144700000001
aa(lp62
F99.15438920000001
aa(lp63
F107.53464829999999
aa(lp64
F122.5189291
aa(lp65
F123.45865200000001
aa(lp66
F140.0732654
aasS'minimum_50'
p67
(lp68
(lp69
F35.047958799999996
aa(lp70
F35.177454
aa(lp71
F35.4798509
aa(lp72
F35.6030002
aa(lp73
F35.797781
aa(lp74
F36.070315300000004
aa(lp75
F36.3885369
aa(lp76
F36.685693799999996
aa(lp77
F37.2051928
aa(lp78
F37.534104
aa(lp79
F37.7085902
aa(lp80
F38.752547500000006
aa(lp81
F39.2887598
aa(lp82
F39.385863
aa(lp83
F40.683779
aa(lp84
F42.1221828
aa(lp85
F43.4494056
aa(lp86
F46.8772605
aa(lp87
F47.1388656
aa(lp88
F52.230035199999996
aasS'single_soj_50'
p89
(lp90
(lp91
F23.52
aa(lp92
F24.843999999999998
aa(lp93
F24.6722
aa(lp94
F25.741400000000002
aa(lp95
F26.4955
aa(lp96
F25.605800000000002
aa(lp97
F28.3142
aa(lp98
F28.011100000000003
aa(lp99
F29.444399999999998
aa(lp100
F29.947
aa(lp101
F29.9476
aa(lp102
F31.5
aa(lp103
F33.8972
aa(lp104
F33.718199999999996
aa(lp105
F35.096000000000004
aa(lp106
F36.155
aa(lp107
F39.028999999999996
aa(lp108
F42.82
aa(lp109
F42.5882
aa(lp110
F50.54
aasS'minimum_x'
p111
(lp112
(lp113
I5
aa(lp114
I10
aa(lp115
I15
aa(lp116
I20
aa(lp117
I25
aa(lp118
I30
aa(lp119
I35
aa(lp120
I40
aa(lp121
I45
aa(lp122
I50
aa(lp123
I55
aa(lp124
I60
aa(lp125
I65
aa(lp126
I70
aa(lp127
I75
aa(lp128
I80
aa(lp129
I85
aa(lp130
I90
aa(lp131
I95
aa(lp132
I100
aasS'single_x'
p133
(lp134
(lp135
I5
aa(lp136
I10
aa(lp137
I15
aa(lp138
I20
aa(lp139
I25
aa(lp140
I30
aa(lp141
I35
aa(lp142
I40
aa(lp143
I45
aa(lp144
I50
aa(lp145
I55
aa(lp146
I60
aa(lp147
I65
aa(lp148
I70
aa(lp149
I75
aa(lp150
I80
aa(lp151
I85
aa(lp152
I90
aa(lp153
I95
aa(lp154
I100
aasS'single_soj_99.9'
p155
(lp156
(lp157
F48.145
aa(lp158
F53.2185
aa(lp159
F48.7076
aa(lp160
F52.2986
aa(lp161
F57.285999999999994
aa(lp162
F53.446200000000005
aa(lp163
F64.1045
aa(lp164
F64.19980000000001
aa(lp165
F77.9468
aa(lp166
F74.255
aa(lp167
F81.2058
aa(lp168
F84.19
aa(lp169
F104.36
aa(lp170
F107.7548
aa(lp171
F114.4256
aa(lp172
F120.935
aa(lp173
F154.606
aa(lp174
F186.292
aa(lp175
F174.45499999999998
aa(lp176
F248.72
aasS'minimum_soj_95'
p177
(lp178
(lp179
F31.9698
aa(lp180
F33.0956
aa(lp181
F35.359700000000004
aa(lp182
F36.7505
aa(lp183
F36.4754
aa(lp184
F39.237
aa(lp185
F40.3166
aa(lp186
F42.5492
aa(lp187
F45.5243
aa(lp188
F49.2885
aa(lp189
F51.9088
aa(lp190
F53.059
aa(lp191
F55.6102
aa(lp192
F54.184400000000004
aa(lp193
F59.875
aa(lp194
F63.175000000000004
aa(lp195
F70.224
aa(lp196
F82.0704
aa(lp197
F80.3768
aa(lp198
F95.26820000000001
aasS'single_soj_95'
p199
(lp200
(lp201
F31.41
aa(lp202
F33.9355
aa(lp203
F33.760400000000004
aa(lp204
F35.618
aa(lp205
F37.318
aa(lp206
F36.488200000000006
aa(lp207
F41.8186
aa(lp208
F41.4088
aa(lp209
F45.8204
aa(lp210
F46.9235
aa(lp211
F48.644200000000005
aa(lp212
F51.730000000000004
aa(lp213
F58.9856
aa(lp214
F59.239
aa(lp215
F64.8176
aa(lp216
F66.74
aa(lp217
F81.969
aa(lp218
F90.2536
aa(lp219
F92.5715
aa(lp220
F128.66
aasS'minimum_soj_99'
p221
(lp222
(lp223
F37.3564
aa(lp224
F38.867599999999996
aa(lp225
F43.1843
aa(lp226
F44.955000000000005
aa(lp227
F43.7999
aa(lp228
F48.143
aa(lp229
F49.649
aa(lp230
F51.4136
aa(lp231
F56.7185
aa(lp232
F61.762
aa(lp233
F65.8509
aa(lp234
F67.19399999999999
aa(lp235
F71.2688
aa(lp236
F69.17840000000001
aa(lp237
F77.5875
aa(lp238
F79.95
aa(lp239
F89.98649999999999
aa(lp240
F106.0064
aa(lp241
F103.876
aa(lp242
F121.8794
aasS'single_soj_99'
p243
(lp244
(lp245
F37.075
aa(lp246
F39.8425
aa(lp247
F39.7382
aa(lp248
F42.8378
aa(lp249
F44.884
aa(lp250
F44.0156
aa(lp251
F51.237100000000005
aa(lp252
F50.4613
aa(lp253
F57.9828
aa(lp254
F58.542
aa(lp255
F61.306000000000004
aa(lp256
F65.65
aa(lp257
F76.139
aa(lp258
F77.562
aa(lp259
F86.1584
aa(lp260
F88.52
aa(lp261
F114.63
aa(lp262
F125.6092
aa(lp263
F127.10239999999999
aa(lp264
F186.32
aasS'single_50'
p265
(lp266
(lp267
F35.1580784
aa(lp268
F35.2938104
aa(lp269
F35.457108399999996
aa(lp270
F35.499235399999996
aa(lp271
F35.6631654
aa(lp272
F36.1187848
aa(lp273
F36.3892934
aa(lp274
F36.8528721
aa(lp275
F37.1849125
aa(lp276
F37.506628000000006
aa(lp277
F37.8938988
aa(lp278
F38.642895
aa(lp279
F39.6889904
aa(lp280
F39.869222199999996
aa(lp281
F40.967240999999994
aa(lp282
F41.8262789
aa(lp283
F44.192751699999995
aa(lp284
F45.63036
aa(lp285
F47.2068122
aa(lp286
F54.70178320000001
aasS'random_50'
p287
(lp288
(lp289
F35.1064949
aa(lp290
F35.3480171
aa(lp291
F35.4702588
aa(lp292
F35.7286008
aa(lp293
F35.9158388
aa(lp294
F36.1413544
aa(lp295
F36.3549848
aa(lp296
F36.9045902
aa(lp297
F37.164956999999994
aa(lp298
F37.46409739999999
aa(lp299
F37.985612
aa(lp300
F38.482526
aa(lp301
F39.152291399999996
aa(lp302
F40.312301000000005
aa(lp303
F41.0800983
aa(lp304
F42.429502500000005
aa(lp305
F43.4203101
aa(lp306
F46.65394859999999
aa(lp307
F49.117685
aa(lp308
F53.3260946
aasS'random_soj_99.9'
p309
(lp310
(lp311
F48.6095
aa(lp312
F45.7664
aa(lp313
F49.69
aa(lp314
F55.690000000000005
aa(lp315
F55.2614
aa(lp316
F61.16180000000001
aa(lp317
F64.08500000000001
aa(lp318
F73.67
aa(lp319
F65.47579999999999
aa(lp320
F74.79199999999999
aa(lp321
F81.608
aa(lp322
F89.66839999999999
aa(lp323
F93.8384
aa(lp324
F107.06769999999999
aa(lp325
F124.0464
aa(lp326
F129.085
aa(lp327
F132.296
aa(lp328
F170.48559999999998
aa(lp329
F199.4885
aa(lp330
F235.9034
aasS'minimum_soj_99.9'
p331
(lp332
(lp333
F46.4828
aa(lp334
F48.7528
aa(lp335
F51.7334
aa(lp336
F54.959
aa(lp337
F53.2049
aa(lp338
F58.655
aa(lp339
F61.3178
aa(lp340
F65.9884
aa(lp341
F70.5047
aa(lp342
F78.69969999999999
aa(lp343
F83.3668
aa(lp344
F86.39999999999999
aa(lp345
F91.0338
aa(lp346
F86.30420000000001
aa(lp347
F103.0
aa(lp348
F102.73750000000001
aa(lp349
F117.7005
aa(lp350
F138.6544
aa(lp351
F129.9896
aa(lp352
F164.13260000000002
aasS'single_99'
p353
(lp354
(lp355
F57.224534000000006
aa(lp356
F58.1768855
aa(lp357
F58.7781604
aa(lp358
F60.63537579999999
aa(lp359
F61.894219199999995
aa(lp360
F63.91939360000001
aa(lp361
F67.24880669999999
aa(lp362
F67.9293243
aa(lp363
F74.7578875
aa(lp364
F74.764408
aa(lp365
F79.23427799999999
aa(lp366
F81.99392950000001
aa(lp367
F90.38404799999999
aa(lp368
F93.10220199999999
aa(lp369
F101.9758164
aa(lp370
F103.70669760000001
aa(lp371
F131.248099
aa(lp372
F134.5649616
aa(lp373
F142.08987040000002
aa(lp374
F202.84862560000002
aasS'random_99'
p375
(lp376
(lp377
F58.918447099999995
aa(lp378
F59.232668100000005
aa(lp379
F58.9994512
aa(lp380
F61.5026616
aa(lp381
F63.209012900000005
aa(lp382
F63.4132536
aa(lp383
F67.2166628
aa(lp384
F70.46057880000001
aa(lp385
F72.17131020000001
aa(lp386
F74.1606405
aa(lp387
F76.9860735
aa(lp388
F80.95170399999999
aa(lp389
F85.83923239999999
aa(lp390
F95.9631832
aa(lp391
F101.66071620000001
aa(lp392
F108.97507750000001
aa(lp393
F118.43490500000001
aa(lp394
F146.261829
aa(lp395
F154.92432
aa(lp396
F190.2314996
aasS'single_99.99'
p397
(lp398
(lp399
F86.39686040000001
aa(lp400
F88.9226087
aa(lp401
F88.5856412
aa(lp402
F84.3900606
aa(lp403
F97.7127278
aa(lp404
F97.1087884
aa(lp405
F127.4977493
aa(lp406
F103.27117190000001
aa(lp407
F126.1148875
aa(lp408
F128.76962200000003
aa(lp409
F128.9146078
aa(lp410
F131.9333057
aa(lp411
F170.6084384
aa(lp412
F182.2492734
aa(lp413
F177.04079509999997
aa(lp414
F182.2492743
aa(lp415
F223.77312129999999
aa(lp416
F267.08878880000003
aa(lp417
F271.0573923
aa(lp418
F332.30526760000004
aasS'single_95'
p419
(lp420
(lp421
F48.0023672
aa(lp422
F49.164629299999994
aa(lp423
F49.524968799999996
aa(lp424
F50.02039799999999
aa(lp425
F51.101378399999994
aa(lp426
F52.5522792
aa(lp427
F54.5693322
aa(lp428
F55.398496800000004
aa(lp429
F58.7451625
aa(lp430
F59.62611400000001
aa(lp431
F62.5419846
aa(lp432
F64.32346390000001
aa(lp433
F69.7979792
aa(lp434
F70.855319
aa(lp435
F76.4781546
aa(lp436
F77.9689812
aa(lp437
F93.63861369999998
aa(lp438
F96.58493280000002
aa(lp439
F103.32245150000001
aa(lp440
F139.93695280000003
aasS'random_99.99'
p441
(lp442
(lp443
F87.85071469999998
aa(lp444
F84.37106490000001
aa(lp445
F80.74842459999999
aa(lp446
F109.2555736
aa(lp447
F96.2418749
aa(lp448
F113.13418639999999
aa(lp449
F108.0426956
aa(lp450
F113.8341158
aa(lp451
F111.8473143
aa(lp452
F128.5936401
aa(lp453
F152.7702215
aa(lp454
F149.9315054
aa(lp455
F136.68783019999995
aa(lp456
F174.30106940000002
aa(lp457
F211.2503733
aa(lp458
F195.6559325
aa(lp459
F189.42855530000003
aa(lp460
F235.23197459999997
aa(lp461
F289.336565
aa(lp462
F305.8639109
aasS'random_95'
p463
(lp464
(lp465
F48.2386954
aa(lp466
F48.7980116
aa(lp467
F50.0226022
aa(lp468
F51.0971144
aa(lp469
F52.1220164
aa(lp470
F52.7077896
aa(lp471
F53.9342912
aa(lp472
F56.4417292
aa(lp473
F58.194414599999995
aa(lp474
F58.97032339999999
aa(lp475
F61.1730785
aa(lp476
F63.6016678
aa(lp477
F66.80887139999999
aa(lp478
F73.63172180000001
aa(lp479
F75.5266873
aa(lp480
F83.0051425
aa(lp481
F87.3555855
aa(lp482
F103.1813056
aa(lp483
F109.62736500000001
aa(lp484
F137.3047727
aasS'random_soj_50'
p485
(lp486
(lp487
F24.9815
aa(lp488
F23.340799999999998
aa(lp489
F25.11
aa(lp490
F26.8078
aa(lp491
F26.3444
aa(lp492
F28.6078
aa(lp493
F27.814999999999998
aa(lp494
F31.378999999999998
aa(lp495
F28.177
aa(lp496
F30.2096
aa(lp497
F31.784
aa(lp498
F31.796
aa(lp499
F34.0416
aa(lp500
F33.9815
aa(lp501
F36.1322
aa(lp502
F37.5858
aa(lp503
F36.8699
aa(lp504
F41.722699999999996
aa(lp505
F44.5505
aa(lp506
F48.8438
aasS'random_x'
p507
(lp508
(lp509
I5
aa(lp510
I10
aa(lp511
I15
aa(lp512
I20
aa(lp513
I25
aa(lp514
I30
aa(lp515
I35
aa(lp516
I40
aa(lp517
I45
aa(lp518
I50
aa(lp519
I55
aa(lp520
I60
aa(lp521
I65
aa(lp522
I70
aa(lp523
I75
aa(lp524
I80
aa(lp525
I85
aa(lp526
I90
aa(lp527
I95
aa(lp528
I100
aasS'minimum_95'
p529
(lp530
(lp531
F48.531660099999996
aa(lp532
F48.664643
aa(lp533
F49.9039601
aa(lp534
F51.2206335
aa(lp535
F51.63553160000001
aa(lp536
F52.573139000000005
aa(lp537
F54.153680699999995
aa(lp538
F55.956002399999996
aa(lp539
F58.4580556
aa(lp540
F59.36346
aa(lp541
F60.708803200000006
aa(lp542
F64.82116350000001
aa(lp543
F68.0071233
aa(lp544
F68.430999
aa(lp545
F73.13819000000001
aa(lp546
F78.0813658
aa(lp547
F83.69202079999998
aa(lp548
F94.67034509999999
aa(lp549
F95.30537360000001
aa(lp550
F109.32012619999999
aasS'random_99.9'
p551
(lp552
(lp553
F70.7001437
aa(lp554
F72.42080430000001
aa(lp555
F72.7109252
aa(lp556
F76.42284
aa(lp557
F77.8000478
aa(lp558
F79.0713464
aa(lp559
F86.1870632
aa(lp560
F88.049446
aa(lp561
F88.9264878
aa(lp562
F94.863473
aa(lp563
F99.345944
aa(lp564
F110.7960854
aa(lp565
F109.46585359999997
aa(lp566
F129.3333958
aa(lp567
F142.9553696
aa(lp568
F147.5295625
aa(lp569
F158.45990400000002
aa(lp570
F192.70406079999998
aa(lp571
F221.888745
aa(lp572
F259.4966078
aasS'random_soj_95'
p573
(lp574
(lp575
F33.699
aa(lp576
F31.476799999999997
aa(lp577
F34.715
aa(lp578
F37.7154
aa(lp579
F37.5332
aa(lp580
F41.1702
aa(lp581
F40.61
aa(lp582
F47.534
aa(lp583
F43.330600000000004
aa(lp584
F46.913599999999995
aa(lp585
F50.612
aa(lp586
F51.898799999999994
aa(lp587
F57.5616
aa(lp588
F61.33669999999999
aa(lp589
F65.8582
aa(lp590
F72.9106
aa(lp591
F73.3145
aa(lp592
F91.55919999999999
aa(lp593
F98.8145
aa(lp594
F125.0381
aasS'random_soj_99'
p595
(lp596
(lp597
F40.7885
aa(lp598
F37.788799999999995
aa(lp599
F40.64
aa(lp600
F45.1006
aa(lp601
F45.1877
aa(lp602
F49.2882
aa(lp603
F50.277499999999996
aa(lp604
F59.126
aa(lp605
F53.4022
aa(lp606
F58.711999999999996
aa(lp607
F63.452
aa(lp608
F65.78399999999999
aa(lp609
F73.7456
aa(lp610
F79.6708
aa(lp611
F88.4108
aa(lp612
F95.5198
aa(lp613
F99.095
aa(lp614
F129.5405
aa(lp615
F139.43599999999998
aa(lp616
F173.05880000000002
aasS'minimum_99.9'
p617
(lp618
(lp619
F71.9187286
aa(lp620
F72.996534
aa(lp621
F74.1211822
aa(lp622
F77.72355300000001
aa(lp623
F76.40047460000001
aa(lp624
F79.553785
aa(lp625
F83.3825781
aa(lp626
F87.7615848
aa(lp627
F91.41121240000001
aa(lp628
F95.46061200000001
aa(lp629
F98.06826520000001
aa(lp630
F106.32010000000001
aa(lp631
F112.1056027
aa(lp632
F109.8545195
aa(lp633
F126.68564
aa(lp634
F127.78041130000001
aa(lp635
F140.9704271
aa(lp636
F160.5035786
aa(lp637
F154.7441192
aa(lp638
F188.90302659999998
aasS'single_99.9'
p639
(lp640
(lp641
F75.24560840000001
aa(lp642
F78.58452709999999
aa(lp643
F72.6621272
aa(lp644
F74.5452046
aa(lp645
F79.5855768
aa(lp646
F78.1605272
aa(lp647
F84.5712965
aa(lp648
F86.94669780000001
aa(lp649
F101.0420125
aa(lp650
F95.23762
aa(lp651
F105.46856539999999
aa(lp652
F105.5291617
aa(lp653
F124.25251999999999
aa(lp654
F129.7608108
aa(lp655
F135.74903510000001
aa(lp656
F142.0119353
aa(lp657
F177.2808838
aa(lp658
F199.75221600000003
aa(lp659
F195.252055
aa(lp660
F270.93201760000005
aasS'single_soj_99.99'
p661
(lp662
(lp663
F54.995000000000005
aa(lp664
F59.994499999999995
aa(lp665
F58.994600000000005
aa(lp666
F58.994600000000005
aa(lp667
F69.9935
aa(lp668
F65.9939
aa(lp669
F95.99090000000001
aa(lp670
F75.9929
aa(lp671
F96.9908
aa(lp672
F99.9905
aa(lp673
F98.9906
aa(lp674
F104.99000000000001
aa(lp675
F142.9862
aa(lp676
F150.9854
aa(lp677
F148.9856
aa(lp678
F154.98499999999999
aa(lp679
F194.981
aa(lp680
F248.97560000000001
aa(lp681
F241.97629999999998
aa(lp682
F304.96999999999997
aasS'minimum_soj_99.99'
p683
(lp684
(lp685
F50.9954
aa(lp686
F56.9948
aa(lp687
F67.99369999999999
aa(lp688
F65.9939
aa(lp689
F61.9943
aa(lp690
F77.9927
aa(lp691
F70.9934
aa(lp692
F87.9917
aa(lp693
F85.9919
aa(lp694
F105.98989999999999
aa(lp695
F111.9893
aa(lp696
F114.98899999999999
aa(lp697
F122.98819999999999
aa(lp698
F106.9898
aa(lp699
F129.9875
aa(lp700
F129.9875
aa(lp701
F159.9845
aa(lp702
F180.9824
aa(lp703
F156.9848
aa(lp704
F202.98020000000002
aasS'minimum_soj_50'
p705
(lp706
(lp707
F23.6024
aa(lp708
F24.4168
aa(lp709
F25.6073
aa(lp710
F26.0206
aa(lp711
F25.776500000000002
aa(lp712
F27.3599
aa(lp713
F27.5522
aa(lp714
F28.3479
aa(lp715
F29.4134
aa(lp716
F31.502399999999998
aa(lp717
F32.541799999999995
aa(lp718
F32.114999999999995
aa(lp719
F32.5412
aa(lp720
F31.6628
aa(lp721
F33.7375
aa(lp722
F34.55
aa(lp723
F36.867999999999995
aa(lp724
F40.992000000000004
aa(lp725
F40.1728
aa(lp726
F45.867200000000004
aas.