(dp0
S'minimum_99.99'
p1
(lp2
(lp3
F85.5209595
aa(lp4
F88.3946603
aa(lp5
F78.7266273
aa(lp6
F88.71362789999999
aa(lp7
F119.2765714
aa(lp8
F94.29307
aa(lp9
F125.89890980000001
aa(lp10
F114.74302560000001
aa(lp11
F132.6052382
aa(lp12
F128.1186871
aa(lp13
F131.16138260000002
aa(lp14
F132.870212
aa(lp15
F177.5957398
aa(lp16
F171.3723613
aa(lp17
F158.8826108
aa(lp18
F209.8775114
aa(lp19
F242.45725309999997
aa(lp20
F254.37805999999995
aa(lp21
F233.21417639999999
aa(lp22
F249.8795097
aasS'random_soj_99.99'
p23
(lp24
(lp25
F43.9961
aa(lp26
F57.9947
aa(lp27
F59.994499999999995
aa(lp28
F68.9936
aa(lp29
F83.99210000000001
aa(lp30
F91.9913
aa(lp31
F66.9938
aa(lp32
F117.9887
aa(lp33
F82.9922
aa(lp34
F99.9905
aa(lp35
F93.9911
aa(lp36
F194.981
aa(lp37
F163.9841
aa(lp38
F128.9876
aa(lp39
F134.987
aa(lp40
F200.9804
aa(lp41
F164.984
aa(lp42
F174.983
aa(lp43
F210.9794
aa(lp44
F289.9715
aasS'minimum_99'
p45
(lp46
(lp47
F57.716910500000004
aa(lp48
F59.0639354
aa(lp49
F60.751984699999994
aa(lp50
F61.04383739999999
aa(lp51
F62.887859000000006
aa(lp52
F65.32415
aa(lp53
F69.7762014
aa(lp54
F68.93588
aa(lp55
F72.254686
aa(lp56
F74.2620625
aa(lp57
F76.33877960000001
aa(lp58
F82.766828
aa(lp59
F86.5481848
aa(lp60
F91.1571886
aa(lp61
F97.3104216
aa(lp62
F104.8734364
aa(lp63
F114.1527524
aa(lp64
F119.35289999999999
aa(lp65
F136.008464
aa(lp66
F148.7835513
aasS'minimum_50'
p67
(lp68
(lp69
F34.9783765
aa(lp70
F35.279111
aa(lp71
F35.434132899999994
aa(lp72
F35.67637439999999
aa(lp73
F35.996363200000005
aa(lp74
F36.28379
aa(lp75
F36.552331800000005
aa(lp76
F36.5943232
aa(lp77
F37.1852596
aa(lp78
F37.5942463
aa(lp79
F37.855709600000004
aa(lp80
F38.584288
aa(lp81
F39.203456200000005
aa(lp82
F40.1262957
aa(lp83
F40.862836
aa(lp84
F42.014411599999995
aa(lp85
F43.3394966
aa(lp86
F45.1564
aa(lp87
F49.073371599999994
aa(lp88
F51.3366476
aasS'single_soj_50'
p89
(lp90
(lp91
F22.0126
aa(lp92
F25.4654
aa(lp93
F24.673499999999997
aa(lp94
F25.5902
aa(lp95
F27.8384
aa(lp96
F27.68
aa(lp97
F27.2869
aa(lp98
F27.6458
aa(lp99
F29.8472
aa(lp100
F31.461000000000002
aa(lp101
F29.9168
aa(lp102
F33.1271
aa(lp103
F34.7924
aa(lp104
F33.3671
aa(lp105
F33.6776
aa(lp106
F36.7558
aa(lp107
F39.04
aa(lp108
F39.686
aa(lp109
F44.1166
aa(lp110
F48.5897
aasS'minimum_x'
p111
(lp112
(lp113
I5
aa(lp114
I10
aa(lp115
I15
aa(lp116
I20
aa(lp117
I25
aa(lp118
I30
aa(lp119
I35
aa(lp120
I40
aa(lp121
I45
aa(lp122
I50
aa(lp123
I55
aa(lp124
I60
aa(lp125
I65
aa(lp126
I70
aa(lp127
I75
aa(lp128
I80
aa(lp129
I85
aa(lp130
I90
aa(lp131
I95
aa(lp132
I100
aasS'single_x'
p133
(lp134
(lp135
I5
aa(lp136
I10
aa(lp137
I15
aa(lp138
I20
aa(lp139
I25
aa(lp140
I30
aa(lp141
I35
aa(lp142
I40
aa(lp143
I45
aa(lp144
I50
aa(lp145
I55
aa(lp146
I60
aa(lp147
I65
aa(lp148
I70
aa(lp149
I75
aa(lp150
I80
aa(lp151
I85
aa(lp152
I90
aa(lp153
I95
aa(lp154
I100
aasS'single_soj_99.9'
p155
(lp156
(lp157
F39.1325
aa(lp158
F49.567099999999996
aa(lp159
F50.9745
aa(lp160
F54.2218
aa(lp161
F57.697900000000004
aa(lp162
F59.999
aa(lp163
F61.8305
aa(lp164
F59.9723
aa(lp165
F80.1944
aa(lp166
F75.688
aa(lp167
F72.46849999999999
aa(lp168
F102.88040000000001
aa(lp169
F99.2723
aa(lp170
F103.1303
aa(lp171
F104.792
aa(lp172
F118.3614
aa(lp173
F143.3312
aa(lp174
F143.9572
aa(lp175
F212.11100000000002
aa(lp176
F249.04520000000002
aasS'minimum_soj_95'
p177
(lp178
(lp179
F31.67
aa(lp180
F33.9685
aa(lp181
F33.0646
aa(lp182
F35.7287
aa(lp183
F39.9775
aa(lp184
F39.1649
aa(lp185
F54.428000000000004
aa(lp186
F44.1
aa(lp187
F45.6308
aa(lp188
F46.6575
aa(lp189
F48.561
aa(lp190
F51.61
aa(lp191
F54.8406
aa(lp192
F59.4849
aa(lp193
F61.6875
aa(lp194
F68.0758
aa(lp195
F71.70620000000001
aa(lp196
F80.39399999999999
aa(lp197
F92.5355
aa(lp198
F99.3733
aasS'single_soj_95'
p199
(lp200
(lp201
F29.3164
aa(lp202
F34.3457
aa(lp203
F33.765
aa(lp204
F35.9504
aa(lp205
F39.6114
aa(lp206
F40.322
aa(lp207
F39.9524
aa(lp208
F41.1077
aa(lp209
F46.146800000000006
aa(lp210
F48.7288
aa(lp211
F46.9862
aa(lp212
F56.1503
aa(lp213
F59.745200000000004
aa(lp214
F59.2316
aa(lp215
F60.7298
aa(lp216
F69.8396
aa(lp217
F81.084
aa(lp218
F82.22760000000001
aa(lp219
F100.5514
aa(lp220
F125.02340000000001
aasS'minimum_soj_99'
p221
(lp222
(lp223
F37.705
aa(lp224
F40.650999999999996
aa(lp225
F39.7806
aa(lp226
F43.1558
aa(lp227
F48.0525
aa(lp228
F47.5565
aa(lp229
F69.284
aa(lp230
F54.5125
aa(lp231
F56.646
aa(lp232
F58.4375
aa(lp233
F60.4092
aa(lp234
F65.81
aa(lp235
F69.7188
aa(lp236
F75.93860000000001
aa(lp237
F79.97500000000001
aa(lp238
F89.3202
aa(lp239
F96.00080000000001
aa(lp240
F105.86999999999999
aa(lp241
F120.374
aa(lp242
F132.4007
aasS'single_soj_99'
p243
(lp244
(lp245
F34.000600000000006
aa(lp246
F41.204299999999996
aa(lp247
F40.381499999999996
aa(lp248
F42.6464
aa(lp249
F47.2852
aa(lp250
F48.33
aa(lp251
F49.2599
aa(lp252
F49.1048
aa(lp253
F57.15260000000001
aa(lp254
F59.1064
aa(lp255
F58.6442
aa(lp256
F72.86120000000001
aa(lp257
F76.2509
aa(lp258
F77.1239
aa(lp259
F80.0204
aa(lp260
F91.3034
aa(lp261
F109.9352
aa(lp262
F110.4848
aa(lp263
F145.6154
aa(lp264
F175.75310000000002
aasS'single_50'
p265
(lp266
(lp267
F35.1001034
aa(lp268
F35.3264942
aa(lp269
F35.5490449
aa(lp270
F35.5263221
aa(lp271
F35.905971199999996
aa(lp272
F36.078092
aa(lp273
F36.3471821
aa(lp274
F36.7521142
aa(lp275
F37.1367632
aa(lp276
F37.4160655
aa(lp277
F37.79364
aa(lp278
F38.49570800000001
aa(lp279
F39.083284799999994
aa(lp280
F40.2235452
aa(lp281
F40.7339724
aa(lp282
F42.4280457
aa(lp283
F44.56847499999999
aa(lp284
F45.504059
aa(lp285
F48.998425399999995
aa(lp286
F52.5670477
aasS'random_50'
p287
(lp288
(lp289
F34.7333367
aa(lp290
F35.2260485
aa(lp291
F35.4219868
aa(lp292
F35.5351845
aa(lp293
F35.888859599999996
aa(lp294
F36.114180000000005
aa(lp295
F36.3091156
aa(lp296
F36.858472400000004
aa(lp297
F37.098476399999996
aa(lp298
F37.446226599999996
aa(lp299
F38.1610464
aa(lp300
F38.675722
aa(lp301
F39.0195093
aa(lp302
F40.1502124
aa(lp303
F41.131736
aa(lp304
F42.738429000000004
aa(lp305
F43.7848432
aa(lp306
F44.569393
aa(lp307
F47.9431105
aa(lp308
F49.1570236
aasS'random_soj_99.9'
p309
(lp310
(lp311
F39.5423
aa(lp312
F47.2304
aa(lp313
F52.596999999999994
aa(lp314
F53.32
aa(lp315
F59.23350000000001
aa(lp316
F67.10059999999999
aa(lp317
F58.723
aa(lp318
F77.2183
aa(lp319
F67.1582
aa(lp320
F76.896
aa(lp321
F79.1459
aa(lp322
F108.797
aa(lp323
F100.2569
aa(lp324
F104.15039999999999
aa(lp325
F114.889
aa(lp326
F133.3408
aa(lp327
F133.528
aa(lp328
F143.567
aa(lp329
F167.5958
aa(lp330
F221.7995
aasS'minimum_soj_99.9'
p331
(lp332
(lp333
F45.705
aa(lp334
F46.2335
aa(lp335
F46.2298
aa(lp336
F52.9484
aa(lp337
F62.0095
aa(lp338
F58.650800000000004
aa(lp339
F91.376
aa(lp340
F68.784
aa(lp341
F71.3558
aa(lp342
F76.3925
aa(lp343
F77.2946
aa(lp344
F85.0
aa(lp345
F91.173
aa(lp346
F100.7767
aa(lp347
F104.86250000000001
aa(lp348
F119.12809999999999
aa(lp349
F126.0374
aa(lp350
F137.98999999999998
aa(lp351
F155.6294
aa(lp352
F173.5439
aasS'single_99'
p353
(lp354
(lp355
F56.284195399999994
aa(lp356
F58.64675389999999
aa(lp357
F59.9212921
aa(lp358
F60.808287199999995
aa(lp359
F62.222273599999994
aa(lp360
F64.36357699999999
aa(lp361
F67.24693909999999
aa(lp362
F66.8354552
aa(lp363
F72.4496056
aa(lp364
F71.2778572
aa(lp365
F75.59328500000001
aa(lp366
F85.806776
aa(lp367
F86.5073268
aa(lp368
F94.5457468
aa(lp369
F98.4782046
aa(lp370
F106.66573110000002
aa(lp371
F126.95910049999998
aa(lp372
F128.15993120000002
aa(lp373
F163.1566826
aa(lp374
F191.2488871
aasS'random_99'
p375
(lp376
(lp377
F54.8374802
aa(lp378
F57.73216639999999
aa(lp379
F59.0599252
aa(lp380
F60.56720299999999
aa(lp381
F62.40560759999999
aa(lp382
F66.467436
aa(lp383
F66.8033816
aa(lp384
F69.60978
aa(lp385
F72.701589
aa(lp386
F75.14719120000001
aa(lp387
F78.1007784
aa(lp388
F86.271856
aa(lp389
F87.24969970000001
aa(lp390
F94.45227220000001
aa(lp391
F103.52695849999999
aa(lp392
F110.83849880000002
aa(lp393
F115.3662388
aa(lp394
F129.4273905
aa(lp395
F141.85129550000002
aa(lp396
F161.49535930000002
aasS'single_99.99'
p397
(lp398
(lp399
F70.4134617
aa(lp400
F107.22977629999998
aa(lp401
F90.3524663
aa(lp402
F96.8978099
aa(lp403
F87.5397452
aa(lp404
F100.88541169999999
aa(lp405
F107.65273429999999
aa(lp406
F101.7263269
aa(lp407
F136.90180879999997
aa(lp408
F120.1304863
aa(lp409
F119.4715525
aa(lp410
F194.306068
aa(lp411
F131.96330279999998
aa(lp412
F165.1389852
aa(lp413
F161.98430009999998
aa(lp414
F200.50045110000002
aa(lp415
F218.82261649999998
aa(lp416
F196.45585340000002
aa(lp417
F299.65153219999996
aa(lp418
F394.3270663
aasS'single_95'
p419
(lp420
(lp421
F48.0067076
aa(lp422
F48.4843961
aa(lp423
F49.655251
aa(lp424
F50.8829792
aa(lp425
F51.8377352
aa(lp426
F53.3945618
aa(lp427
F54.158171599999996
aa(lp428
F55.624332300000006
aa(lp429
F58.21630079999999
aa(lp430
F58.5667324
aa(lp431
F60.25363500000001
aa(lp432
F65.909244
aa(lp433
F67.6265904
aa(lp434
F72.3332192
aa(lp435
F74.44165770000001
aa(lp436
F81.3890034
aa(lp437
F93.42977249999998
aa(lp438
F95.1703394
aa(lp439
F112.47206659999999
aa(lp440
F135.9240994
aasS'random_99.99'
p441
(lp442
(lp443
F71.2453759
aa(lp444
F84.2150781
aa(lp445
F93.7271269
aa(lp446
F97.32576649999999
aa(lp447
F115.02099719999998
aa(lp448
F121.2893704
aa(lp449
F95.8979108
aa(lp450
F145.43495570000002
aa(lp451
F112.1962794
aa(lp452
F127.36076340000001
aa(lp453
F116.8658124
aa(lp454
F226.775821
aa(lp455
F192.2102771
aa(lp456
F160.89940940000002
aa(lp457
F159.6285365
aa(lp458
F227.60373780000003
aa(lp459
F190.3774604
aa(lp460
F203.01719649999998
aa(lp461
F239.1785815
aa(lp462
F319.3915591
aasS'random_95'
p463
(lp464
(lp465
F46.9746735
aa(lp466
F48.25757399999999
aa(lp467
F49.5035965
aa(lp468
F50.52115499999999
aa(lp469
F51.82091399999999
aa(lp470
F53.08176640000001
aa(lp471
F54.7056564
aa(lp472
F56.6188025
aa(lp473
F57.88571979999999
aa(lp474
F59.7535484
aa(lp475
F62.49407639999999
aa(lp476
F65.490133
aa(lp477
F66.95407610000001
aa(lp478
F71.25345940000001
aa(lp479
F77.06891
aa(lp480
F83.01074880000002
aa(lp481
F87.779314
aa(lp482
F94.87028299999999
aa(lp483
F104.405114
aa(lp484
F110.026606
aasS'random_soj_50'
p485
(lp486
(lp487
F22.499299999999998
aa(lp488
F25.2195
aa(lp489
F23.854
aa(lp490
F26.1648
aa(lp491
F27.175300000000004
aa(lp492
F28.272499999999997
aa(lp493
F26.3466
aa(lp494
F30.6284
aa(lp495
F28.353199999999998
aa(lp496
F30.1845
aa(lp497
F31.3796
aa(lp498
F33.842
aa(lp499
F33.8903
aa(lp500
F32.949600000000004
aa(lp501
F35.367999999999995
aa(lp502
F38.222
aa(lp503
F38.472
aa(lp504
F38.966
aa(lp505
F42.7598
aa(lp506
F45.014
aasS'random_x'
p507
(lp508
(lp509
I5
aa(lp510
I10
aa(lp511
I15
aa(lp512
I20
aa(lp513
I25
aa(lp514
I30
aa(lp515
I35
aa(lp516
I40
aa(lp517
I45
aa(lp518
I50
aa(lp519
I55
aa(lp520
I60
aa(lp521
I65
aa(lp522
I70
aa(lp523
I75
aa(lp524
I80
aa(lp525
I85
aa(lp526
I90
aa(lp527
I95
aa(lp528
I100
aasS'minimum_95'
p529
(lp530
(lp531
F48.012027
aa(lp532
F48.9311999
aa(lp533
F49.987842699999995
aa(lp534
F50.13499109999999
aa(lp535
F52.030689
aa(lp536
F53.429390000000005
aa(lp537
F54.8085338
aa(lp538
F55.49224
aa(lp539
F57.9104228
aa(lp540
F58.9940665
aa(lp541
F61.084343000000004
aa(lp542
F64.607868
aa(lp543
F67.80360759999999
aa(lp544
F71.17410989999999
aa(lp545
F74.79602200000001
aa(lp546
F79.7134356
aa(lp547
F85.01530609999999
aa(lp548
F90.47237999999999
aa(lp549
F104.397778
aa(lp550
F111.5093147
aasS'random_99.9'
p551
(lp552
(lp553
F63.6806537
aa(lp554
F68.1256992
aa(lp555
F81.7928074
aa(lp556
F74.71292499999998
aa(lp557
F80.53822199999999
aa(lp558
F88.01708479999999
aa(lp559
F83.772918
aa(lp560
F94.76312130000001
aa(lp561
F90.4334614
aa(lp562
F97.6135888
aa(lp563
F98.2048956
aa(lp564
F126.171877
aa(lp565
F117.1688939
aa(lp566
F129.6714376
aa(lp567
F135.7219655
aa(lp568
F150.7768856
aa(lp569
F153.9286068
aa(lp570
F166.42032849999998
aa(lp571
F189.85922050000002
aa(lp572
F244.18492630000003
aasS'random_soj_95'
p573
(lp574
(lp575
F29.7065
aa(lp576
F33.938
aa(lp577
F32.582499999999996
aa(lp578
F36.55200000000001
aa(lp579
F38.61450000000001
aa(lp580
F40.965799999999994
aa(lp581
F38.8954
aa(lp582
F46.527499999999996
aa(lp583
F43.477399999999996
aa(lp584
F47.503
aa(lp585
F50.7371
aa(lp586
F56.812999999999995
aa(lp587
F57.6131
aa(lp588
F57.687599999999996
aa(lp589
F65.58
aa(lp590
F73.6784
aa(lp591
F76.44
aa(lp592
F82.146
aa(lp593
F92.4264
aa(lp594
F100.19
aasS'random_soj_99'
p595
(lp596
(lp597
F34.3358
aa(lp598
F40.2768
aa(lp599
F38.506
aa(lp600
F43.5152
aa(lp601
F46.2143
aa(lp602
F50.979499999999994
aa(lp603
F47.1476
aa(lp604
F56.98
aa(lp605
F54.257
aa(lp606
F59.454
aa(lp607
F63.1526
aa(lp608
F74.616
aa(lp609
F74.84870000000001
aa(lp610
F76.1388
aa(lp611
F87.823
aa(lp612
F98.1784
aa(lp613
F100.248
aa(lp614
F111.811
aa(lp615
F125.36580000000001
aa(lp616
F146.8445
aasS'minimum_99.9'
p617
(lp618
(lp619
F70.5817105
aa(lp620
F67.5287309
aa(lp621
F71.0885101
aa(lp622
F75.4271052
aa(lp623
F81.6536202
aa(lp624
F81.04988
aa(lp625
F92.0342596
aa(lp626
F87.3618976
aa(lp627
F91.4101478
aa(lp628
F97.53344349999999
aa(lp629
F98.07855980000001
aa(lp630
F107.307
aa(lp631
F113.577658
aa(lp632
F121.3231517
aa(lp633
F127.9503188
aa(lp634
F140.1752942
aa(lp635
F150.17679969999998
aa(lp636
F155.76529999999997
aa(lp637
F176.0410584
aa(lp638
F195.2171601
aasS'single_99.9'
p639
(lp640
(lp641
F65.3528175
aa(lp642
F71.03787829999999
aa(lp643
F76.35719830000001
aa(lp644
F77.9662039
aa(lp645
F76.3132172
aa(lp646
F80.3472731
aa(lp647
F84.92447449999999
aa(lp648
F82.0705877
aa(lp649
F102.24852639999999
aa(lp650
F91.58802399999999
aa(lp651
F93.78336250000001
aa(lp652
F121.550392
aa(lp653
F112.84131959999999
aa(lp654
F126.8315836
aa(lp655
F129.34420799999998
aa(lp656
F138.53043810000003
aa(lp657
F165.770153
aa(lp658
F167.2381418
aa(lp659
F237.94595900000002
aa(lp660
F271.1797732
aasS'single_soj_99.99'
p661
(lp662
(lp663
F41.996300000000005
aa(lp664
F73.9931
aa(lp665
F59.994499999999995
aa(lp666
F66.9938
aa(lp667
F65.9939
aa(lp668
F74.993
aa(lp669
F77.9927
aa(lp670
F73.9931
aa(lp671
F106.9898
aa(lp672
F98.9906
aa(lp673
F91.9913
aa(lp674
F163.9841
aa(lp675
F115.9889
aa(lp676
F133.9871
aa(lp677
F130.98739999999998
aa(lp678
F170.9834
aa(lp679
F188.9816
aa(lp680
F168.98360000000002
aa(lp681
F266.9738
aa(lp682
F361.96430000000004
aasS'minimum_soj_99.99'
p683
(lp684
(lp685
F54.995000000000005
aa(lp686
F59.994499999999995
aa(lp687
F50.9954
aa(lp688
F61.9943
aa(lp689
F89.9915
aa(lp690
F67.99369999999999
aa(lp691
F124.988
aa(lp692
F89.9915
aa(lp693
F102.9902
aa(lp694
F99.9905
aa(lp695
F102.9902
aa(lp696
F104.99000000000001
aa(lp697
F141.9863
aa(lp698
F141.9863
aa(lp699
F129.9875
aa(lp700
F177.9827
aa(lp701
F202.98020000000002
aa(lp702
F224.97799999999998
aa(lp703
F205.9799
aa(lp704
F221.97830000000002
aasS'minimum_soj_50'
p705
(lp706
(lp707
F23.565
aa(lp708
F24.965
aa(lp709
F23.9842
aa(lp710
F25.884800000000002
aa(lp711
F28.052000000000003
aa(lp712
F27.0689
aa(lp713
F36.308
aa(lp714
F29.463
aa(lp715
F29.7156
aa(lp716
F30.1465
aa(lp717
F30.519199999999998
aa(lp718
F31.26
aa(lp719
F32.139700000000005
aa(lp720
F33.9207
aa(lp721
F34.125
aa(lp722
F36.2438
aa(lp723
F36.9572
aa(lp724
F40.419999999999995
aa(lp725
F43.8131
aa(lp726
F46.056400000000004
aas.