(dp0
S'minimum_99.99'
p1
(lp2
(lp3
F80.1804814
aa(lp4
F81.3283677
aa(lp5
F84.91000860000001
aa(lp6
F93.55014419999999
aa(lp7
F90.1304879
aa(lp8
F94.7750224
aa(lp9
F127.96870270000001
aa(lp10
F109.5045487
aa(lp11
F126.46985190000001
aa(lp12
F144.9290057
aa(lp13
F149.7645222
aa(lp14
F135.3299658
aa(lp15
F146.4018585
aa(lp16
F152.83721500000001
aa(lp17
F158.12068669999996
aa(lp18
F180.64343390000002
aa(lp19
F187.1947793
aa(lp20
F212.35626290000002
aa(lp21
F250.76742199999998
aa(lp22
F229.7495228
aasS'random_soj_99.99'
p23
(lp24
(lp25
F61.9943
aa(lp26
F63.994099999999996
aa(lp27
F66.9938
aa(lp28
F57.9947
aa(lp29
F68.9936
aa(lp30
F84.992
aa(lp31
F75.9929
aa(lp32
F86.99180000000001
aa(lp33
F90.9914
aa(lp34
F89.9915
aa(lp35
F86.99180000000001
aa(lp36
F104.99000000000001
aa(lp37
F126.98780000000001
aa(lp38
F128.9876
aa(lp39
F150.9854
aa(lp40
F159.9845
aa(lp41
F165.9839
aa(lp42
F192.9812
aa(lp43
F259.9745
aa(lp44
F257.9747
aasS'minimum_99'
p45
(lp46
(lp47
F57.21867700000001
aa(lp48
F60.09530909999999
aa(lp49
F59.944875
aa(lp50
F61.76667799999999
aa(lp51
F63.5131512
aa(lp52
F64.4127792
aa(lp53
F65.85504040000001
aa(lp54
F68.7131248
aa(lp55
F70.60074
aa(lp56
F76.95869060000001
aa(lp57
F77.7809006
aa(lp58
F83.6754312
aa(lp59
F85.69239900000001
aa(lp60
F92.83968499999999
aa(lp61
F94.38673209999999
aa(lp62
F100.2785264
aa(lp63
F108.8275486
aa(lp64
F116.4886496
aa(lp65
F140.485936
aa(lp66
F146.0219528
aasS'minimum_50'
p67
(lp68
(lp69
F35.1816604
aa(lp70
F35.252172599999994
aa(lp71
F35.235466200000005
aa(lp72
F35.6952028
aa(lp73
F35.8147778
aa(lp74
F36.2590256
aa(lp75
F36.5013853
aa(lp76
F36.5126695
aa(lp77
F37.193464999999996
aa(lp78
F37.620713300000006
aa(lp79
F38.1696398
aa(lp80
F38.56406499999999
aa(lp81
F39.378986499999996
aa(lp82
F40.116375
aa(lp83
F40.621735799999996
aa(lp84
F41.959074400000006
aa(lp85
F43.2330286
aa(lp86
F44.4687013
aa(lp87
F49.350712
aa(lp88
F51.2580776
aasS'single_soj_50'
p89
(lp90
(lp91
F25.3791
aa(lp92
F23.4287
aa(lp93
F24.2117
aa(lp94
F25.093400000000003
aa(lp95
F25.477700000000002
aa(lp96
F28.0692
aa(lp97
F27.7012
aa(lp98
F28.031
aa(lp99
F29.932
aa(lp100
F28.0332
aa(lp101
F31.406100000000002
aa(lp102
F31.060000000000002
aa(lp103
F31.8985
aa(lp104
F33.212
aa(lp105
F34.592
aa(lp106
F37.004999999999995
aa(lp107
F38.0226
aa(lp108
F41.12
aa(lp109
F44.957
aa(lp110
F48.6002
aasS'minimum_x'
p111
(lp112
(lp113
I5
aa(lp114
I10
aa(lp115
I15
aa(lp116
I20
aa(lp117
I25
aa(lp118
I30
aa(lp119
I35
aa(lp120
I40
aa(lp121
I45
aa(lp122
I50
aa(lp123
I55
aa(lp124
I60
aa(lp125
I65
aa(lp126
I70
aa(lp127
I75
aa(lp128
I80
aa(lp129
I85
aa(lp130
I90
aa(lp131
I95
aa(lp132
I100
aasS'single_x'
p133
(lp134
(lp135
I5
aa(lp136
I10
aa(lp137
I15
aa(lp138
I20
aa(lp139
I25
aa(lp140
I30
aa(lp141
I35
aa(lp142
I40
aa(lp143
I45
aa(lp144
I50
aa(lp145
I55
aa(lp146
I60
aa(lp147
I65
aa(lp148
I70
aa(lp149
I75
aa(lp150
I80
aa(lp151
I85
aa(lp152
I90
aa(lp153
I95
aa(lp154
I100
aasS'single_soj_99.9'
p155
(lp156
(lp157
F49.3597
aa(lp158
F47.290600000000005
aa(lp159
F48.0236
aa(lp160
F50.441
aa(lp161
F52.226200000000006
aa(lp162
F64.2606
aa(lp163
F64.1964
aa(lp164
F68.342
aa(lp165
F74.04599999999999
aa(lp166
F69.1067
aa(lp167
F90.0017
aa(lp168
F85.25
aa(lp169
F89.7895
aa(lp170
F99.35600000000001
aa(lp171
F112.6976
aa(lp172
F135.721
aa(lp173
F145.8277
aa(lp174
F169.38
aa(lp175
F236.4485
aa(lp176
F255.8408
aasS'minimum_soj_95'
p177
(lp178
(lp179
F30.870499999999996
aa(lp180
F35.050799999999995
aa(lp181
F35.646
aa(lp182
F34.9222
aa(lp183
F38.054
aa(lp184
F42.212
aa(lp185
F43.1425
aa(lp186
F42.0832
aa(lp187
F45.8595
aa(lp188
F49.011500000000005
aa(lp189
F52.274699999999996
aa(lp190
F51.1368
aa(lp191
F56.4566
aa(lp192
F56.658
aa(lp193
F57.9074
aa(lp194
F67.83709999999999
aa(lp195
F69.815
aa(lp196
F77.774
aa(lp197
F94.225
aa(lp198
F98.456
aasS'single_soj_95'
p199
(lp200
(lp201
F33.8953
aa(lp202
F31.569100000000002
aa(lp203
F32.744
aa(lp204
F35.018600000000006
aa(lp205
F35.9636
aa(lp206
F40.5348
aa(lp207
F40.8188
aa(lp208
F42.340999999999994
aa(lp209
F45.6824
aa(lp210
F43.9375
aa(lp211
F50.4699
aa(lp212
F51.27
aa(lp213
F53.8865
aa(lp214
F58.868
aa(lp215
F63.5792
aa(lp216
F71.22999999999999
aa(lp217
F78.3291
aa(lp218
F87.2
aa(lp219
F107.429
aa(lp220
F122.453
aasS'minimum_soj_99'
p221
(lp222
(lp223
F36.2525
aa(lp224
F42.5284
aa(lp225
F42.8125
aa(lp226
F42.178
aa(lp227
F46.232
aa(lp228
F51.319
aa(lp229
F52.006
aa(lp230
F51.9392
aa(lp231
F56.3
aa(lp232
F62.0762
aa(lp233
F65.82669999999999
aa(lp234
F65.9636
aa(lp235
F71.7602
aa(lp236
F73.3215
aa(lp237
F74.4603
aa(lp238
F87.9872
aa(lp239
F90.47
aa(lp240
F101.76799999999999
aa(lp241
F123.508
aa(lp242
F129.22520000000003
aasS'single_soj_99'
p243
(lp244
(lp245
F40.8092
aa(lp246
F37.6838
aa(lp247
F39.221000000000004
aa(lp248
F41.5796
aa(lp249
F42.460100000000004
aa(lp250
F49.1196
aa(lp251
F50.4556
aa(lp252
F51.989
aa(lp253
F56.4096
aa(lp254
F54.9557
aa(lp255
F64.2382
aa(lp256
F65.47
aa(lp257
F69.377
aa(lp258
F76.676
aa(lp259
F84.5024
aa(lp260
F94.5585
aa(lp261
F106.95769999999999
aa(lp262
F121.14
aa(lp263
F156.905
aa(lp264
F182.81119999999999
aasS'single_50'
p265
(lp266
(lp267
F35.0805273
aa(lp268
F35.3815583
aa(lp269
F35.3297403
aa(lp270
F35.5764802
aa(lp271
F35.877187000000006
aa(lp272
F36.141005799999995
aa(lp273
F36.41452580000001
aa(lp274
F36.8085787
aa(lp275
F37.246889
aa(lp276
F37.552864
aa(lp277
F37.9461732
aa(lp278
F38.8112864
aa(lp279
F38.935405200000005
aa(lp280
F40.0274364
aa(lp281
F41.168040500000004
aa(lp282
F42.60074399999999
aa(lp283
F43.6704416
aa(lp284
F45.87403079999999
aa(lp285
F48.518715199999995
aa(lp286
F52.651938300000005
aasS'random_50'
p287
(lp288
(lp289
F35.042405
aa(lp290
F35.243873300000004
aa(lp291
F35.5651028
aa(lp292
F35.5692009
aa(lp293
F35.895528
aa(lp294
F36.2369025
aa(lp295
F36.235108000000004
aa(lp296
F36.7633887
aa(lp297
F37.178522400000006
aa(lp298
F37.500512
aa(lp299
F37.999754900000006
aa(lp300
F38.954499
aa(lp301
F39.079567000000004
aa(lp302
F39.718018
aa(lp303
F40.5299008
aa(lp304
F41.9647425
aa(lp305
F42.6820868
aa(lp306
F45.8142565
aa(lp307
F48.058882600000004
aa(lp308
F51.2527744
aasS'random_soj_99.9'
p309
(lp310
(lp311
F47.18
aa(lp312
F52.5068
aa(lp313
F56.1748
aa(lp314
F51.8626
aa(lp315
F55.976
aa(lp316
F62.944
aa(lp317
F61.7929
aa(lp318
F63.81040000000001
aa(lp319
F72.768
aa(lp320
F70.7985
aa(lp321
F72.65
aa(lp322
F86.61
aa(lp323
F99.3914
aa(lp324
F101.6704
aa(lp325
F106.032
aa(lp326
F123.37349999999999
aa(lp327
F128.3099
aa(lp328
F148.1808
aa(lp329
F220.832
aa(lp330
F222.7824
aasS'minimum_soj_99.9'
p331
(lp332
(lp333
F44.177
aa(lp334
F50.916
aa(lp335
F51.8985
aa(lp336
F52.8964
aa(lp337
F57.434000000000005
aa(lp338
F61.903
aa(lp339
F64.89750000000001
aa(lp340
F64.85210000000001
aa(lp341
F71.62349999999999
aa(lp342
F84.7313
aa(lp343
F85.5376
aa(lp344
F86.60799999999999
aa(lp345
F94.4348
aa(lp346
F94.4125
aa(lp347
F97.87950000000001
aa(lp348
F116.0474
aa(lp349
F120.755
aa(lp350
F131.522
aa(lp351
F160.6815
aa(lp352
F161.9744
aasS'single_99'
p353
(lp354
(lp355
F57.831107599999996
aa(lp356
F58.8639542
aa(lp357
F59.023539
aa(lp358
F60.6605388
aa(lp359
F61.46493100000001
aa(lp360
F64.5541054
aa(lp361
F67.8916454
aa(lp362
F69.89537529999998
aa(lp363
F71.4832892
aa(lp364
F75.601314
aa(lp365
F78.8974584
aa(lp366
F83.4561968
aa(lp367
F86.21306640000002
aa(lp368
F93.9821972
aa(lp369
F102.1595891
aa(lp370
F110.21148479999998
aa(lp371
F124.3954832
aa(lp372
F136.42386259999998
aa(lp373
F170.434408
aa(lp374
F199.32584480000003
aasS'random_99'
p375
(lp376
(lp377
F57.803
aa(lp378
F59.32709540000001
aa(lp379
F61.16666669999999
aa(lp380
F61.33190549999999
aa(lp381
F62.70130199999999
aa(lp382
F65.360435
aa(lp383
F67.51202
aa(lp384
F69.0719424
aa(lp385
F71.2314556
aa(lp386
F74.4698444
aa(lp387
F76.9833986
aa(lp388
F85.1678934
aa(lp389
F87.0209745
aa(lp390
F91.500854
aa(lp391
F95.51984100000001
aa(lp392
F107.69631620000001
aa(lp393
F113.016902
aa(lp394
F130.9193909
aa(lp395
F160.3299416
aa(lp396
F181.7998784
aasS'single_99.99'
p397
(lp398
(lp399
F77.27277529999999
aa(lp400
F82.43925770000001
aa(lp401
F85.5029491
aa(lp402
F87.1577838
aa(lp403
F96.923809
aa(lp404
F137.26677229999996
aa(lp405
F110.1344866
aa(lp406
F129.28257069999998
aa(lp407
F123.9561041
aa(lp408
F130.76842200000002
aa(lp409
F153.4231572
aa(lp410
F134.7310256
aa(lp411
F150.0574932
aa(lp412
F153.9551036
aa(lp413
F180.95940290000001
aa(lp414
F222.30926719999997
aa(lp415
F202.8842096
aa(lp416
F231.2963682
aa(lp417
F315.3489624
aa(lp418
F326.2718699
aasS'single_95'
p419
(lp420
(lp421
F47.6370559
aa(lp422
F48.791221900000004
aa(lp423
F48.798896
aa(lp424
F50.677855799999996
aa(lp425
F51.67651600000001
aa(lp426
F52.96664019999999
aa(lp427
F54.56065420000001
aa(lp428
F56.5711657
aa(lp429
F57.612669800000006
aa(lp430
F60.02975
aa(lp431
F61.7243388
aa(lp432
F65.0325488
aa(lp433
F66.6724068
aa(lp434
F71.87593960000001
aa(lp435
F76.5910028
aa(lp436
F82.80642399999999
aa(lp437
F90.8705456
aa(lp438
F98.017698
aa(lp439
F116.5531344
aa(lp440
F133.3627495
aasS'random_99.99'
p441
(lp442
(lp443
F90.15148500000001
aa(lp444
F92.3552647
aa(lp445
F96.7208271
aa(lp446
F82.7412261
aa(lp447
F97.367763
aa(lp448
F112.8142175
aa(lp449
F104.6060392
aa(lp450
F116.8358167
aa(lp451
F113.2401758
aa(lp452
F117.83771510000001
aa(lp453
F116.7268267
aa(lp454
F135.82991579999998
aa(lp455
F158.8946095
aa(lp456
F151.860314
aa(lp457
F184.0480938
aa(lp458
F187.5197463
aa(lp459
F195.48694940000001
aa(lp460
F220.3314653
aa(lp461
F290.2904686
aa(lp462
F285.1169856
aasS'random_95'
p463
(lp464
(lp465
F48.67492
aa(lp466
F48.63508820000001
aa(lp467
F50.416027899999996
aa(lp468
F50.8371405
aa(lp469
F51.690797999999994
aa(lp470
F53.877072500000004
aa(lp471
F54.10478320000001
aa(lp472
F56.1887808
aa(lp473
F57.6254362
aa(lp474
F59.3367935
aa(lp475
F61.787710600000004
aa(lp476
F66.4705716
aa(lp477
F66.136066
aa(lp478
F70.38238600000001
aa(lp479
F72.868498
aa(lp480
F79.47609600000001
aa(lp481
F84.0028382
aa(lp482
F96.8299608
aa(lp483
F109.82936360000001
aa(lp484
F121.82104800000002
aasS'random_soj_50'
p485
(lp486
(lp487
F25.1039
aa(lp488
F25.4199
aa(lp489
F25.6584
aa(lp490
F25.8343
aa(lp491
F26.401600000000002
aa(lp492
F28.176000000000002
aa(lp493
F27.2585
aa(lp494
F28.2798
aa(lp495
F30.5592
aa(lp496
F29.48
aa(lp497
F29.2146
aa(lp498
F30.95
aa(lp499
F32.0108
aa(lp500
F34.301199999999994
aa(lp501
F33.9664
aa(lp502
F36.3875
aa(lp503
F36.8458
aa(lp504
F40.626000000000005
aa(lp505
F43.479499999999994
aa(lp506
F46.7703
aasS'random_x'
p507
(lp508
(lp509
I5
aa(lp510
I10
aa(lp511
I15
aa(lp512
I20
aa(lp513
I25
aa(lp514
I30
aa(lp515
I35
aa(lp516
I40
aa(lp517
I45
aa(lp518
I50
aa(lp519
I55
aa(lp520
I60
aa(lp521
I65
aa(lp522
I70
aa(lp523
I75
aa(lp524
I80
aa(lp525
I85
aa(lp526
I90
aa(lp527
I95
aa(lp528
I100
aasS'minimum_95'
p529
(lp530
(lp531
F48.2264314
aa(lp532
F49.120061699999994
aa(lp533
F49.5320808
aa(lp534
F50.68807219999999
aa(lp535
F51.9111589
aa(lp536
F52.732921600000005
aa(lp537
F54.381659500000005
aa(lp538
F55.3354608
aa(lp539
F57.2499781
aa(lp540
F60.4873995
aa(lp541
F61.565764599999994
aa(lp542
F64.5412256
aa(lp543
F67.195317
aa(lp544
F71.41622
aa(lp545
F73.0859318
aa(lp546
F77.1439727
aa(lp547
F83.7376447
aa(lp548
F88.8460953
aa(lp549
F107.0107
aa(lp550
F111.092384
aasS'random_99.9'
p551
(lp552
(lp553
F68.021
aa(lp554
F75.3476356
aa(lp555
F80.7141166
aa(lp556
F73.7468238
aa(lp557
F78.57970499999999
aa(lp558
F83.09764750000001
aa(lp559
F84.6844392
aa(lp560
F85.2206276
aa(lp561
F90.303696
aa(lp562
F92.3564109
aa(lp563
F97.184725
aa(lp564
F111.7811562
aa(lp565
F124.08129849999999
aa(lp566
F119.507056
aa(lp567
F128.914904
aa(lp568
F144.4045069
aa(lp569
F150.9085454
aa(lp570
F169.01427520000001
aa(lp571
F246.4947696
aa(lp572
F246.14895520000002
aasS'random_soj_95'
p573
(lp574
(lp575
F34.229600000000005
aa(lp576
F34.464600000000004
aa(lp577
F35.6962
aa(lp578
F36.2435
aa(lp579
F37.345600000000005
aa(lp580
F41.264
aa(lp581
F39.9959
aa(lp582
F42.5232
aa(lp583
F46.8046
aa(lp584
F45.9275
aa(lp585
F46.6724
aa(lp586
F51.980000000000004
aa(lp587
F53.458400000000005
aa(lp588
F60.1924
aa(lp589
F60.334
aa(lp590
F68.24000000000001
aa(lp591
F71.7667
aa(lp592
F85.1632
aa(lp593
F98.687
aa(lp594
F110.501
aasS'random_soj_99'
p595
(lp596
(lp597
F40.34
aa(lp598
F41.6862
aa(lp599
F42.9626
aa(lp600
F43.3985
aa(lp601
F44.9744
aa(lp602
F49.784
aa(lp603
F49.5525
aa(lp604
F51.96960000000001
aa(lp605
F57.6148
aa(lp606
F57.326
aa(lp607
F57.824400000000004
aa(lp608
F66.27000000000001
aa(lp609
F70.0138
aa(lp610
F78.0236
aa(lp611
F78.803
aa(lp612
F92.203
aa(lp613
F96.28699999999999
aa(lp614
F114.92360000000001
aa(lp615
F143.822
aa(lp616
F164.6683
aasS'minimum_99.9'
p617
(lp618
(lp619
F70.4589316
aa(lp620
F72.40620899999999
aa(lp621
F73.14666780000002
aa(lp622
F78.1321964
aa(lp623
F79.4052419
aa(lp624
F77.9869104
aa(lp625
F82.54247649999999
aa(lp626
F86.2399549
aa(lp627
F90.1956253
aa(lp628
F105.5210569
aa(lp629
F101.36523679999999
aa(lp630
F110.317336
aa(lp631
F113.098626
aa(lp632
F119.95537499999999
aa(lp633
F124.52330649999999
aa(lp634
F132.4947538
aa(lp635
F145.6151419
aa(lp636
F150.7670759
aa(lp637
F182.98129799999998
aa(lp638
F183.1992416
aasS'single_99.9'
p639
(lp640
(lp641
F70.4382091
aa(lp642
F74.68921540000001
aa(lp643
F72.91939239999999
aa(lp644
F74.14332300000001
aa(lp645
F76.17972200000001
aa(lp646
F84.9909019
aa(lp647
F86.89987260000001
aa(lp648
F92.47941339999998
aa(lp649
F94.28772950000001
aa(lp650
F95.600334
aa(lp651
F111.0321204
aa(lp652
F109.11956
aa(lp653
F111.96263640000002
aa(lp654
F122.1363932
aa(lp655
F136.6147109
aa(lp656
F158.5669648
aa(lp657
F169.9134032
aa(lp658
F191.0117642
aa(lp659
F257.0603496
aa(lp660
F279.1370132
aasS'single_soj_99.99'
p661
(lp662
(lp663
F53.9951
aa(lp664
F51.9953
aa(lp665
F55.9949
aa(lp666
F58.994600000000005
aa(lp667
F65.9939
aa(lp668
F102.9902
aa(lp669
F80.9924
aa(lp670
F94.991
aa(lp671
F96.9908
aa(lp672
F93.9911
aa(lp673
F123.9881
aa(lp674
F104.99000000000001
aa(lp675
F119.9885
aa(lp676
F124.988
aa(lp677
F148.9856
aa(lp678
F189.98149999999998
aa(lp679
F173.98309999999998
aa(lp680
F204.98000000000002
aa(lp681
F289.9715
aa(lp682
F298.9706
aasS'minimum_soj_99.99'
p683
(lp684
(lp685
F49.9955
aa(lp686
F56.9948
aa(lp687
F59.994499999999995
aa(lp688
F62.9942
aa(lp689
F64.994
aa(lp690
F74.993
aa(lp691
F99.9905
aa(lp692
F81.9923
aa(lp693
F99.9905
aa(lp694
F115.9889
aa(lp695
F125.9879
aa(lp696
F105.98989999999999
aa(lp697
F121.98830000000001
aa(lp698
F119.9885
aa(lp699
F123.9881
aa(lp700
F157.9847
aa(lp701
F154.98499999999999
aa(lp702
F184.982
aa(lp703
F219.9785
aa(lp704
F202.98020000000002
aasS'minimum_soj_50'
p705
(lp706
(lp707
F23.063
aa(lp708
F25.6024
aa(lp709
F25.8065
aa(lp710
F25.1028
aa(lp711
F26.708000000000002
aa(lp712
F29.367
aa(lp713
F29.3295
aa(lp714
F28.215500000000002
aa(lp715
F30.175
aa(lp716
F30.874100000000002
aa(lp717
F32.7211
aa(lp718
F31.0075
aa(lp719
F33.4427
aa(lp720
F32.3125
aa(lp721
F32.6794
aa(lp722
F37.1912
aa(lp723
F36.47
aa(lp724
F39.254
aa(lp725
F43.785999999999994
aa(lp726
F45.748400000000004
aas.