(dp0
S'minimum_99.99'
p1
(lp2
(lp3
F81.5383511
aa(lp4
F88.6616331
aa(lp5
F88.20967950000001
aa(lp6
F84.5970399
aa(lp7
F93.40015930000001
aa(lp8
F100.58444219999998
aa(lp9
F111.1973794
aa(lp10
F115.69093029999999
aa(lp11
F117.38976029999999
aa(lp12
F156.5338455
aa(lp13
F132.1892805
aa(lp14
F129.24957410000002
aa(lp15
F122.062293
aa(lp16
F189.674531
aa(lp17
F146.04489439999998
aa(lp18
F160.71842660000002
aa(lp19
F169.59153980000002
aa(lp20
F186.27587089999997
aa(lp21
F193.7861195
aa(lp22
F213.7271259
aasS'random_soj_99.99'
p23
(lp24
(lp25
F53.9951
aa(lp26
F60.9944
aa(lp27
F65.9939
aa(lp28
F64.994
aa(lp29
F80.9924
aa(lp30
F75.9929
aa(lp31
F81.9923
aa(lp32
F84.992
aa(lp33
F93.9911
aa(lp34
F93.9911
aa(lp35
F122.98819999999999
aa(lp36
F159.9845
aa(lp37
F129.9875
aa(lp38
F130.98739999999998
aa(lp39
F148.9856
aa(lp40
F143.9861
aa(lp41
F210.9794
aa(lp42
F211.9793
aa(lp43
F203.98010000000002
aa(lp44
F311.96930000000003
aasS'minimum_99'
p45
(lp46
(lp47
F56.7865107
aa(lp48
F58.1224481
aa(lp49
F60.710426999999996
aa(lp50
F61.62419129999999
aa(lp51
F62.210169700000016
aa(lp52
F66.37707599999999
aa(lp53
F66.0598294
aa(lp54
F69.17605089999999
aa(lp55
F70.5539304
aa(lp56
F74.22975600000001
aa(lp57
F76.2489195
aa(lp58
F78.9743827
aa(lp59
F79.542469
aa(lp60
F86.2666
aa(lp61
F89.70712799999998
aa(lp62
F93.067577
aa(lp63
F101.03480680000001
aa(lp64
F106.5984764
aa(lp65
F109.08819650000001
aa(lp66
F128.51904969999998
aasS'minimum_50'
p67
(lp68
(lp69
F35.3236973
aa(lp70
F35.038171
aa(lp71
F35.3578635
aa(lp72
F35.483222899999994
aa(lp73
F36.006334900000006
aa(lp74
F36.19354359999999
aa(lp75
F36.290287600000006
aa(lp76
F36.7639693
aa(lp77
F37.003425899999996
aa(lp78
F37.6316385
aa(lp79
F38.090419499999996
aa(lp80
F38.4410969
aa(lp81
F38.802108999999994
aa(lp82
F39.854003
aa(lp83
F40.81711839999999
aa(lp84
F41.4884762
aa(lp85
F43.5393282
aa(lp86
F44.470050699999994
aa(lp87
F45.8762825
aa(lp88
F49.6358258
aasS'single_soj_50'
p89
(lp90
(lp91
F25.0469
aa(lp92
F24.432399999999998
aa(lp93
F25.293200000000002
aa(lp94
F25.624799999999997
aa(lp95
F28.3025
aa(lp96
F25.8258
aa(lp97
F26.9425
aa(lp98
F27.226399999999998
aa(lp99
F27.2528
aa(lp100
F31.743199999999998
aa(lp101
F29.308400000000002
aa(lp102
F30.740000000000002
aa(lp103
F32.300799999999995
aa(lp104
F31.5848
aa(lp105
F34.9744
aa(lp106
F36.112700000000004
aa(lp107
F39.1568
aa(lp108
F41.363
aa(lp109
F43.157
aa(lp110
F52.1276
aasS'minimum_x'
p111
(lp112
(lp113
I5
aa(lp114
I10
aa(lp115
I15
aa(lp116
I20
aa(lp117
I25
aa(lp118
I30
aa(lp119
I35
aa(lp120
I40
aa(lp121
I45
aa(lp122
I50
aa(lp123
I55
aa(lp124
I60
aa(lp125
I65
aa(lp126
I70
aa(lp127
I75
aa(lp128
I80
aa(lp129
I85
aa(lp130
I90
aa(lp131
I95
aa(lp132
I100
aasS'single_x'
p133
(lp134
(lp135
I5
aa(lp136
I10
aa(lp137
I15
aa(lp138
I20
aa(lp139
I25
aa(lp140
I30
aa(lp141
I35
aa(lp142
I40
aa(lp143
I45
aa(lp144
I50
aa(lp145
I55
aa(lp146
I60
aa(lp147
I65
aa(lp148
I70
aa(lp149
I75
aa(lp150
I80
aa(lp151
I85
aa(lp152
I90
aa(lp153
I95
aa(lp154
I100
aasS'single_soj_99.9'
p155
(lp156
(lp157
F49.0439
aa(lp158
F48.633199999999995
aa(lp159
F49.9172
aa(lp160
F51.8872
aa(lp161
F61.192499999999995
aa(lp162
F56.056999999999995
aa(lp163
F59.5246
aa(lp164
F62.78
aa(lp165
F63.938
aa(lp166
F84.596
aa(lp167
F75.60340000000001
aa(lp168
F82.97
aa(lp169
F87.36569999999999
aa(lp170
F88.6022
aa(lp171
F120.976
aa(lp172
F121.1075
aa(lp173
F155.3936
aa(lp174
F184.1375
aa(lp175
F203.72
aa(lp176
F294.9476
aasS'minimum_soj_95'
p177
(lp178
(lp179
F31.4316
aa(lp180
F37.8167
aa(lp181
F33.911500000000004
aa(lp182
F34.233200000000004
aa(lp183
F35.78059999999999
aa(lp184
F38.189
aa(lp185
F41.88
aa(lp186
F44.083000000000006
aa(lp187
F48.0376
aa(lp188
F49.1396
aa(lp189
F48.126200000000004
aa(lp190
F47.6972
aa(lp191
F48.9437
aa(lp192
F57.0448
aa(lp193
F58.471599999999995
aa(lp194
F62.0309
aa(lp195
F67.0704
aa(lp196
F71.0042
aa(lp197
F72.81360000000001
aa(lp198
F83.17869999999999
aasS'single_soj_95'
p199
(lp200
(lp201
F33.9161
aa(lp202
F33.4336
aa(lp203
F34.403000000000006
aa(lp204
F35.9662
aa(lp205
F40.1975
aa(lp206
F36.899
aa(lp207
F39.706
aa(lp208
F40.28
aa(lp209
F41.7004
aa(lp210
F49.7612
aa(lp211
F46.9804
aa(lp212
F50.33
aa(lp213
F54.742599999999996
aa(lp214
F54.343
aa(lp215
F64.7664
aa(lp216
F69.4311
aa(lp217
F80.16799999999999
aa(lp218
F89.5835
aa(lp219
F96.31
aa(lp220
F132.4292
aasS'minimum_soj_99'
p221
(lp222
(lp223
F36.1098
aa(lp224
F44.9987
aa(lp225
F40.4782
aa(lp226
F41.2763
aa(lp227
F42.5318
aa(lp228
F46.73
aa(lp229
F50.992000000000004
aa(lp230
F54.2745
aa(lp231
F58.6544
aa(lp232
F60.729600000000005
aa(lp233
F59.3297
aa(lp234
F59.1723
aa(lp235
F60.3929
aa(lp236
F71.88
aa(lp237
F72.8565
aa(lp238
F77.9495
aa(lp239
F84.3424
aa(lp240
F90.74119999999999
aa(lp241
F92.1054
aa(lp242
F107.3641
aasS'single_soj_99'
p243
(lp244
(lp245
F40.3286
aa(lp246
F40.4172
aa(lp247
F41.0126
aa(lp248
F42.9146
aa(lp249
F48.108
aa(lp250
F44.897
aa(lp251
F48.9185
aa(lp252
F49.3088
aa(lp253
F50.4252
aa(lp254
F62.7236
aa(lp255
F59.501200000000004
aa(lp256
F63.54
aa(lp257
F68.7772
aa(lp258
F69.183
aa(lp259
F85.712
aa(lp260
F92.3238
aa(lp261
F109.88959999999999
aa(lp262
F126.88999999999999
aa(lp263
F138.423
aa(lp264
F184.6526
aasS'single_50'
p265
(lp266
(lp267
F35.1933348
aa(lp268
F35.2058077
aa(lp269
F35.2686708
aa(lp270
F35.546372000000005
aa(lp271
F35.8346415
aa(lp272
F36.0186778
aa(lp273
F36.460685
aa(lp274
F36.6735199
aa(lp275
F37.10827679999999
aa(lp276
F37.49009959999999
aa(lp277
F38.083991000000005
aa(lp278
F38.69823400000001
aa(lp279
F39.3088912
aa(lp280
F39.541318000000004
aa(lp281
F40.647463599999995
aa(lp282
F41.76536589999999
aa(lp283
F43.4417856
aa(lp284
F45.406015000000004
aa(lp285
F47.5857465
aa(lp286
F54.7872108
aasS'random_50'
p287
(lp288
(lp289
F35.249674
aa(lp290
F35.2623166
aa(lp291
F35.482801
aa(lp292
F35.5572895
aa(lp293
F35.8476607
aa(lp294
F36.1053096
aa(lp295
F36.4365992
aa(lp296
F36.5063965
aa(lp297
F37.095654200000006
aa(lp298
F37.537637600000004
aa(lp299
F38.112714
aa(lp300
F38.632875
aa(lp301
F39.3464381
aa(lp302
F39.7449052
aa(lp303
F40.811015
aa(lp304
F41.84907539999999
aa(lp305
F43.541062100000005
aa(lp306
F45.4796112
aa(lp307
F48.5023196
aa(lp308
F55.027495
aasS'random_soj_99.9'
p309
(lp310
(lp311
F47.3703
aa(lp312
F53.0816
aa(lp313
F52.5617
aa(lp314
F57.56
aa(lp315
F58.5572
aa(lp316
F59.073600000000006
aa(lp317
F68.7252
aa(lp318
F68.936
aa(lp319
F69.3737
aa(lp320
F75.0786
aa(lp321
F88.11919999999999
aa(lp322
F94.9465
aa(lp323
F92.3875
aa(lp324
F95.0144
aa(lp325
F109.2272
aa(lp326
F112.12729999999999
aa(lp327
F155.5448
aa(lp328
F172.8977
aa(lp329
F161.67270000000002
aa(lp330
F271.7523
aasS'minimum_soj_99.9'
p331
(lp332
(lp333
F45.1856
aa(lp334
F55.5008
aa(lp335
F48.9423
aa(lp336
F51.1754
aa(lp337
F51.8814
aa(lp338
F58.716
aa(lp339
F65.4
aa(lp340
F70.8155
aa(lp341
F72.4176
aa(lp342
F79.06620000000001
aa(lp343
F73.2492
aa(lp344
F76.20750000000001
aa(lp345
F74.32159999999999
aa(lp346
F90.48479999999999
aa(lp347
F91.8179
aa(lp348
F97.8155
aa(lp349
F108.98559999999999
aa(lp350
F115.9403
aa(lp351
F121.22480000000002
aa(lp352
F139.075
aasS'single_99'
p353
(lp354
(lp355
F58.208111200000005
aa(lp356
F60.0501831
aa(lp357
F58.7097894
aa(lp358
F61.14421900000001
aa(lp359
F62.03853679999999
aa(lp360
F64.423077
aa(lp361
F67.966397
aa(lp362
F68.1338858
aa(lp363
F70.5423912
aa(lp364
F75.1233058
aa(lp365
F79.176713
aa(lp366
F81.636714
aa(lp367
F85.1487508
aa(lp368
F88.3427175
aa(lp369
F100.986153
aa(lp370
F108.16380459999998
aa(lp371
F123.03976320000001
aa(lp372
F140.41645
aa(lp373
F153.8839635
aa(lp374
F194.7855358
aasS'random_99'
p375
(lp376
(lp377
F60.184090000000005
aa(lp378
F58.4209478
aa(lp379
F61.111732999999994
aa(lp380
F62.77238590000001
aa(lp381
F62.668916800000005
aa(lp382
F65.6185294
aa(lp383
F67.2884202
aa(lp384
F68.004793
aa(lp385
F72.46627520000001
aa(lp386
F74.92789640000001
aa(lp387
F81.1626836
aa(lp388
F82.495375
aa(lp389
F86.85207679999999
aa(lp390
F89.7607731
aa(lp391
F99.5569079
aa(lp392
F107.68453079999999
aa(lp393
F122.50951429999999
aa(lp394
F132.5621928
aa(lp395
F142.31113059999998
aa(lp396
F204.6063475
aasS'single_99.99'
p397
(lp398
(lp399
F90.8374156
aa(lp400
F85.8159179
aa(lp401
F85.5249474
aa(lp402
F90.87241300000001
aa(lp403
F90.9944001
aa(lp404
F97.3337658
aa(lp405
F101.0473946
aa(lp406
F107.5747423
aa(lp407
F114.64603439999999
aa(lp408
F165.33396539999998
aa(lp409
F132.92220650000002
aa(lp410
F135.898909
aa(lp411
F146.9927993
aa(lp412
F142.6062415
aa(lp413
F185.7459237
aa(lp414
F166.82681709999997
aa(lp415
F221.04639360000002
aa(lp416
F288.2576725
aa(lp417
F261.6193365
aa(lp418
F366.25187139999997
aasS'single_95'
p419
(lp420
(lp421
F48.55066120000001
aa(lp422
F49.1959228
aa(lp423
F48.853407
aa(lp424
F50.85699300000001
aa(lp425
F51.57245849999999
aa(lp426
F52.51095899999999
aa(lp427
F54.758972
aa(lp428
F55.27073
aa(lp429
F57.95388239999999
aa(lp430
F59.3773286
aa(lp431
F62.135771000000005
aa(lp432
F64.343503
aa(lp433
F67.51148140000001
aa(lp434
F69.08081750000001
aa(lp435
F76.0770116
aa(lp436
F81.12217869999998
aa(lp437
F89.593056
aa(lp438
F98.9733175
aa(lp439
F106.89409500000001
aa(lp440
F139.6171636
aasS'random_99.99'
p441
(lp442
(lp443
F82.334266
aa(lp444
F80.5894417
aa(lp445
F95.361963
aa(lp446
F89.95350590000001
aa(lp447
F111.30436929999999
aa(lp448
F103.02219819999999
aa(lp449
F103.0941902
aa(lp450
F104.5190479
aa(lp451
F124.0930907
aa(lp452
F122.35226420000001
aa(lp453
F151.81631719999996
aa(lp454
F186.24287499999997
aa(lp455
F159.0735911
aa(lp456
F157.6187373
aa(lp457
F179.6665317
aa(lp458
F175.49794859999997
aa(lp459
F241.2693709
aa(lp460
F238.6926284
aa(lp461
F231.2993682
aa(lp462
F340.7214245
aasS'random_95'
p463
(lp464
(lp465
F49.58851000000001
aa(lp466
F49.4038959
aa(lp467
F50.357702999999994
aa(lp468
F51.37330370000001
aa(lp469
F51.751187900000005
aa(lp470
F53.1996488
aa(lp471
F54.2217666
aa(lp472
F55.1068714
aa(lp473
F57.889292000000005
aa(lp474
F59.941279800000004
aa(lp475
F63.51395799999999
aa(lp476
F64.461
aa(lp477
F67.92994759999999
aa(lp478
F69.9040004
aa(lp479
F75.2410343
aa(lp480
F79.1063844
aa(lp481
F87.8928828
aa(lp482
F95.4948352
aa(lp483
F107.073418
aa(lp484
F137.824678
aasS'random_soj_50'
p485
(lp486
(lp487
F24.163899999999998
aa(lp488
F27.4112
aa(lp489
F25.575300000000002
aa(lp490
F26.57
aa(lp491
F27.0476
aa(lp492
F27.5212
aa(lp493
F29.6708
aa(lp494
F30.32
aa(lp495
F28.9766
aa(lp496
F29.6708
aa(lp497
F31.608999999999998
aa(lp498
F33.7525
aa(lp499
F32.8625
aa(lp500
F33.6776
aa(lp501
F34.519999999999996
aa(lp502
F35.03789999999999
aa(lp503
F38.5986
aa(lp504
F40.8524
aa(lp505
F43.247800000000005
aa(lp506
F50.743
aasS'random_x'
p507
(lp508
(lp509
I5
aa(lp510
I10
aa(lp511
I15
aa(lp512
I20
aa(lp513
I25
aa(lp514
I30
aa(lp515
I35
aa(lp516
I40
aa(lp517
I45
aa(lp518
I50
aa(lp519
I55
aa(lp520
I60
aa(lp521
I65
aa(lp522
I70
aa(lp523
I75
aa(lp524
I80
aa(lp525
I85
aa(lp526
I90
aa(lp527
I95
aa(lp528
I100
aasS'minimum_95'
p529
(lp530
(lp531
F49.007579400000004
aa(lp532
F48.5841821
aa(lp533
F50.401327499999994
aa(lp534
F50.631293199999995
aa(lp535
F51.919594900000014
aa(lp536
F53.81812679999999
aa(lp537
F53.96296600000001
aa(lp538
F55.9034806
aa(lp539
F57.58331659999999
aa(lp540
F59.832981000000004
aa(lp541
F61.557897
aa(lp542
F63.3053228
aa(lp543
F64.136057
aa(lp544
F68.24085600000001
aa(lp545
F71.75069919999999
aa(lp546
F73.85000140000001
aa(lp547
F80.13035280000001
aa(lp548
F83.2119374
aa(lp549
F86.03510600000001
aa(lp550
F99.3370579
aasS'random_99.9'
p551
(lp552
(lp553
F71.877898
aa(lp554
F69.90956379999999
aa(lp555
F75.462489
aa(lp556
F79.42931600000001
aa(lp557
F79.9225429
aa(lp558
F79.6645088
aa(lp559
F86.1919048
aa(lp560
F84.5451832
aa(lp561
F91.1519669
aa(lp562
F97.41368920000001
aa(lp563
F108.42864319999998
aa(lp564
F110.19037499999999
aa(lp565
F112.7236199
aa(lp566
F114.0437288
aa(lp567
F131.4365554
aa(lp568
F136.4161398
aa(lp569
F177.6834628
aa(lp570
F194.5670476
aa(lp571
F183.1841614
aa(lp572
F296.7375195
aasS'random_soj_95'
p573
(lp574
(lp575
F33.2485
aa(lp576
F37.888799999999996
aa(lp577
F35.6159
aa(lp578
F37.742
aa(lp579
F38.4172
aa(lp580
F39.903600000000004
aa(lp581
F43.630900000000004
aa(lp582
F45.272
aa(lp583
F44.516
aa(lp584
F46.6609
aa(lp585
F52.022999999999996
aa(lp586
F55.839999999999996
aa(lp587
F56.050000000000004
aa(lp588
F58.5752
aa(lp589
F62.9024
aa(lp590
F65.4094
aa(lp591
F77.2648
aa(lp592
F85.1504
aa(lp593
F94.74900000000001
aa(lp594
F126.4492
aasS'random_soj_99'
p595
(lp596
(lp597
F39.9615
aa(lp598
F44.5696
aa(lp599
F42.874900000000004
aa(lp600
F45.794000000000004
aa(lp601
F46.2224
aa(lp602
F48.899300000000004
aa(lp603
F53.8873
aa(lp604
F55.64
aa(lp605
F55.4096
aa(lp606
F58.0262
aa(lp607
F66.20660000000001
aa(lp608
F71.2625
aa(lp609
F71.4
aa(lp610
F74.9678
aa(lp611
F82.9472
aa(lp612
F88.7058
aa(lp613
F107.4438
aa(lp614
F117.9806
aa(lp615
F125.7333
aa(lp616
F187.5115
aasS'minimum_99.9'
p617
(lp618
(lp619
F71.87779040000001
aa(lp620
F72.0700704
aa(lp621
F73.9982655
aa(lp622
F77.0747454
aa(lp623
F76.4613781
aa(lp624
F84.00165919999999
aa(lp625
F85.18753
aa(lp626
F90.71768709999999
aa(lp627
F87.3685216
aa(lp628
F97.00696950000001
aa(lp629
F94.501402
aa(lp630
F102.2356675
aa(lp631
F98.285376
aa(lp632
F108.87265599999999
aa(lp633
F113.37632479999998
aa(lp634
F117.05061300000001
aa(lp635
F130.86068920000002
aa(lp636
F136.45710409999998
aa(lp637
F143.884958
aa(lp638
F166.781275
aasS'single_99.9'
p639
(lp640
(lp641
F71.3336588
aa(lp642
F72.8199011
aa(lp643
F71.9885268
aa(lp644
F74.428308
aa(lp645
F79.3501355
aa(lp646
F81.04463700000001
aa(lp647
F83.1717452
aa(lp648
F87.3260425
aa(lp649
F90.039228
aa(lp650
F101.692638
aa(lp651
F101.09197850000001
aa(lp652
F107.072527
aa(lp653
F108.5089023
aa(lp654
F113.54828950000001
aa(lp655
F142.923169
aa(lp656
F142.1640775
aa(lp657
F174.2469312
aa(lp658
F204.0116875
aa(lp659
F226.74264
aa(lp660
F311.30027079999996
aasS'single_soj_99.99'
p661
(lp662
(lp663
F61.9943
aa(lp664
F56.9948
aa(lp665
F58.994600000000005
aa(lp666
F62.9942
aa(lp667
F69.9935
aa(lp668
F66.9938
aa(lp669
F71.9933
aa(lp670
F76.9928
aa(lp671
F80.9924
aa(lp672
F136.9868
aa(lp673
F98.9906
aa(lp674
F104.99000000000001
aa(lp675
F117.9887
aa(lp676
F110.9894
aa(lp677
F156.9848
aa(lp678
F141.9863
aa(lp679
F196.9808
aa(lp680
F259.9745
aa(lp681
F234.977
aa(lp682
F346.9658
aasS'minimum_soj_99.99'
p683
(lp684
(lp685
F50.9954
aa(lp686
F67.99369999999999
aa(lp687
F57.9947
aa(lp688
F55.9949
aa(lp689
F62.9942
aa(lp690
F69.9935
aa(lp691
F84.992
aa(lp692
F89.9915
aa(lp693
F96.9908
aa(lp694
F126.98780000000001
aa(lp695
F101.9903
aa(lp696
F95.99090000000001
aa(lp697
F91.9913
aa(lp698
F156.9848
aa(lp699
F117.9887
aa(lp700
F133.9871
aa(lp701
F140.9864
aa(lp702
F157.9847
aa(lp703
F162.98420000000002
aa(lp704
F177.9827
aasS'minimum_soj_50'
p705
(lp706
(lp707
F23.2022
aa(lp708
F27.617
aa(lp709
F24.3291
aa(lp710
F24.527900000000002
aa(lp711
F25.3406
aa(lp712
F26.203
aa(lp713
F28.568
aa(lp714
F29.3865
aa(lp715
F31.1924
aa(lp716
F31.2666
aa(lp717
F30.2297
aa(lp718
F29.488100000000003
aa(lp719
F30.116899999999998
aa(lp720
F33.6824
aa(lp721
F33.6907
aa(lp722
F35.2247
aa(lp723
F36.837599999999995
aa(lp724
F38.308099999999996
aa(lp725
F39.207
aa(lp726
F41.9874
aas.