(dp0
S'single_NodeRedirections'
p1
(lp2
(lp3
F0.0
aa(lp4
F0.0
aa(lp5
F0.0
aa(lp6
F0.0
aa(lp7
F0.0
aa(lp8
F0.0
aa(lp9
F0.0
aa(lp10
F0.0
aa(lp11
F0.0
aa(lp12
F0.0
aa(lp13
F0.0
aa(lp14
F0.0
aa(lp15
F0.0
aa(lp16
F0.0
aa(lp17
F0.0
aa(lp18
F0.0
aa(lp19
F0.0
aa(lp20
F0.0
aa(lp21
F0.0
aa(lp22
F0.0
aasS'random_NodeTotal'
p23
(lp24
(lp25
F0.0
aa(lp26
F0.0
aa(lp27
F0.0
aa(lp28
F0.0
aa(lp29
F0.0
aa(lp30
F0.0
aa(lp31
F0.0
aa(lp32
F0.0
aa(lp33
F0.0
aa(lp34
F0.0
aa(lp35
F0.0
aa(lp36
F0.0
aa(lp37
F0.0
aa(lp38
F0.0
aa(lp39
F0.0
aa(lp40
F0.0
aa(lp41
F0.0
aa(lp42
F0.0
aa(lp43
F0.0
aa(lp44
F0.0
aasS'minimum_AggRedirections'
p45
(lp46
(lp47
F0.0
aa(lp48
F0.0
aa(lp49
F0.0
aa(lp50
F0.0
aa(lp51
F0.0
aa(lp52
F0.0
aa(lp53
F0.0
aa(lp54
F0.0
aa(lp55
F0.0
aa(lp56
F0.0
aa(lp57
F0.0
aa(lp58
F0.0
aa(lp59
F0.0
aa(lp60
F0.0
aa(lp61
F0.0
aa(lp62
F0.0
aa(lp63
F0.0
aa(lp64
F0.0
aa(lp65
F0.0
aa(lp66
F0.0
aasS'single_AggRedirections'
p67
(lp68
(lp69
F0.0
aa(lp70
F0.0
aa(lp71
F0.0
aa(lp72
F0.0
aa(lp73
F0.0
aa(lp74
F0.0
aa(lp75
F0.0
aa(lp76
F0.0
aa(lp77
F0.0
aa(lp78
F0.0
aa(lp79
F0.0
aa(lp80
F0.0
aa(lp81
F0.0
aa(lp82
F0.0
aa(lp83
F0.0
aa(lp84
F0.0
aa(lp85
F0.0
aa(lp86
F0.0
aa(lp87
F0.0
aa(lp88
F0.0
aasS'minimum_NodeRedirections'
p89
(lp90
(lp91
F0.0
aa(lp92
F0.0
aa(lp93
F0.0
aa(lp94
F0.0
aa(lp95
F0.0
aa(lp96
F0.0
aa(lp97
F0.0
aa(lp98
F0.0
aa(lp99
F0.0
aa(lp100
F0.0
aa(lp101
F0.0
aa(lp102
F0.0
aa(lp103
F0.0
aa(lp104
F0.0
aa(lp105
F0.0
aa(lp106
F0.0
aa(lp107
F0.0
aa(lp108
F0.0
aa(lp109
F0.0
aa(lp110
F0.0
aasS'random_x'
p111
(lp112
(lp113
I5
aa(lp114
I10
aa(lp115
I15
aa(lp116
I20
aa(lp117
I25
aa(lp118
I30
aa(lp119
I35
aa(lp120
I40
aa(lp121
I45
aa(lp122
I50
aa(lp123
I55
aa(lp124
I60
aa(lp125
I65
aa(lp126
I70
aa(lp127
I75
aa(lp128
I80
aa(lp129
I85
aa(lp130
I90
aa(lp131
I95
aa(lp132
I100
aasS'minimum_x'
p133
(lp134
(lp135
I5
aa(lp136
I10
aa(lp137
I15
aa(lp138
I20
aa(lp139
I25
aa(lp140
I30
aa(lp141
I35
aa(lp142
I40
aa(lp143
I45
aa(lp144
I50
aa(lp145
I55
aa(lp146
I60
aa(lp147
I65
aa(lp148
I70
aa(lp149
I75
aa(lp150
I80
aa(lp151
I85
aa(lp152
I90
aa(lp153
I95
aa(lp154
I100
aasS'single_x'
p155
(lp156
(lp157
I5
aa(lp158
I10
aa(lp159
I15
aa(lp160
I20
aa(lp161
I25
aa(lp162
I30
aa(lp163
I35
aa(lp164
I40
aa(lp165
I45
aa(lp166
I50
aa(lp167
I55
aa(lp168
I60
aa(lp169
I65
aa(lp170
I70
aa(lp171
I75
aa(lp172
I80
aa(lp173
I85
aa(lp174
I90
aa(lp175
I95
aa(lp176
I100
aasS'random_NodeRedirections'
p177
(lp178
(lp179
F0.0
aa(lp180
F0.0
aa(lp181
F0.0
aa(lp182
F0.0
aa(lp183
F0.0
aa(lp184
F0.0
aa(lp185
F0.0
aa(lp186
F0.0
aa(lp187
F0.0
aa(lp188
F0.0
aa(lp189
F0.0
aa(lp190
F0.0
aa(lp191
F0.0
aa(lp192
F0.0
aa(lp193
F0.0
aa(lp194
F0.0
aa(lp195
F0.0
aa(lp196
F0.0
aa(lp197
F0.0
aa(lp198
F0.0
aasS'minimum_EdgeTotal'
p199
(lp200
(lp201
F5655.0
aa(lp202
F11434.0
aa(lp203
F17615.0
aa(lp204
F22797.0
aa(lp205
F29088.0
aa(lp206
F35333.0
aa(lp207
F40754.0
aa(lp208
F47169.0
aa(lp209
F51928.0
aa(lp210
F60128.0
aa(lp211
F63598.0
aa(lp212
F70405.0
aa(lp213
F76882.0
aa(lp214
F83242.0
aa(lp215
F89062.0
aa(lp216
F95895.0
aa(lp217
F98334.0
aa(lp218
F106469.0
aa(lp219
F111794.0
aa(lp220
F117969.0
aasS'minimum_NodeTotal'
p221
(lp222
(lp223
F0.0
aa(lp224
F0.0
aa(lp225
F0.0
aa(lp226
F0.0
aa(lp227
F0.0
aa(lp228
F0.0
aa(lp229
F0.0
aa(lp230
F0.0
aa(lp231
F0.0
aa(lp232
F0.0
aa(lp233
F0.0
aa(lp234
F0.0
aa(lp235
F0.0
aa(lp236
F0.0
aa(lp237
F0.0
aa(lp238
F0.0
aa(lp239
F0.0
aa(lp240
F0.0
aa(lp241
F0.0
aa(lp242
F0.0
aasS'single_NodeTotal'
p243
(lp244
(lp245
F0.0
aa(lp246
F0.0
aa(lp247
F0.0
aa(lp248
F0.0
aa(lp249
F0.0
aa(lp250
F0.0
aa(lp251
F0.0
aa(lp252
F0.0
aa(lp253
F0.0
aa(lp254
F0.0
aa(lp255
F0.0
aa(lp256
F0.0
aa(lp257
F0.0
aa(lp258
F0.0
aa(lp259
F0.0
aa(lp260
F0.0
aa(lp261
F0.0
aa(lp262
F0.0
aa(lp263
F0.0
aa(lp264
F0.0
aasS'single_AggTotal'
p265
(lp266
(lp267
F5148.0
aa(lp268
F10235.0
aa(lp269
F15809.0
aa(lp270
F21416.0
aa(lp271
F26551.0
aa(lp272
F31180.0
aa(lp273
F36558.0
aa(lp274
F42476.0
aa(lp275
F48148.0
aa(lp276
F52636.0
aa(lp277
F56856.0
aa(lp278
F63135.0
aa(lp279
F68518.0
aa(lp280
F72219.0
aa(lp281
F79393.0
aa(lp282
F83381.0
aa(lp283
F88005.0
aa(lp284
F94277.0
aa(lp285
F99000.0
aa(lp286
F105428.0
aasS'minimum_AggTotal'
p287
(lp288
(lp289
F5048.0
aa(lp290
F10234.0
aa(lp291
F15783.0
aa(lp292
F20357.0
aa(lp293
F26083.0
aa(lp294
F31704.0
aa(lp295
F36482.0
aa(lp296
F42157.0
aa(lp297
F46444.0
aa(lp298
F53797.0
aa(lp299
F57066.0
aa(lp300
F63204.0
aa(lp301
F68965.0
aa(lp302
F74587.0
aa(lp303
F79905.0
aa(lp304
F86012.0
aa(lp305
F88099.0
aa(lp306
F95562.0
aa(lp307
F100231.0
aa(lp308
F105583.0
aasS'minimum_CoreRedirections'
p309
(lp310
(lp311
F0.0
aa(lp312
F0.0
aa(lp313
F0.0
aa(lp314
F0.0
aa(lp315
F0.0
aa(lp316
F0.0
aa(lp317
F0.0
aa(lp318
F0.0
aa(lp319
F0.0
aa(lp320
F0.0
aa(lp321
F0.0
aa(lp322
F0.0
aa(lp323
F0.0
aa(lp324
F0.0
aa(lp325
F0.0
aa(lp326
F0.0
aa(lp327
F0.0
aa(lp328
F0.0
aa(lp329
F0.0
aa(lp330
F0.0
aasS'minimum_EdgeRedirections'
p331
(lp332
(lp333
F0.0
aa(lp334
F0.0
aa(lp335
F0.0
aa(lp336
F0.0
aa(lp337
F0.0
aa(lp338
F0.0
aa(lp339
F0.0
aa(lp340
F0.0
aa(lp341
F0.0
aa(lp342
F0.0
aa(lp343
F0.0
aa(lp344
F0.0
aa(lp345
F0.0
aa(lp346
F0.0
aa(lp347
F0.0
aa(lp348
F0.0
aa(lp349
F0.0
aa(lp350
F0.0
aa(lp351
F0.0
aa(lp352
F0.0
aasS'single_EdgeTotal'
p353
(lp354
(lp355
F5756.0
aa(lp356
F11394.0
aa(lp357
F17556.0
aa(lp358
F23907.0
aa(lp359
F29737.0
aa(lp360
F34842.0
aa(lp361
F40730.0
aa(lp362
F47426.0
aa(lp363
F53787.0
aa(lp364
F58768.0
aa(lp365
F63473.0
aa(lp366
F70474.0
aa(lp367
F76434.0
aa(lp368
F80618.0
aa(lp369
F88453.0
aa(lp370
F93023.0
aa(lp371
F98150.0
aa(lp372
F105239.0
aa(lp373
F110455.0
aa(lp374
F117556.0
aasS'random_CoreRedirections'
p375
(lp376
(lp377
F0.0
aa(lp378
F0.0
aa(lp379
F0.0
aa(lp380
F0.0
aa(lp381
F0.0
aa(lp382
F0.0
aa(lp383
F0.0
aa(lp384
F0.0
aa(lp385
F0.0
aa(lp386
F0.0
aa(lp387
F0.0
aa(lp388
F0.0
aa(lp389
F0.0
aa(lp390
F0.0
aa(lp391
F0.0
aa(lp392
F0.0
aa(lp393
F0.0
aa(lp394
F0.0
aa(lp395
F0.0
aa(lp396
F0.0
aasS'single_EdgeRedirections'
p397
(lp398
(lp399
F0.0
aa(lp400
F0.0
aa(lp401
F0.0
aa(lp402
F0.0
aa(lp403
F0.0
aa(lp404
F0.0
aa(lp405
F0.0
aa(lp406
F0.0
aa(lp407
F0.0
aa(lp408
F0.0
aa(lp409
F0.0
aa(lp410
F0.0
aa(lp411
F0.0
aa(lp412
F0.0
aa(lp413
F0.0
aa(lp414
F0.0
aa(lp415
F0.0
aa(lp416
F0.0
aa(lp417
F0.0
aa(lp418
F0.0
aasS'single_CoreRedirections'
p419
(lp420
(lp421
F0.0
aa(lp422
F0.0
aa(lp423
F0.0
aa(lp424
F0.0
aa(lp425
F0.0
aa(lp426
F0.0
aa(lp427
F0.0
aa(lp428
F0.0
aa(lp429
F0.0
aa(lp430
F0.0
aa(lp431
F0.0
aa(lp432
F0.0
aa(lp433
F0.0
aa(lp434
F0.0
aa(lp435
F0.0
aa(lp436
F0.0
aa(lp437
F0.0
aa(lp438
F0.0
aa(lp439
F0.0
aa(lp440
F0.0
aasS'random_AggTotal'
p441
(lp442
(lp443
F5070.0
aa(lp444
F10418.0
aa(lp445
F15635.0
aa(lp446
F20966.0
aa(lp447
F26202.0
aa(lp448
F31329.0
aa(lp449
F37040.0
aa(lp450
F41566.0
aa(lp451
F47909.0
aa(lp452
F52874.0
aa(lp453
F57513.0
aa(lp454
F63374.0
aa(lp455
F67661.0
aa(lp456
F73864.0
aa(lp457
F79157.0
aa(lp458
F82925.0
aa(lp459
F88818.0
aa(lp460
F95665.0
aa(lp461
F101210.0
aa(lp462
F104391.0
aasS'random_CoreTotal'
p463
(lp464
(lp465
F2317.0
aa(lp466
F4796.0
aa(lp467
F7236.0
aa(lp468
F9667.0
aa(lp469
F12154.0
aa(lp470
F14502.0
aa(lp471
F17113.0
aa(lp472
F19183.0
aa(lp473
F22150.0
aa(lp474
F24411.0
aa(lp475
F26508.0
aa(lp476
F29264.0
aa(lp477
F31155.0
aa(lp478
F34118.0
aa(lp479
F36547.0
aa(lp480
F38213.0
aa(lp481
F41011.0
aa(lp482
F44170.0
aa(lp483
F46719.0
aa(lp484
F48135.0
aasS'random_AggRedirections'
p485
(lp486
(lp487
F0.0
aa(lp488
F0.0
aa(lp489
F0.0
aa(lp490
F0.0
aa(lp491
F0.0
aa(lp492
F0.0
aa(lp493
F0.0
aa(lp494
F0.0
aa(lp495
F0.0
aa(lp496
F0.0
aa(lp497
F0.0
aa(lp498
F0.0
aa(lp499
F0.0
aa(lp500
F0.0
aa(lp501
F0.0
aa(lp502
F0.0
aa(lp503
F0.0
aa(lp504
F0.0
aa(lp505
F0.0
aa(lp506
F0.0
aasS'single_CoreTotal'
p507
(lp508
(lp509
F2377.0
aa(lp510
F4725.0
aa(lp511
F7324.0
aa(lp512
F9882.0
aa(lp513
F12212.0
aa(lp514
F14370.0
aa(lp515
F16889.0
aa(lp516
F19600.0
aa(lp517
F22215.0
aa(lp518
F24281.0
aa(lp519
F26184.0
aa(lp520
F29125.0
aa(lp521
F31622.0
aa(lp522
F33273.0
aa(lp523
F36669.0
aa(lp524
F38459.0
aa(lp525
F40629.0
aa(lp526
F43459.0
aa(lp527
F45709.0
aa(lp528
F48710.0
aasS'minimum_CoreTotal'
p529
(lp530
(lp531
F2324.0
aa(lp532
F4715.0
aa(lp533
F7294.0
aa(lp534
F9360.0
aa(lp535
F12024.0
aa(lp536
F14627.0
aa(lp537
F16806.0
aa(lp538
F19420.0
aa(lp539
F21419.0
aa(lp540
F24776.0
aa(lp541
F26336.0
aa(lp542
F29191.0
aa(lp543
F31880.0
aa(lp544
F34347.0
aa(lp545
F36915.0
aa(lp546
F39698.0
aa(lp547
F40642.0
aa(lp548
F44161.0
aa(lp549
F46241.0
aa(lp550
F48694.0
aasS'random_EdgeTotal'
p551
(lp552
(lp553
F5704.0
aa(lp554
F11630.0
aa(lp555
F17392.0
aa(lp556
F23436.0
aa(lp557
F29128.0
aa(lp558
F34831.0
aa(lp559
F41240.0
aa(lp560
F46366.0
aa(lp561
F53344.0
aa(lp562
F58900.0
aa(lp563
F64154.0
aa(lp564
F70676.0
aa(lp565
F75663.0
aa(lp566
F82318.0
aa(lp567
F88260.0
aa(lp568
F92591.0
aa(lp569
F99027.0
aa(lp570
F106739.0
aa(lp571
F112840.0
aa(lp572
F116624.0
aasS'random_EdgeRedirections'
p573
(lp574
(lp575
F0.0
aa(lp576
F0.0
aa(lp577
F0.0
aa(lp578
F0.0
aa(lp579
F0.0
aa(lp580
F0.0
aa(lp581
F0.0
aa(lp582
F0.0
aa(lp583
F0.0
aa(lp584
F0.0
aa(lp585
F0.0
aa(lp586
F0.0
aa(lp587
F0.0
aa(lp588
F0.0
aa(lp589
F0.0
aa(lp590
F0.0
aa(lp591
F0.0
aa(lp592
F0.0
aa(lp593
F0.0
aa(lp594
F0.0
aas.