(dp0
S'random_NodeTotal'
p1
(lp2
(lp3
F0.0
aF0.0
aF0.0
aF0.0
aF0.0
aF0.0
aF0.0
aF0.0
aF0.0
aF0.0
aa(lp4
F0.0
aF0.0
aF0.0
aF0.0
aF0.0
aF0.0
aF0.0
aF0.0
aF0.0
aF0.0
aa(lp5
F0.0
aF0.0
aF0.0
aF0.0
aF0.0
aF0.0
aF0.0
aF0.0
aF0.0
aF0.0
aa(lp6
F0.0
aF0.0
aF0.0
aF0.0
aF0.0
aF0.0
aF0.0
aF0.0
aF0.0
aF0.0
aa(lp7
F0.0
aF0.0
aF0.0
aF0.0
aF0.0
aF0.0
aF0.0
aF0.0
aF0.0
aF0.0
aa(lp8
F0.0
aF0.0
aF0.0
aF0.0
aF0.0
aF0.0
aF0.0
aF0.0
aF0.0
aF0.0
aa(lp9
F0.0
aF0.0
aF0.0
aF0.0
aF0.0
aF0.0
aF0.0
aF0.0
aF0.0
aF0.0
aa(lp10
F0.0
aF0.0
aF0.0
aF0.0
aF0.0
aF0.0
aF0.0
aF0.0
aF0.0
aF0.0
aa(lp11
F0.0
aF0.0
aF0.0
aF0.0
aF0.0
aF0.0
aF0.0
aF0.0
aF0.0
aF0.0
aa(lp12
F0.0
aF0.0
aF0.0
aF0.0
aF0.0
aF0.0
aF0.0
aF0.0
aF0.0
aF0.0
aa(lp13
F0.0
aF0.0
aF0.0
aF0.0
aF0.0
aF0.0
aF0.0
aF0.0
aF0.0
aF0.0
aa(lp14
F0.0
aF0.0
aF0.0
aF0.0
aF0.0
aF0.0
aF0.0
aF0.0
aF0.0
aF0.0
aa(lp15
F0.0
aF0.0
aF0.0
aF0.0
aF0.0
aF0.0
aF0.0
aF0.0
aF0.0
aF0.0
aa(lp16
F0.0
aF0.0
aF0.0
aF0.0
aF0.0
aF0.0
aF0.0
aF0.0
aF0.0
aF0.0
aa(lp17
F0.0
aF0.0
aF0.0
aF0.0
aF0.0
aF0.0
aF0.0
aF0.0
aF0.0
aF0.0
aa(lp18
F0.0
aF0.0
aF0.0
aF0.0
aF0.0
aF0.0
aF0.0
aF0.0
aF0.0
aF0.0
aa(lp19
F0.0
aF0.0
aF0.0
aF0.0
aF0.0
aF0.0
aF0.0
aF0.0
aF0.0
aF0.0
aa(lp20
F0.0
aF0.0
aF0.0
aF0.0
aF0.0
aF0.0
aF0.0
aF0.0
aF0.0
aF0.0
aa(lp21
F0.0
aF0.0
aF0.0
aF0.0
aF0.0
aF0.0
aF0.0
aF0.0
aF0.0
aF0.0
aa(lp22
F0.0
aF0.0
aF0.0
aF0.0
aF0.0
aF0.0
aF0.0
aF0.0
aF0.0
aasS'random_EdgeTotal'
p23
(lp24
(lp25
F7585.0
aF7795.0
aF7835.0
aF7653.0
aF7939.0
aF7731.0
aF7854.0
aF7841.0
aF7791.0
aF8088.0
aa(lp26
F15586.0
aF15387.0
aF16002.0
aF15574.0
aF16146.0
aF16016.0
aF15733.0
aF15792.0
aF15631.0
aF15975.0
aa(lp27
F23763.0
aF23273.0
aF22972.0
aF24215.0
aF23823.0
aF23720.0
aF23330.0
aF23695.0
aF23692.0
aF23410.0
aa(lp28
F31165.0
aF31031.0
aF30656.0
aF31479.0
aF30611.0
aF30591.0
aF31220.0
aF31218.0
aF31645.0
aF31626.0
aa(lp29
F38797.0
aF38664.0
aF39816.0
aF38276.0
aF38280.0
aF38584.0
aF38921.0
aF38570.0
aF40034.0
aF39483.0
aa(lp30
F46716.0
aF48052.0
aF46577.0
aF46836.0
aF46402.0
aF47161.0
aF47512.0
aF46864.0
aF47439.0
aF46667.0
aa(lp31
F54008.0
aF55383.0
aF53776.0
aF54532.0
aF54334.0
aF54753.0
aF55221.0
aF55304.0
aF54821.0
aF54798.0
aa(lp32
F62095.0
aF62213.0
aF62600.0
aF62208.0
aF63456.0
aF62233.0
aF62272.0
aF62464.0
aF63163.0
aF62626.0
aa(lp33
F71218.0
aF71734.0
aF70721.0
aF68987.0
aF69287.0
aF69590.0
aF69324.0
aF71175.0
aF70796.0
aF70930.0
aa(lp34
F77460.0
aF77861.0
aF78206.0
aF77082.0
aF78542.0
aF76792.0
aF78550.0
aF85657.0
aF77712.0
aF77807.0
aa(lp35
F84820.0
aF85416.0
aF85828.0
aF86943.0
aF87121.0
aF84883.0
aF85574.0
aF95638.0
aF86224.0
aF87083.0
aa(lp36
F93956.0
aF93658.0
aF93794.0
aF94058.0
aF95901.0
aF93658.0
aF92790.0
aF100665.0
aF93265.0
aF92548.0
aa(lp37
F99464.0
aF100986.0
aF101707.0
aF101411.0
aF104686.0
aF100417.0
aF100511.0
aF107236.0
aF100515.0
aF101877.0
aa(lp38
F108557.0
aF108895.0
aF109166.0
aF109538.0
aF110333.0
aF108534.0
aF109031.0
aF116526.0
aF107104.0
aF108605.0
aa(lp39
F116093.0
aF117723.0
aF118819.0
aF117911.0
aF117189.0
aF115955.0
aF118458.0
aF126109.0
aF114772.0
aF114750.0
aa(lp40
F122910.0
aF124982.0
aF126824.0
aF127225.0
aF123887.0
aF125736.0
aF122736.0
aF134104.0
aF124366.0
aF124146.0
aa(lp41
F132672.0
aF133773.0
aF130643.0
aF130821.0
aF133626.0
aF132608.0
aF130675.0
aF140336.0
aF131903.0
aF132785.0
aa(lp42
F140186.0
aF140198.0
aF141270.0
aF141839.0
aF139654.0
aF140193.0
aF140606.0
aF149372.0
aF138864.0
aF139019.0
aa(lp43
F145904.0
aF147711.0
aF145844.0
aF149540.0
aF148366.0
aF149511.0
aF150298.0
aF156016.0
aF148735.0
aF149086.0
aa(lp44
F158908.0
aF158653.0
aF155597.0
aF157650.0
aF154763.0
aF157407.0
aF161504.0
aF152817.0
aF161495.0
aasS'random_AggTotal'
p45
(lp46
(lp47
F6809.0
aF6961.0
aF7057.0
aF6861.0
aF7100.0
aF6918.0
aF7056.0
aF6982.0
aF6982.0
aF7221.0
aa(lp48
F13950.0
aF13736.0
aF14375.0
aF13934.0
aF14561.0
aF14387.0
aF14167.0
aF14165.0
aF13960.0
aF14279.0
aa(lp49
F21298.0
aF20828.0
aF20591.0
aF21759.0
aF21448.0
aF21265.0
aF20951.0
aF21358.0
aF21257.0
aF20964.0
aa(lp50
F27951.0
aF27754.0
aF27374.0
aF28114.0
aF27487.0
aF27413.0
aF27974.0
aF28080.0
aF28320.0
aF28360.0
aa(lp51
F34895.0
aF34742.0
aF35830.0
aF34326.0
aF34400.0
aF34622.0
aF34900.0
aF34548.0
aF35886.0
aF35336.0
aa(lp52
F41837.0
aF43088.0
aF41702.0
aF41980.0
aF41602.0
aF42330.0
aF42562.0
aF42054.0
aF42579.0
aF41851.0
aa(lp53
F48483.0
aF49686.0
aF48145.0
aF48980.0
aF48792.0
aF49064.0
aF49554.0
aF49620.0
aF49210.0
aF49246.0
aa(lp54
F55604.0
aF55851.0
aF56013.0
aF55771.0
aF56934.0
aF55885.0
aF55863.0
aF56019.0
aF56670.0
aF56337.0
aa(lp55
F63951.0
aF64182.0
aF63496.0
aF61838.0
aF62061.0
aF62289.0
aF62109.0
aF63740.0
aF63578.0
aF63617.0
aa(lp56
F69319.0
aF69688.0
aF70196.0
aF69023.0
aF70407.0
aF68829.0
aF70476.0
aF76880.0
aF69538.0
aF69646.0
aa(lp57
F76014.0
aF76518.0
aF76947.0
aF77961.0
aF78144.0
aF75955.0
aF76650.0
aF85630.0
aF77235.0
aF78068.0
aa(lp58
F84223.0
aF84031.0
aF84251.0
aF84394.0
aF85976.0
aF83994.0
aF83026.0
aF90172.0
aF83507.0
aF82910.0
aa(lp59
F89083.0
aF90633.0
aF91249.0
aF90979.0
aF93811.0
aF90096.0
aF90110.0
aF96026.0
aF90170.0
aF91386.0
aa(lp60
F97246.0
aF97747.0
aF97747.0
aF98049.0
aF98890.0
aF97362.0
aF97640.0
aF104415.0
aF96073.0
aF97356.0
aa(lp61
F104142.0
aF105516.0
aF106676.0
aF105580.0
aF104922.0
aF104022.0
aF106096.0
aF113039.0
aF102876.0
aF102938.0
aa(lp62
F110020.0
aF112022.0
aF113941.0
aF114103.0
aF111201.0
aF112768.0
aF110193.0
aF120002.0
aF111344.0
aF111504.0
aa(lp63
F119037.0
aF119862.0
aF117070.0
aF117482.0
aF119823.0
aF118826.0
aF116951.0
aF125879.0
aF118256.0
aF118983.0
aa(lp64
F125602.0
aF125749.0
aF126506.0
aF127249.0
aF125243.0
aF125751.0
aF125986.0
aF133755.0
aF124331.0
aF124567.0
aa(lp65
F130970.0
aF132592.0
aF130745.0
aF133977.0
aF132911.0
aF134140.0
aF134720.0
aF139754.0
aF133365.0
aF133549.0
aa(lp66
F142360.0
aF142193.0
aF139485.0
aF141444.0
aF138671.0
aF141018.0
aF144820.0
aF137160.0
aF144416.0
aasS'random_AggRedirections'
p67
(lp68
(lp69
F0.0
aF0.0
aF0.0
aF0.0
aF0.0
aF0.0
aF0.0
aF0.0
aF0.0
aF0.0
aa(lp70
F0.0
aF0.0
aF0.0
aF0.0
aF0.0
aF0.0
aF0.0
aF0.0
aF0.0
aF0.0
aa(lp71
F0.0
aF0.0
aF0.0
aF0.0
aF0.0
aF0.0
aF0.0
aF0.0
aF0.0
aF0.0
aa(lp72
F0.0
aF0.0
aF0.0
aF0.0
aF0.0
aF0.0
aF0.0
aF0.0
aF0.0
aF0.0
aa(lp73
F0.0
aF0.0
aF0.0
aF0.0
aF0.0
aF0.0
aF0.0
aF0.0
aF0.0
aF0.0
aa(lp74
F0.0
aF0.0
aF0.0
aF0.0
aF0.0
aF0.0
aF0.0
aF0.0
aF0.0
aF0.0
aa(lp75
F0.0
aF0.0
aF0.0
aF0.0
aF0.0
aF0.0
aF0.0
aF0.0
aF0.0
aF0.0
aa(lp76
F0.0
aF0.0
aF0.0
aF0.0
aF0.0
aF0.0
aF0.0
aF0.0
aF0.0
aF0.0
aa(lp77
F0.0
aF0.0
aF0.0
aF0.0
aF0.0
aF0.0
aF0.0
aF0.0
aF0.0
aF0.0
aa(lp78
F0.0
aF0.0
aF0.0
aF0.0
aF0.0
aF0.0
aF0.0
aF0.0
aF0.0
aF0.0
aa(lp79
F0.0
aF0.0
aF0.0
aF0.0
aF0.0
aF0.0
aF0.0
aF0.0
aF0.0
aF0.0
aa(lp80
F0.0
aF0.0
aF0.0
aF0.0
aF0.0
aF0.0
aF0.0
aF0.0
aF0.0
aF0.0
aa(lp81
F0.0
aF0.0
aF0.0
aF0.0
aF0.0
aF0.0
aF0.0
aF0.0
aF0.0
aF0.0
aa(lp82
F0.0
aF0.0
aF0.0
aF0.0
aF0.0
aF0.0
aF0.0
aF0.0
aF0.0
aF0.0
aa(lp83
F0.0
aF0.0
aF0.0
aF0.0
aF0.0
aF0.0
aF0.0
aF0.0
aF0.0
aF0.0
aa(lp84
F0.0
aF0.0
aF0.0
aF0.0
aF0.0
aF0.0
aF0.0
aF0.0
aF0.0
aF0.0
aa(lp85
F0.0
aF0.0
aF0.0
aF0.0
aF0.0
aF0.0
aF0.0
aF0.0
aF0.0
aF0.0
aa(lp86
F0.0
aF0.0
aF0.0
aF0.0
aF0.0
aF0.0
aF0.0
aF0.0
aF0.0
aF0.0
aa(lp87
F0.0
aF0.0
aF0.0
aF0.0
aF0.0
aF0.0
aF0.0
aF0.0
aF0.0
aF0.0
aa(lp88
F0.0
aF0.0
aF0.0
aF0.0
aF0.0
aF0.0
aF0.0
aF0.0
aF0.0
aasS'random_CoreTotal'
p89
(lp90
(lp91
F3155.0
aF3199.0
aF3281.0
aF3153.0
aF3272.0
aF3199.0
aF3264.0
aF3205.0
aF3219.0
aF3330.0
aa(lp92
F6416.0
aF6308.0
aF6637.0
aF6431.0
aF6750.0
aF6652.0
aF6569.0
aF6555.0
aF6402.0
aF6573.0
aa(lp93
F9817.0
aF9592.0
aF9505.0
aF10071.0
aF9946.0
aF9816.0
aF9685.0
aF9893.0
aF9812.0
aF9656.0
aa(lp94
F12894.0
aF12766.0
aF12595.0
aF12938.0
aF12713.0
aF12622.0
aF12894.0
aF12979.0
aF13049.0
aF13094.0
aa(lp95
F16165.0
aF16046.0
aF16594.0
aF15858.0
aF15909.0
aF15992.0
aF16104.0
aF15945.0
aF16547.0
aF16281.0
aa(lp96
F19292.0
aF19886.0
aF19252.0
aF19390.0
aF19172.0
aF19521.0
aF19611.0
aF19428.0
aF19674.0
aF19310.0
aa(lp97
F22409.0
aF22941.0
aF22212.0
aF22633.0
aF22574.0
aF22638.0
aF22872.0
aF22937.0
aF22727.0
aF22778.0
aa(lp98
F25659.0
aF25827.0
aF25823.0
aF25780.0
aF26336.0
aF25829.0
aF25794.0
aF25861.0
aF26135.0
aF26060.0
aa(lp99
F29572.0
aF29553.0
aF29299.0
aF28561.0
aF28625.0
aF28724.0
aF28644.0
aF29404.0
aF29403.0
aF29364.0
aa(lp100
F31935.0
aF32133.0
aF32431.0
aF31844.0
aF32479.0
aF31773.0
aF32538.0
aF35528.0
aF32025.0
aF32124.0
aa(lp101
F35097.0
aF35293.0
aF35464.0
aF35977.0
aF36097.0
aF35030.0
aF35339.0
aF39461.0
aF35610.0
aF36045.0
aa(lp102
F38859.0
aF38777.0
aF38945.0
aF38974.0
aF39666.0
aF38792.0
aF38247.0
aF41586.0
aF38456.0
aF38237.0
aa(lp103
F41102.0
aF41856.0
aF42156.0
aF42039.0
aF43260.0
aF41575.0
aF41603.0
aF44309.0
aF41621.0
aF42205.0
aa(lp104
F44827.0
aF45199.0
aF45068.0
aF45185.0
aF45637.0
aF44950.0
aF45030.0
aF48208.0
aF44336.0
aF44920.0
aa(lp105
F48071.0
aF48700.0
aF49358.0
aF48697.0
aF48369.0
aF48026.0
aF48934.0
aF52166.0
aF47466.0
aF47490.0
aa(lp106
F50678.0
aF51689.0
aF52660.0
aF52695.0
aF51372.0
aF52066.0
aF50914.0
aF55306.0
aF51321.0
aF51514.0
aa(lp107
F54939.0
aF55296.0
aF53997.0
aF54263.0
aF55354.0
aF54773.0
aF53901.0
aF58108.0
aF54622.0
aF54883.0
aa(lp108
F57970.0
aF58014.0
aF58289.0
aF58777.0
aF57823.0
aF58075.0
aF58097.0
aF61668.0
aF57298.0
aF57499.0
aa(lp109
F60535.0
aF61271.0
aF60321.0
aF61785.0
aF61265.0
aF61917.0
aF62168.0
aF64452.0
aF61543.0
aF61605.0
aa(lp110
F65695.0
aF65597.0
aF64320.0
aF65334.0
aF63950.0
aF65073.0
aF66784.0
aF63387.0
aF66507.0
aasS'random_CoreRedirections'
p111
(lp112
(lp113
F0.0
aF0.0
aF0.0
aF0.0
aF0.0
aF0.0
aF0.0
aF0.0
aF0.0
aF0.0
aa(lp114
F0.0
aF0.0
aF0.0
aF0.0
aF0.0
aF0.0
aF0.0
aF0.0
aF0.0
aF0.0
aa(lp115
F0.0
aF0.0
aF0.0
aF0.0
aF0.0
aF0.0
aF0.0
aF0.0
aF0.0
aF0.0
aa(lp116
F0.0
aF0.0
aF0.0
aF0.0
aF0.0
aF0.0
aF0.0
aF0.0
aF0.0
aF0.0
aa(lp117
F0.0
aF0.0
aF0.0
aF0.0
aF0.0
aF0.0
aF0.0
aF0.0
aF0.0
aF0.0
aa(lp118
F0.0
aF0.0
aF0.0
aF0.0
aF0.0
aF0.0
aF0.0
aF0.0
aF0.0
aF0.0
aa(lp119
F0.0
aF0.0
aF0.0
aF0.0
aF0.0
aF0.0
aF0.0
aF0.0
aF0.0
aF0.0
aa(lp120
F0.0
aF0.0
aF0.0
aF0.0
aF0.0
aF0.0
aF0.0
aF0.0
aF0.0
aF0.0
aa(lp121
F0.0
aF0.0
aF0.0
aF0.0
aF0.0
aF0.0
aF0.0
aF0.0
aF0.0
aF0.0
aa(lp122
F0.0
aF0.0
aF0.0
aF0.0
aF0.0
aF0.0
aF0.0
aF0.0
aF0.0
aF0.0
aa(lp123
F0.0
aF0.0
aF0.0
aF0.0
aF0.0
aF0.0
aF0.0
aF0.0
aF0.0
aF0.0
aa(lp124
F0.0
aF0.0
aF0.0
aF0.0
aF0.0
aF0.0
aF0.0
aF0.0
aF0.0
aF0.0
aa(lp125
F0.0
aF0.0
aF0.0
aF0.0
aF0.0
aF0.0
aF0.0
aF0.0
aF0.0
aF0.0
aa(lp126
F0.0
aF0.0
aF0.0
aF0.0
aF0.0
aF0.0
aF0.0
aF0.0
aF0.0
aF0.0
aa(lp127
F0.0
aF0.0
aF0.0
aF0.0
aF0.0
aF0.0
aF0.0
aF0.0
aF0.0
aF0.0
aa(lp128
F0.0
aF0.0
aF0.0
aF0.0
aF0.0
aF0.0
aF0.0
aF0.0
aF0.0
aF0.0
aa(lp129
F0.0
aF0.0
aF0.0
aF0.0
aF0.0
aF0.0
aF0.0
aF0.0
aF0.0
aF0.0
aa(lp130
F0.0
aF0.0
aF0.0
aF0.0
aF0.0
aF0.0
aF0.0
aF0.0
aF0.0
aF0.0
aa(lp131
F0.0
aF0.0
aF0.0
aF0.0
aF0.0
aF0.0
aF0.0
aF0.0
aF0.0
aF0.0
aa(lp132
F0.0
aF0.0
aF0.0
aF0.0
aF0.0
aF0.0
aF0.0
aF0.0
aF0.0
aasS'random_x'
p133
(lp134
(lp135
I5
aI5
aI5
aI5
aI5
aI5
aI5
aI5
aI5
aI5
aa(lp136
I10
aI10
aI10
aI10
aI10
aI10
aI10
aI10
aI10
aI10
aa(lp137
I15
aI15
aI15
aI15
aI15
aI15
aI15
aI15
aI15
aI15
aa(lp138
I20
aI20
aI20
aI20
aI20
aI20
aI20
aI20
aI20
aI20
aa(lp139
I25
aI25
aI25
aI25
aI25
aI25
aI25
aI25
aI25
aI25
aa(lp140
I30
aI30
aI30
aI30
aI30
aI30
aI30
aI30
aI30
aI30
aa(lp141
I35
aI35
aI35
aI35
aI35
aI35
aI35
aI35
aI35
aI35
aa(lp142
I40
aI40
aI40
aI40
aI40
aI40
aI40
aI40
aI40
aI40
aa(lp143
I45
aI45
aI45
aI45
aI45
aI45
aI45
aI45
aI45
aI45
aa(lp144
I50
aI50
aI50
aI50
aI50
aI50
aI50
aI55
aI50
aI50
aa(lp145
I55
aI55
aI55
aI55
aI55
aI55
aI55
aI60
aI55
aI55
aa(lp146
I60
aI60
aI60
aI60
aI60
aI60
aI60
aI65
aI60
aI60
aa(lp147
I65
aI65
aI65
aI65
aI65
aI65
aI65
aI70
aI65
aI65
aa(lp148
I70
aI70
aI70
aI70
aI70
aI70
aI70
aI75
aI70
aI70
aa(lp149
I75
aI75
aI75
aI75
aI75
aI75
aI75
aI80
aI75
aI75
aa(lp150
I80
aI80
aI80
aI80
aI80
aI80
aI80
aI85
aI80
aI80
aa(lp151
I85
aI85
aI85
aI85
aI85
aI85
aI85
aI90
aI85
aI85
aa(lp152
I90
aI90
aI90
aI90
aI90
aI90
aI90
aI95
aI90
aI90
aa(lp153
I95
aI95
aI95
aI95
aI95
aI95
aI95
aI100
aI95
aI95
aa(lp154
I100
aI100
aI100
aI100
aI100
aI100
aI100
aI100
aI100
aasS'random_EdgeRedirections'
p155
(lp156
(lp157
F0.0
aF0.0
aF0.0
aF0.0
aF0.0
aF0.0
aF0.0
aF0.0
aF0.0
aF0.0
aa(lp158
F0.0
aF0.0
aF0.0
aF0.0
aF0.0
aF0.0
aF0.0
aF0.0
aF0.0
aF0.0
aa(lp159
F0.0
aF0.0
aF0.0
aF0.0
aF0.0
aF0.0
aF0.0
aF0.0
aF0.0
aF0.0
aa(lp160
F0.0
aF0.0
aF0.0
aF0.0
aF0.0
aF0.0
aF0.0
aF0.0
aF0.0
aF0.0
aa(lp161
F0.0
aF0.0
aF0.0
aF0.0
aF0.0
aF0.0
aF0.0
aF0.0
aF0.0
aF0.0
aa(lp162
F0.0
aF0.0
aF0.0
aF0.0
aF0.0
aF0.0
aF0.0
aF0.0
aF0.0
aF0.0
aa(lp163
F0.0
aF0.0
aF0.0
aF0.0
aF0.0
aF0.0
aF0.0
aF0.0
aF0.0
aF0.0
aa(lp164
F0.0
aF0.0
aF0.0
aF0.0
aF0.0
aF0.0
aF0.0
aF0.0
aF0.0
aF0.0
aa(lp165
F0.0
aF0.0
aF0.0
aF0.0
aF0.0
aF0.0
aF0.0
aF0.0
aF0.0
aF0.0
aa(lp166
F0.0
aF0.0
aF0.0
aF0.0
aF0.0
aF0.0
aF0.0
aF0.0
aF0.0
aF0.0
aa(lp167
F0.0
aF0.0
aF0.0
aF0.0
aF0.0
aF0.0
aF0.0
aF0.0
aF0.0
aF0.0
aa(lp168
F0.0
aF0.0
aF0.0
aF0.0
aF0.0
aF0.0
aF0.0
aF0.0
aF0.0
aF0.0
aa(lp169
F0.0
aF0.0
aF0.0
aF0.0
aF0.0
aF0.0
aF0.0
aF0.0
aF0.0
aF0.0
aa(lp170
F0.0
aF0.0
aF0.0
aF0.0
aF0.0
aF0.0
aF0.0
aF0.0
aF0.0
aF0.0
aa(lp171
F0.0
aF0.0
aF0.0
aF0.0
aF0.0
aF0.0
aF0.0
aF0.0
aF0.0
aF0.0
aa(lp172
F0.0
aF0.0
aF0.0
aF0.0
aF0.0
aF0.0
aF0.0
aF0.0
aF0.0
aF0.0
aa(lp173
F0.0
aF0.0
aF0.0
aF0.0
aF0.0
aF0.0
aF0.0
aF0.0
aF0.0
aF0.0
aa(lp174
F0.0
aF0.0
aF0.0
aF0.0
aF0.0
aF0.0
aF0.0
aF0.0
aF0.0
aF0.0
aa(lp175
F0.0
aF0.0
aF0.0
aF0.0
aF0.0
aF0.0
aF0.0
aF0.0
aF0.0
aF0.0
aa(lp176
F0.0
aF0.0
aF0.0
aF0.0
aF0.0
aF0.0
aF0.0
aF0.0
aF0.0
aasS'random_NodeRedirections'
p177
(lp178
(lp179
F0.0
aF0.0
aF0.0
aF0.0
aF0.0
aF0.0
aF0.0
aF0.0
aF0.0
aF0.0
aa(lp180
F0.0
aF0.0
aF0.0
aF0.0
aF0.0
aF0.0
aF0.0
aF0.0
aF0.0
aF0.0
aa(lp181
F0.0
aF0.0
aF0.0
aF0.0
aF0.0
aF0.0
aF0.0
aF0.0
aF0.0
aF0.0
aa(lp182
F0.0
aF0.0
aF0.0
aF0.0
aF0.0
aF0.0
aF0.0
aF0.0
aF0.0
aF0.0
aa(lp183
F0.0
aF0.0
aF0.0
aF0.0
aF0.0
aF0.0
aF0.0
aF0.0
aF0.0
aF0.0
aa(lp184
F0.0
aF0.0
aF0.0
aF0.0
aF0.0
aF0.0
aF0.0
aF0.0
aF0.0
aF0.0
aa(lp185
F0.0
aF0.0
aF0.0
aF0.0
aF0.0
aF0.0
aF0.0
aF0.0
aF0.0
aF0.0
aa(lp186
F0.0
aF0.0
aF0.0
aF0.0
aF0.0
aF0.0
aF0.0
aF0.0
aF0.0
aF0.0
aa(lp187
F0.0
aF0.0
aF0.0
aF0.0
aF0.0
aF0.0
aF0.0
aF0.0
aF0.0
aF0.0
aa(lp188
F0.0
aF0.0
aF0.0
aF0.0
aF0.0
aF0.0
aF0.0
aF0.0
aF0.0
aF0.0
aa(lp189
F0.0
aF0.0
aF0.0
aF0.0
aF0.0
aF0.0
aF0.0
aF0.0
aF0.0
aF0.0
aa(lp190
F0.0
aF0.0
aF0.0
aF0.0
aF0.0
aF0.0
aF0.0
aF0.0
aF0.0
aF0.0
aa(lp191
F0.0
aF0.0
aF0.0
aF0.0
aF0.0
aF0.0
aF0.0
aF0.0
aF0.0
aF0.0
aa(lp192
F0.0
aF0.0
aF0.0
aF0.0
aF0.0
aF0.0
aF0.0
aF0.0
aF0.0
aF0.0
aa(lp193
F0.0
aF0.0
aF0.0
aF0.0
aF0.0
aF0.0
aF0.0
aF0.0
aF0.0
aF0.0
aa(lp194
F0.0
aF0.0
aF0.0
aF0.0
aF0.0
aF0.0
aF0.0
aF0.0
aF0.0
aF0.0
aa(lp195
F0.0
aF0.0
aF0.0
aF0.0
aF0.0
aF0.0
aF0.0
aF0.0
aF0.0
aF0.0
aa(lp196
F0.0
aF0.0
aF0.0
aF0.0
aF0.0
aF0.0
aF0.0
aF0.0
aF0.0
aF0.0
aa(lp197
F0.0
aF0.0
aF0.0
aF0.0
aF0.0
aF0.0
aF0.0
aF0.0
aF0.0
aF0.0
aa(lp198
F0.0
aF0.0
aF0.0
aF0.0
aF0.0
aF0.0
aF0.0
aF0.0
aF0.0
aas.