(dp0
S'random_NodeTotal'
p1
(lp2
(lp3
F0.0
aF0.0
aF0.0
aF0.0
aF0.0
aF0.0
aF0.0
aF0.0
aF0.0
aF0.0
aa(lp4
F0.0
aF0.0
aF0.0
aF0.0
aF0.0
aF0.0
aF0.0
aF0.0
aF0.0
aF0.0
aa(lp5
F0.0
aF0.0
aF0.0
aF0.0
aF0.0
aF0.0
aF0.0
aF0.0
aF0.0
aF0.0
aa(lp6
F0.0
aF0.0
aF0.0
aF0.0
aF0.0
aF0.0
aF0.0
aF0.0
aF0.0
aF0.0
aa(lp7
F0.0
aF0.0
aF0.0
aF0.0
aF0.0
aF0.0
aF0.0
aF0.0
aF0.0
aF0.0
aa(lp8
F0.0
aF0.0
aF0.0
aF0.0
aF0.0
aF0.0
aF0.0
aF0.0
aF0.0
aF0.0
aa(lp9
F0.0
aF0.0
aF0.0
aF0.0
aF0.0
aF0.0
aF0.0
aF0.0
aF0.0
aF0.0
aa(lp10
F0.0
aF0.0
aF0.0
aF0.0
aF0.0
aF0.0
aF0.0
aF0.0
aF0.0
aF0.0
aa(lp11
F0.0
aF0.0
aF0.0
aF0.0
aF0.0
aF0.0
aF0.0
aF0.0
aF0.0
aF0.0
aa(lp12
F0.0
aF0.0
aF0.0
aF0.0
aF0.0
aF0.0
aF0.0
aF0.0
aF0.0
aF0.0
aa(lp13
F0.0
aF0.0
aF0.0
aF0.0
aF0.0
aF0.0
aF0.0
aF0.0
aF0.0
aF0.0
aa(lp14
F0.0
aF0.0
aF0.0
aF0.0
aF0.0
aF0.0
aF0.0
aF0.0
aF0.0
aF0.0
aa(lp15
F0.0
aF0.0
aF0.0
aF0.0
aF0.0
aF0.0
aF0.0
aF0.0
aF0.0
aF0.0
aa(lp16
F0.0
aF0.0
aF0.0
aF0.0
aF0.0
aF0.0
aF0.0
aF0.0
aF0.0
aF0.0
aa(lp17
F0.0
aF0.0
aF0.0
aF0.0
aF0.0
aF0.0
aF0.0
aF0.0
aF0.0
aF0.0
aa(lp18
F0.0
aF0.0
aF0.0
aF0.0
aF0.0
aF0.0
aF0.0
aF0.0
aF0.0
aF0.0
aa(lp19
F0.0
aF0.0
aF0.0
aF0.0
aF0.0
aF0.0
aF0.0
aF0.0
aF0.0
aF0.0
aa(lp20
F0.0
aF0.0
aF0.0
aF0.0
aF0.0
aF0.0
aF0.0
aF0.0
aF0.0
aF0.0
aa(lp21
F0.0
aF0.0
aF0.0
aF0.0
aF0.0
aF0.0
aF0.0
aF0.0
aF0.0
aF0.0
aa(lp22
F0.0
aF0.0
aF0.0
aF0.0
aF0.0
aF0.0
aF0.0
aF0.0
aF0.0
aasS'random_EdgeTotal'
p23
(lp24
(lp25
F8318.0
aF8112.0
aF8111.0
aF7930.0
aF8045.0
aF8119.0
aF8179.0
aF8047.0
aF7796.0
aF7859.0
aa(lp26
F16024.0
aF15889.0
aF16397.0
aF15637.0
aF15760.0
aF16822.0
aF16177.0
aF15975.0
aF16423.0
aF15994.0
aa(lp27
F23613.0
aF23771.0
aF24207.0
aF24484.0
aF23401.0
aF25093.0
aF24434.0
aF24093.0
aF23973.0
aF24902.0
aa(lp28
F31275.0
aF33163.0
aF31976.0
aF33125.0
aF32435.0
aF32143.0
aF33376.0
aF31523.0
aF32410.0
aF32044.0
aa(lp29
F40228.0
aF40832.0
aF40710.0
aF40023.0
aF39385.0
aF40805.0
aF40763.0
aF40766.0
aF40854.0
aF40365.0
aa(lp30
F48954.0
aF48114.0
aF49572.0
aF48879.0
aF47868.0
aF49032.0
aF48385.0
aF47735.0
aF49219.0
aF47542.0
aa(lp31
F55534.0
aF56733.0
aF54894.0
aF57418.0
aF57267.0
aF56239.0
aF55593.0
aF55805.0
aF58000.0
aF55641.0
aa(lp32
F66160.0
aF62982.0
aF65455.0
aF63484.0
aF65395.0
aF66152.0
aF64799.0
aF64098.0
aF66080.0
aF66644.0
aa(lp33
F73855.0
aF70448.0
aF73659.0
aF73316.0
aF71416.0
aF74355.0
aF72752.0
aF71629.0
aF74046.0
aF71781.0
aa(lp34
F80016.0
aF77735.0
aF79964.0
aF82156.0
aF82664.0
aF82345.0
aF80958.0
aF79306.0
aF79381.0
aF80230.0
aa(lp35
F89251.0
aF89868.0
aF88773.0
aF89756.0
aF90665.0
aF89974.0
aF89080.0
aF87483.0
aF91045.0
aF87603.0
aa(lp36
F97828.0
aF98174.0
aF95911.0
aF98030.0
aF97661.0
aF96251.0
aF98050.0
aF94579.0
aF101713.0
aF97288.0
aa(lp37
F105872.0
aF107821.0
aF105810.0
aF105607.0
aF104518.0
aF108710.0
aF104458.0
aF104802.0
aF106135.0
aF103605.0
aa(lp38
F114186.0
aF117629.0
aF115669.0
aF114606.0
aF110325.0
aF113614.0
aF114425.0
aF113829.0
aF114161.0
aF112990.0
aa(lp39
F120440.0
aF123327.0
aF121251.0
aF125464.0
aF117878.0
aF122504.0
aF116891.0
aF123958.0
aF120563.0
aF122244.0
aa(lp40
F130173.0
aF130836.0
aF129605.0
aF134608.0
aF128668.0
aF133097.0
aF131473.0
aF126908.0
aF130032.0
aF134141.0
aa(lp41
F135834.0
aF138077.0
aF145288.0
aF142327.0
aF142269.0
aF140443.0
aF138427.0
aF140695.0
aF136486.0
aF137321.0
aa(lp42
F150157.0
aF146239.0
aF147864.0
aF149591.0
aF151392.0
aF154124.0
aF153268.0
aF147433.0
aF149504.0
aF146909.0
aa(lp43
F155194.0
aF154179.0
aF167692.0
aF159281.0
aF151089.0
aF160275.0
aF154084.0
aF157307.0
aF156737.0
aF152839.0
aa(lp44
F162470.0
aF158173.0
aF160509.0
aF159732.0
aF166956.0
aF161240.0
aF163919.0
aF162640.0
aF163739.0
aasS'random_AggTotal'
p45
(lp46
(lp47
F7639.0
aF7484.0
aF7488.0
aF7296.0
aF7344.0
aF7492.0
aF7599.0
aF7367.0
aF7220.0
aF7239.0
aa(lp48
F14944.0
aF14479.0
aF15563.0
aF14518.0
aF14637.0
aF15762.0
aF15143.0
aF14986.0
aF15254.0
aF14659.0
aa(lp49
F21757.0
aF21706.0
aF22283.0
aF22912.0
aF21310.0
aF23389.0
aF22352.0
aF21946.0
aF21821.0
aF23008.0
aa(lp50
F28389.0
aF31653.0
aF29353.0
aF31406.0
aF29740.0
aF29464.0
aF31216.0
aF28674.0
aF30149.0
aF29263.0
aa(lp51
F36808.0
aF38167.0
aF37646.0
aF36543.0
aF35874.0
aF37580.0
aF37750.0
aF37216.0
aF38050.0
aF37746.0
aa(lp52
F44806.0
aF44646.0
aF47055.0
aF46464.0
aF43561.0
aF45079.0
aF44898.0
aF44271.0
aF45938.0
aF43263.0
aa(lp53
F50985.0
aF52557.0
aF50417.0
aF53828.0
aF53212.0
aF51396.0
aF51359.0
aF50947.0
aF55078.0
aF50588.0
aa(lp54
F62176.0
aF57119.0
aF60657.0
aF58822.0
aF61567.0
aF63029.0
aF60445.0
aF57708.0
aF61059.0
aF63840.0
aa(lp55
F69560.0
aF64144.0
aF69429.0
aF69614.0
aF65470.0
aF69766.0
aF67067.0
aF65987.0
aF70644.0
aF65522.0
aa(lp56
F74677.0
aF70307.0
aF72625.0
aF77414.0
aF77256.0
aF76488.0
aF75205.0
aF73108.0
aF72978.0
aF73477.0
aa(lp57
F83827.0
aF83396.0
aF80946.0
aF84360.0
aF83975.0
aF82845.0
aF83055.0
aF80502.0
aF86348.0
aF80211.0
aa(lp58
F88705.0
aF91037.0
aF86791.0
aF92225.0
aF90541.0
aF89146.0
aF90350.0
aF86337.0
aF97532.0
aF90614.0
aa(lp59
F99637.0
aF105263.0
aF100720.0
aF98582.0
aF94555.0
aF102243.0
aF97069.0
aF95948.0
aF99193.0
aF97159.0
aa(lp60
F109344.0
aF115325.0
aF107861.0
aF106564.0
aF100844.0
aF107191.0
aF105424.0
aF105726.0
aF107138.0
aF106720.0
aa(lp61
F109232.0
aF116750.0
aF113416.0
aF118237.0
aF107896.0
aF113707.0
aF106769.0
aF118338.0
aF112138.0
aF115731.0
aa(lp62
F125387.0
aF124069.0
aF120657.0
aF126820.0
aF119821.0
aF126200.0
aF122006.0
aF116928.0
aF119537.0
aF129146.0
aa(lp63
F125925.0
aF131559.0
aF142370.0
aF134100.0
aF134744.0
aF136696.0
aF130099.0
aF136546.0
aF125700.0
aF129126.0
aa(lp64
F140222.0
aF139031.0
aF137271.0
aF143454.0
aF143409.0
aF145272.0
aF150472.0
aF140149.0
aF141454.0
aF140339.0
aa(lp65
F145638.0
aF146918.0
aF163399.0
aF150909.0
aF139068.0
aF146449.0
aF143908.0
aF151351.0
aF149096.0
aF142677.0
aa(lp66
F148142.0
aF144892.0
aF148578.0
aF145264.0
aF160141.0
aF148632.0
aF151592.0
aF150770.0
aF152680.0
aasS'random_AggRedirections'
p67
(lp68
(lp69
F0.0
aF0.0
aF0.0
aF0.0
aF0.0
aF0.0
aF0.0
aF0.0
aF0.0
aF0.0
aa(lp70
F0.0
aF0.0
aF0.0
aF0.0
aF0.0
aF0.0
aF0.0
aF0.0
aF0.0
aF0.0
aa(lp71
F0.0
aF0.0
aF0.0
aF0.0
aF0.0
aF0.0
aF0.0
aF0.0
aF0.0
aF0.0
aa(lp72
F0.0
aF0.0
aF0.0
aF0.0
aF0.0
aF0.0
aF0.0
aF0.0
aF0.0
aF0.0
aa(lp73
F0.0
aF0.0
aF0.0
aF0.0
aF0.0
aF0.0
aF0.0
aF0.0
aF0.0
aF0.0
aa(lp74
F0.0
aF0.0
aF0.0
aF0.0
aF0.0
aF0.0
aF0.0
aF0.0
aF0.0
aF0.0
aa(lp75
F0.0
aF0.0
aF0.0
aF0.0
aF0.0
aF0.0
aF0.0
aF0.0
aF0.0
aF0.0
aa(lp76
F0.0
aF0.0
aF0.0
aF0.0
aF0.0
aF0.0
aF0.0
aF0.0
aF0.0
aF0.0
aa(lp77
F0.0
aF0.0
aF0.0
aF0.0
aF0.0
aF0.0
aF0.0
aF0.0
aF0.0
aF0.0
aa(lp78
F0.0
aF0.0
aF0.0
aF0.0
aF0.0
aF0.0
aF0.0
aF0.0
aF0.0
aF0.0
aa(lp79
F0.0
aF0.0
aF0.0
aF0.0
aF0.0
aF0.0
aF0.0
aF0.0
aF0.0
aF0.0
aa(lp80
F0.0
aF0.0
aF0.0
aF0.0
aF0.0
aF0.0
aF0.0
aF0.0
aF0.0
aF0.0
aa(lp81
F0.0
aF0.0
aF0.0
aF0.0
aF0.0
aF0.0
aF0.0
aF0.0
aF0.0
aF0.0
aa(lp82
F0.0
aF0.0
aF0.0
aF0.0
aF0.0
aF0.0
aF0.0
aF0.0
aF0.0
aF0.0
aa(lp83
F0.0
aF0.0
aF0.0
aF0.0
aF0.0
aF0.0
aF0.0
aF0.0
aF0.0
aF0.0
aa(lp84
F0.0
aF0.0
aF0.0
aF0.0
aF0.0
aF0.0
aF0.0
aF0.0
aF0.0
aF0.0
aa(lp85
F0.0
aF0.0
aF0.0
aF0.0
aF0.0
aF0.0
aF0.0
aF0.0
aF0.0
aF0.0
aa(lp86
F0.0
aF0.0
aF0.0
aF0.0
aF0.0
aF0.0
aF0.0
aF0.0
aF0.0
aF0.0
aa(lp87
F0.0
aF0.0
aF0.0
aF0.0
aF0.0
aF0.0
aF0.0
aF0.0
aF0.0
aF0.0
aa(lp88
F0.0
aF0.0
aF0.0
aF0.0
aF0.0
aF0.0
aF0.0
aF0.0
aF0.0
aasS'random_CoreTotal'
p89
(lp90
(lp91
F3532.0
aF3432.0
aF3468.0
aF3372.0
aF3377.0
aF3442.0
aF3519.0
aF3385.0
aF3353.0
aF3339.0
aa(lp92
F6918.0
aF6682.0
aF7138.0
aF6739.0
aF6732.0
aF7288.0
aF7029.0
aF6898.0
aF7058.0
aF6732.0
aa(lp93
F10070.0
aF10005.0
aF10303.0
aF10544.0
aF9768.0
aF10706.0
aF10204.0
aF10057.0
aF10106.0
aF10651.0
aa(lp94
F13089.0
aF14665.0
aF13530.0
aF14471.0
aF13747.0
aF13649.0
aF14453.0
aF13147.0
aF13882.0
aF13483.0
aa(lp95
F16935.0
aF17602.0
aF17356.0
aF16713.0
aF16561.0
aF17369.0
aF17308.0
aF16768.0
aF17553.0
aF17366.0
aa(lp96
F20435.0
aF20693.0
aF21549.0
aF21315.0
aF20044.0
aF20871.0
aF20616.0
aF20535.0
aF21199.0
aF20034.0
aa(lp97
F23615.0
aF24324.0
aF23179.0
aF24804.0
aF24601.0
aF23741.0
aF23736.0
aF23496.0
aF25163.0
aF23398.0
aa(lp98
F28724.0
aF26314.0
aF28151.0
aF27151.0
aF28542.0
aF29081.0
aF27920.0
aF26254.0
aF28055.0
aF29630.0
aa(lp99
F32107.0
aF29624.0
aF32105.0
aF32104.0
aF30284.0
aF32114.0
aF30997.0
aF30170.0
aF32682.0
aF30287.0
aa(lp100
F34088.0
aF32314.0
aF33486.0
aF35946.0
aF35521.0
aF35085.0
aF34556.0
aF33896.0
aF33740.0
aF33751.0
aa(lp101
F38999.0
aF38660.0
aF37350.0
aF39071.0
aF38619.0
aF38133.0
aF38304.0
aF37245.0
aF39977.0
aF36984.0
aa(lp102
F40663.0
aF42234.0
aF40052.0
aF42613.0
aF41500.0
aF41153.0
aF41450.0
aF39882.0
aF44896.0
aF41854.0
aa(lp103
F45913.0
aF49012.0
aF46918.0
aF45493.0
aF43578.0
aF46293.0
aF44826.0
aF44127.0
aF45602.0
aF45019.0
aa(lp104
F50761.0
aF53772.0
aF49971.0
aF49105.0
aF46535.0
aF48889.0
aF48529.0
aF48789.0
aF49366.0
aF49551.0
aa(lp105
F50417.0
aF54192.0
aF52025.0
aF54099.0
aF49819.0
aF52416.0
aF49395.0
aF54947.0
aF51800.0
aF53624.0
aa(lp106
F58418.0
aF57634.0
aF55617.0
aF57926.0
aF55559.0
aF57563.0
aF56278.0
aF53647.0
aF55083.0
aF59653.0
aa(lp107
F57825.0
aF61017.0
aF65567.0
aF61347.0
aF60916.0
aF63821.0
aF60282.0
aF63589.0
aF57991.0
aF59974.0
aa(lp108
F63604.0
aF64306.0
aF62564.0
aF66727.0
aF64955.0
aF67146.0
aF69680.0
aF64791.0
aF65422.0
aF65098.0
aa(lp109
F67129.0
aF67998.0
aF75062.0
aF70080.0
aF63997.0
aF66899.0
aF66481.0
aF70197.0
aF68921.0
aF65873.0
aa(lp110
F67314.0
aF66799.0
aF68781.0
aF66934.0
aF74643.0
aF68115.0
aF70169.0
aF68836.0
aF70418.0
aasS'random_CoreRedirections'
p111
(lp112
(lp113
F0.0
aF0.0
aF0.0
aF0.0
aF0.0
aF0.0
aF0.0
aF0.0
aF0.0
aF0.0
aa(lp114
F0.0
aF0.0
aF0.0
aF0.0
aF0.0
aF0.0
aF0.0
aF0.0
aF0.0
aF0.0
aa(lp115
F0.0
aF0.0
aF0.0
aF0.0
aF0.0
aF0.0
aF0.0
aF0.0
aF0.0
aF0.0
aa(lp116
F0.0
aF0.0
aF0.0
aF0.0
aF0.0
aF0.0
aF0.0
aF0.0
aF0.0
aF0.0
aa(lp117
F0.0
aF0.0
aF0.0
aF0.0
aF0.0
aF0.0
aF0.0
aF0.0
aF0.0
aF0.0
aa(lp118
F0.0
aF0.0
aF0.0
aF0.0
aF0.0
aF0.0
aF0.0
aF0.0
aF0.0
aF0.0
aa(lp119
F0.0
aF0.0
aF0.0
aF0.0
aF0.0
aF0.0
aF0.0
aF0.0
aF0.0
aF0.0
aa(lp120
F0.0
aF0.0
aF0.0
aF0.0
aF0.0
aF0.0
aF0.0
aF0.0
aF0.0
aF0.0
aa(lp121
F0.0
aF0.0
aF0.0
aF0.0
aF0.0
aF0.0
aF0.0
aF0.0
aF0.0
aF0.0
aa(lp122
F0.0
aF0.0
aF0.0
aF0.0
aF0.0
aF0.0
aF0.0
aF0.0
aF0.0
aF0.0
aa(lp123
F0.0
aF0.0
aF0.0
aF0.0
aF0.0
aF0.0
aF0.0
aF0.0
aF0.0
aF0.0
aa(lp124
F0.0
aF0.0
aF0.0
aF0.0
aF0.0
aF0.0
aF0.0
aF0.0
aF0.0
aF0.0
aa(lp125
F0.0
aF0.0
aF0.0
aF0.0
aF0.0
aF0.0
aF0.0
aF0.0
aF0.0
aF0.0
aa(lp126
F0.0
aF0.0
aF0.0
aF0.0
aF0.0
aF0.0
aF0.0
aF0.0
aF0.0
aF0.0
aa(lp127
F0.0
aF0.0
aF0.0
aF0.0
aF0.0
aF0.0
aF0.0
aF0.0
aF0.0
aF0.0
aa(lp128
F0.0
aF0.0
aF0.0
aF0.0
aF0.0
aF0.0
aF0.0
aF0.0
aF0.0
aF0.0
aa(lp129
F0.0
aF0.0
aF0.0
aF0.0
aF0.0
aF0.0
aF0.0
aF0.0
aF0.0
aF0.0
aa(lp130
F0.0
aF0.0
aF0.0
aF0.0
aF0.0
aF0.0
aF0.0
aF0.0
aF0.0
aF0.0
aa(lp131
F0.0
aF0.0
aF0.0
aF0.0
aF0.0
aF0.0
aF0.0
aF0.0
aF0.0
aF0.0
aa(lp132
F0.0
aF0.0
aF0.0
aF0.0
aF0.0
aF0.0
aF0.0
aF0.0
aF0.0
aasS'random_x'
p133
(lp134
(lp135
I5
aI5
aI5
aI5
aI5
aI5
aI5
aI5
aI5
aI5
aa(lp136
I10
aI10
aI10
aI10
aI10
aI10
aI10
aI10
aI10
aI10
aa(lp137
I15
aI15
aI15
aI15
aI15
aI15
aI15
aI15
aI15
aI15
aa(lp138
I20
aI20
aI20
aI20
aI20
aI20
aI20
aI20
aI20
aI20
aa(lp139
I25
aI25
aI25
aI25
aI25
aI25
aI25
aI25
aI25
aI25
aa(lp140
I30
aI30
aI30
aI30
aI30
aI30
aI30
aI30
aI30
aI30
aa(lp141
I35
aI35
aI35
aI35
aI35
aI35
aI35
aI35
aI35
aI35
aa(lp142
I40
aI40
aI40
aI40
aI40
aI40
aI40
aI40
aI40
aI40
aa(lp143
I45
aI45
aI45
aI45
aI45
aI45
aI45
aI45
aI45
aI45
aa(lp144
I50
aI50
aI50
aI50
aI50
aI50
aI50
aI50
aI50
aI50
aa(lp145
I55
aI55
aI55
aI55
aI55
aI55
aI55
aI55
aI55
aI55
aa(lp146
I60
aI60
aI60
aI60
aI60
aI60
aI60
aI60
aI60
aI60
aa(lp147
I65
aI65
aI65
aI65
aI65
aI65
aI65
aI65
aI65
aI65
aa(lp148
I70
aI70
aI70
aI70
aI70
aI70
aI70
aI70
aI70
aI70
aa(lp149
I75
aI75
aI75
aI75
aI75
aI75
aI75
aI75
aI75
aI75
aa(lp150
I80
aI80
aI80
aI80
aI80
aI80
aI80
aI80
aI80
aI80
aa(lp151
I85
aI85
aI85
aI85
aI85
aI85
aI85
aI85
aI85
aI85
aa(lp152
I90
aI90
aI90
aI90
aI90
aI95
aI90
aI90
aI90
aI90
aa(lp153
I95
aI95
aI95
aI95
aI95
aI100
aI95
aI95
aI95
aI95
aa(lp154
I100
aI100
aI100
aI100
aI100
aI100
aI100
aI100
aI100
aasS'random_EdgeRedirections'
p155
(lp156
(lp157
F268.0
aF289.0
aF229.0
aF216.0
aF181.0
aF277.0
aF274.0
aF192.0
aF204.0
aF280.0
aa(lp158
F626.0
aF255.0
aF964.0
aF532.0
aF642.0
aF730.0
aF692.0
aF944.0
aF611.0
aF420.0
aa(lp159
F621.0
aF422.0
aF576.0
aF1117.0
aF553.0
aF1106.0
aF816.0
aF499.0
aF370.0
aF747.0
aa(lp160
F407.0
aF2097.0
aF731.0
aF1926.0
aF712.0
aF606.0
aF1559.0
aF632.0
aF1191.0
aF595.0
aa(lp161
F1104.0
aF1655.0
aF1402.0
aF1541.0
aF621.0
aF946.0
aF1463.0
aF1625.0
aF1604.0
aF1861.0
aa(lp162
F1784.0
aF1414.0
aF3413.0
aF3509.0
aF777.0
aF1051.0
aF1930.0
aF1369.0
aF1982.0
aF618.0
aa(lp163
F1542.0
aF1670.0
aF1953.0
aF2846.0
aF1821.0
aF1024.0
aF1539.0
aF978.0
aF3705.0
aF672.0
aa(lp164
F3475.0
aF949.0
aF1848.0
aF2330.0
aF3051.0
aF4012.0
aF2445.0
aF1100.0
aF2468.0
aF4569.0
aa(lp165
F4361.0
aF1144.0
aF3627.0
aF4864.0
aF1361.0
aF3346.0
aF1989.0
aF2477.0
aF4209.0
aF1300.0
aa(lp166
F4004.0
aF981.0
aF1171.0
aF3949.0
aF3965.0
aF3887.0
aF3008.0
aF1704.0
aF2409.0
aF2028.0
aa(lp167
F3496.0
aF3283.0
aF1410.0
aF3981.0
aF3033.0
aF2473.0
aF3458.0
aF2046.0
aF4698.0
aF1986.0
aa(lp168
F1713.0
aF3364.0
aF1001.0
aF4647.0
aF3926.0
aF3091.0
aF3067.0
aF1805.0
aF7580.0
aF3510.0
aa(lp169
F5636.0
aF8548.0
aF5921.0
aF4103.0
aF1162.0
aF7256.0
aF3804.0
aF2380.0
aF5079.0
aF4248.0
aa(lp170
F6606.0
aF9570.0
aF4672.0
aF4095.0
aF2347.0
aF7251.0
aF3192.0
aF4480.0
aF5905.0
aF5456.0
aa(lp171
F1714.0
aF6169.0
aF5707.0
aF6878.0
aF2421.0
aF4995.0
aF2273.0
aF6889.0
aF4235.0
aF6216.0
aa(lp172
F8251.0
aF6687.0
aF5256.0
aF7624.0
aF4341.0
aF8516.0
aF4372.0
aF5360.0
aF3211.0
aF10058.0
aa(lp173
F4914.0
aF7812.0
aF13175.0
aF8014.0
aF10977.0
aF9813.0
aF5875.0
aF11249.0
aF3497.0
aF6154.0
aa(lp174
F8133.0
aF8550.0
aF7772.0
aF10376.0
aF11737.0
aF7215.0
aF13475.0
aF8927.0
aF8556.0
aF9340.0
aa(lp175
F8912.0
aF9007.0
aF16758.0
aF7668.0
aF4144.0
aF4614.0
aF5877.0
aF9981.0
aF8656.0
aF6607.0
aa(lp176
F4819.0
aF3788.0
aF4467.0
aF2527.0
aF10207.0
aF5784.0
aF5242.0
aF7379.0
aF6268.0
aasS'random_NodeRedirections'
p177
(lp178
(lp179
F0.0
aF0.0
aF0.0
aF0.0
aF0.0
aF0.0
aF0.0
aF0.0
aF0.0
aF0.0
aa(lp180
F0.0
aF0.0
aF0.0
aF0.0
aF0.0
aF0.0
aF0.0
aF0.0
aF0.0
aF0.0
aa(lp181
F0.0
aF0.0
aF0.0
aF0.0
aF0.0
aF0.0
aF0.0
aF0.0
aF0.0
aF0.0
aa(lp182
F0.0
aF0.0
aF0.0
aF0.0
aF0.0
aF0.0
aF0.0
aF0.0
aF0.0
aF0.0
aa(lp183
F0.0
aF0.0
aF0.0
aF0.0
aF0.0
aF0.0
aF0.0
aF0.0
aF0.0
aF0.0
aa(lp184
F0.0
aF0.0
aF0.0
aF0.0
aF0.0
aF0.0
aF0.0
aF0.0
aF0.0
aF0.0
aa(lp185
F0.0
aF0.0
aF0.0
aF0.0
aF0.0
aF0.0
aF0.0
aF0.0
aF0.0
aF0.0
aa(lp186
F0.0
aF0.0
aF0.0
aF0.0
aF0.0
aF0.0
aF0.0
aF0.0
aF0.0
aF0.0
aa(lp187
F0.0
aF0.0
aF0.0
aF0.0
aF0.0
aF0.0
aF0.0
aF0.0
aF0.0
aF0.0
aa(lp188
F0.0
aF0.0
aF0.0
aF0.0
aF0.0
aF0.0
aF0.0
aF0.0
aF0.0
aF0.0
aa(lp189
F0.0
aF0.0
aF0.0
aF0.0
aF0.0
aF0.0
aF0.0
aF0.0
aF0.0
aF0.0
aa(lp190
F0.0
aF0.0
aF0.0
aF0.0
aF0.0
aF0.0
aF0.0
aF0.0
aF0.0
aF0.0
aa(lp191
F0.0
aF0.0
aF0.0
aF0.0
aF0.0
aF0.0
aF0.0
aF0.0
aF0.0
aF0.0
aa(lp192
F0.0
aF0.0
aF0.0
aF0.0
aF0.0
aF0.0
aF0.0
aF0.0
aF0.0
aF0.0
aa(lp193
F0.0
aF0.0
aF0.0
aF0.0
aF0.0
aF0.0
aF0.0
aF0.0
aF0.0
aF0.0
aa(lp194
F0.0
aF0.0
aF0.0
aF0.0
aF0.0
aF0.0
aF0.0
aF0.0
aF0.0
aF0.0
aa(lp195
F0.0
aF0.0
aF0.0
aF0.0
aF0.0
aF0.0
aF0.0
aF0.0
aF0.0
aF0.0
aa(lp196
F0.0
aF0.0
aF0.0
aF0.0
aF0.0
aF0.0
aF0.0
aF0.0
aF0.0
aF0.0
aa(lp197
F0.0
aF0.0
aF0.0
aF0.0
aF0.0
aF0.0
aF0.0
aF0.0
aF0.0
aF0.0
aa(lp198
F0.0
aF0.0
aF0.0
aF0.0
aF0.0
aF0.0
aF0.0
aF0.0
aF0.0
aas.