(dp0
S'random_99.9'
p1
(lp2
(lp3
F103.194115
aF99.3233955
aF102.1206853
aF111.4020733
aF95.3407119
aF125.6921376
aF106.119472
aF102.8726892
aF104.580124
aF105.6438904
aa(lp4
F112.2718808
aF113.2717507
aF106.7858501
aF102.4504532
aF113.6918915
aF104.096386
aF104.252192
aF101.2115786
aF105.691552
aF111.0319303
aa(lp5
F107.7328464
aF117.0612824
aF114.670992
aF111.2288784
aF113.7943686
aF124.4978081
aF118.5735896
aF107.0863032
aF107.899388
aF110.6408401
aa(lp6
F112.1840188
aF114.37359
aF113.7878502
aF112.110257
aF115.746857
aF117.2667287
aF115.2212648
aF119.1328468
aF115.969263
aF110.1483574
aa(lp7
F118.6868725
aF129.0841267
aF115.087376
aF117.704449
aF113.2230936
aF117.91969
aF116.8314015
aF116.9999622
aF118.1490624
aF116.630576
aa(lp8
F118.480427
aF120.6914922
aF125.2828409
aF120.8931488
aF117.8269975
aF117.723318
aF117.787569
aF128.1829908
aF125.9802308
aF124.3964976
aa(lp9
F128.4683696
aF126.9727193
aF118.4861642
aF134.9409692
aF117.1114511
aF129.756632
aF121.559916
aF121.19995
aF125.072122
aF128.5153368
aa(lp10
F135.1008216
aF128.277541
aF128.7070174
aF126.4885425
aF129.0013612
aF130.9577183
aF137.0892344
aF126.6263533
aF129.666812
aF130.043883
aa(lp11
F139.4999802
aF127.4168094
aF136.2027376
aF132.8559624
aF133.819692
aF132.89224
aF139.3142363
aF136.6585544
aF131.7351904
aF135.1381988
aa(lp12
F138.8108575
aF140.3617176
aF136.4806054
aF142.6362224
aF142.4427599
aF147.2619207
aF143.9037386
aF137.2174474
aF148.2081623
aF136.1576485
aa(lp13
F149.8707164
aF160.3907032
aF151.2692674
aF151.7609134
aF153.5356263
aF152.394879
aF159.1985354
aF150.2105264
aF152.8496656
aF155.7993472
aa(lp14
F159.994781
aF154.608452
aF162.9035114
aF164.1377344
aF157.2385856
aF156.3081975
aF159.362195
aF161.4473173
aF148.448048
aF149.8475775
aa(lp15
F161.7474343
aF161.1282278
aF170.7767776
aF169.5489792
aF154.193532
aF163.2946735
aF160.9588352
aF168.9415683
aF166.0785295
aF151.4709095
aa(lp16
F166.9688972
aF182.5362215
aF188.8057174
aF175.2846346
aF181.2119197
aF179.911944
aF181.5584404
aF164.2950022
aF178.89072
aF177.243234
aa(lp17
F177.8740188
aF198.5843948
aF186.0186697
aF186.155405
aF180.4969809
aF184.922702
aF181.0552576
aF178.469596
aF170.272988
aF189.1383944
aa(lp18
F210.8422737
aF198.5164432
aF206.6105868
aF199.242855
aF201.4064494
aF201.7268
aF225.8479869
aF195.952248
aF181.1648018
aF207.3220802
aa(lp19
F290.3608008
aF245.2386366
aF224.8230432
aF216.3958256
aF248.9724598
aF221.802899
aF226.0961466
aF210.4600175
aF216.2123668
aF205.0856306
aa(lp20
F227.4986862
aF272.1355248
aF284.5674109
aF247.2309421
aF249.3183177
aF278.1404162
aF246.412664
aF232.0232125
aF233.0531788
aF213.6617412
aa(lp21
F341.3154071
aF250.043705
aF317.3586545
aF300.872585
aF275.4111984
aF247.44684
aF291.522988
aF262.764185
aF266.577205
aF266.3234072
aa(lp22
F279.0976658
aF288.9664145
aF302.9852244
aF275.1740344
aF318.881598
aF295.9548514
aF388.5170977
aF332.0283484
aF375.748798
aF315.37149
aasS'random_99'
p23
(lp24
(lp25
F80.116312
aF79.986669
aF81.2801404
aF78.8663566
aF79.0509684
aF81.4815448
aF81.023889
aF80.4190008
aF81.1303236
aF81.6968378
aa(lp26
F82.4877498
aF86.9392403
aF83.4222572
aF82.5418304
aF83.8262765
aF82.002934
aF81.995248
aF80.7677419
aF81.2078935
aF82.5799024
aa(lp27
F82.089519
aF83.0425088
aF84.9931392
aF85.7093424
aF85.0063394
aF88.7754446
aF85.3591152
aF83.1034236
aF84.4141179
aF85.7818502
aa(lp28
F85.311428
aF85.583525
aF87.0102273
aF88.7989932
aF86.6319593
aF89.8318201
aF88.4329379
aF88.3812292
aF85.516299
aF84.3697402
aa(lp29
F90.9617401
aF89.6242315
aF87.603728
aF89.007557
aF86.8010544
aF91.0381309
aF88.8700135
aF86.6134305
aF89.9503168
aF89.573172
aa(lp30
F91.058765
aF91.0694988
aF92.1085384
aF92.761121
aF90.7810675
aF92.6513304
aF91.624992
aF91.9898031
aF91.0184646
aF92.4668304
aa(lp31
F94.8650984
aF94.5810212
aF93.0173015
aF99.280859
aF90.49277
aF95.263572
aF94.7532676
aF92.660775
aF94.049447
aF94.1956784
aa(lp32
F101.2969152
aF97.957108
aF99.6976062
aF95.4302375
aF98.8350312
aF97.4654702
aF98.8039432
aF98.2905255
aF97.72158
aF98.52677
aa(lp33
F104.1690317
aF98.7458213
aF102.1370752
aF100.2793152
aF104.9739018
aF102.16576
aF105.2108873
aF103.3986638
aF99.9807092
aF102.4275392
aa(lp34
F105.288288
aF104.221734
aF106.059867
aF105.3924048
aF107.2598429
aF110.3951882
aF109.372499
aF104.2793268
aF110.3994138
aF103.3215599
aa(lp35
F111.3278112
aF112.7593714
aF109.7858302
aF109.1743738
aF113.2328198
aF111.495605
aF114.2093112
aF112.9893392
aF115.6216647
aF115.4277172
aa(lp36
F120.86377
aF116.36828
aF116.7383552
aF121.7069856
aF116.4703504
aF118.6156875
aF118.4722175
aF117.6175742
aF118.62284
aF112.903995
aa(lp37
F121.2980319
aF123.612601
aF122.0885632
aF120.6390808
aF116.722032
aF117.218087
aF121.4451104
aF125.922078
aF121.2594205
aF117.599918
aa(lp38
F126.6121808
aF133.968041
aF132.8872772
aF127.653913
aF130.8080635
aF130.9038105
aF129.4250844
aF126.1576712
aF132.8937468
aF133.691561
aa(lp39
F137.8254154
aF139.1356384
aF135.2562717
aF139.295275
aF137.2690102
aF137.192173
aF137.2601228
aF133.338552
aF128.409805
aF138.1791392
aa(lp40
F146.8231896
aF144.3321976
aF149.9675046
aF148.2260848
aF152.3700698
aF144.586
aF156.122496
aF142.7396928
aF142.8106652
aF149.6669848
aa(lp41
F166.8837312
aF164.4998329
aF159.0735897
aF160.0609736
aF174.9481654
aF164.5043081
aF160.7196138
aF156.3971555
aF152.9034535
aF156.7219052
aa(lp42
F167.6034616
aF194.1214824
aF188.0189024
aF174.0132178
aF186.9928951
aF195.5060858
aF173.3648624
aF171.359275
aF174.2688436
aF159.7180848
aa(lp43
F234.0761538
aF185.57171
aF221.594183
aF201.9888759
aF198.9724635
aF184.97898
aF209.356806
aF192.1883225
aF201.821087
aF190.1706584
aa(lp44
F217.495074
aF212.8673145
aF232.2659656
aF205.5193876
aF213.8570455
aF218.7281088
aF253.5269182
aF228.570499
aF235.366619
aF226.836615
aasS'random_soj_95'
p45
(lp46
(lp47
F50.6665
aF50.6736
aF55.4576
aF48.8592
aF46.208
aF49.5312
aF47.763
aF47.6388
aF48.7382
aF49.3703
aa(lp48
F54.0625
aF50.8814
aF53.3836
aF49.9696
aF54.2534
aF52.25
aF53.1422
aF52.8464
aF51.4492
aF51.9516
aa(lp49
F61.3217
aF53.5408
aF54.784
aF53.1876
aF53.917
aF55.5422
aF55.4546
aF53.8342
aF52.6619
aF53.659
aa(lp50
F53.7935
aF56.0056
aF54.7488
aF54.42
aF55.9713
aF54.8848
aF55.772
aF54.8474
aF56.2064
aF54.644
aa(lp51
F67.6688
aF57.1559
aF55.2916
aF57.9395
aF54.9048
aF56.4395
aF59.6
aF59.999
aF55.1012
aF55.5627
aa(lp52
F57.0696
aF59.27
aF61.4045
aF62.4254
aF59.8132
aF60.1304
aF61.388
aF64.1206
aF62.2403
aF60.45
aa(lp53
F64.2925
aF62.834
aF57.7342
aF63.1664
aF69.3947
aF60.506
aF62.9644
aF63.7257
aF61.3628
aF62.5568
aa(lp54
F62.4965
aF62.9436
aF64.1052
aF63.7264
aF64.451
aF60.4112
aF64.0824
aF64.0976
aF62.9888
aF63.166
aa(lp55
F68.2661
aF63.1532
aF65.9436
aF65.9261
aF68.57
aF64.9992
aF67.168
aF66.19
aF65.6825
aF64.6574
aa(lp56
F70.8875
aF70.2726
aF69.4985
aF69.9442
aF70.57
aF71.676
aF69.4742
aF74.4768
aF73.901
aF67.872
aa(lp57
F74.3551
aF74.0618
aF70.9649
aF69.8804
aF75.9224
aF72.806
aF75.632
aF74.3222
aF72.9738
aF75.5
aa(lp58
F79.385
aF78.1824
aF78.8192
aF79.4604
aF77.3399
aF75.9583
aF76.526
aF76.7767
aF78.073
aF72.0362
aa(lp59
F79.8215
aF79.9875
aF80.5085
aF80.3996
aF78.3693
aF80.5724
aF81.0286
aF83.8052
aF80.215
aF81.2981
aa(lp60
F82.5872
aF88.583
aF87.0123
aF84.1337
aF87.614
aF85.893
aF87.8802
aF83.774
aF89.7004
aF87.6698
aa(lp61
F94.4453
aF95.0509
aF89.3557
aF90.6695
aF90.6704
aF91.6235
aF92.563
aF92.0896
aF84.8
aF90.9481
aa(lp62
F98.231
aF95.48
aF104.2225
aF101.2616
aF103.9585
aF97.6846
aF104.5148
aF96.026
aF92.5424
aF100.4465
aa(lp63
F110.5376
aF110.92
aF105.0452
aF105.7795
aF113.3684
aF111.7388
aF105.0532
aF106.8325
aF106.6736
aF109.0256
aa(lp64
F113.7814
aF123.0938
aF123.098
aF119.4396
aF124.2896
aF127.5962
aF116.1058
aF114.497
aF118.1735
aF108.5284
aa(lp65
F156.6656
aF125.6052
aF147.6311
aF135.177
aF135.9776
aF124.6234
aF137.8996
aF130.6073
aF132.9612
aF130.967
aa(lp66
F146.22
aF146.2238
aF163.5539
aF138.617
aF138.2074
aF149.3138
aF164.5648
aF153.7508
aF153.708
aF158.2748
aasS'random_soj_99.99'
p67
(lp68
(lp69
F99.9905
aF116.9888
aF112.9892
aF92.9912
aF84.992
aF102.9902
aF86.9918
aF78.9926
aF103.9901
aF97.9907
aa(lp70
F129.9875
aF98.9906
aF101.9903
aF98.9906
aF130.9874
aF109.9895
aF107.9897
aF93.9911
aF110.9894
aF111.9893
aa(lp71
F127.9877
aF116.9888
aF144.986
aF110.9894
aF114.989
aF133.9871
aF127.9877
aF110.9894
aF105.9899
aF99.9905
aa(lp72
F109.9895
aF107.9897
aF122.9882
aF104.99
aF143.9861
aF116.9888
aF124.988
aF106.9898
aF131.9873
aF130.9874
aa(lp73
F148.9856
aF141.9863
aF122.9882
aF149.9855
aF110.9894
aF119.9885
aF124.988
aF139.9865
aF112.9892
aF107.9897
aa(lp74
F126.9878
aF112.9892
aF159.9845
aF126.9878
aF131.9873
aF128.9876
aF152.9852
aF246.9758
aF173.9831
aF129.9875
aa(lp75
F189.9815
aF174.983
aF113.9891
aF150.9854
aF145.9859
aF136.9868
aF146.9858
aF201.9803
aF160.9844
aF148.9856
aa(lp76
F139.9865
aF147.9857
aF158.9846
aF152.9852
aF153.9851
aF132.9872
aF173.9831
aF148.9856
aF148.9856
aF131.9873
aa(lp77
F163.9841
aF133.9871
aF155.9849
aF153.9851
aF160.9844
aF152.9852
aF156.9848
aF149.9855
aF159.9845
aF142.9862
aa(lp78
F179.9825
aF182.9822
aF169.9835
aF177.9827
aF162.9842
aF162.9842
aF157.9847
aF177.9827
aF214.979
aF149.9855
aa(lp79
F171.9833
aF190.9814
aF177.9827
aF160.9844
aF236.9768
aF184.982
aF222.9782
aF190.9814
aF153.9851
aF239.9765
aa(lp80
F194.981
aF216.9788
aF186.9818
aF200.9804
aF181.9823
aF171.9833
aF186.9818
aF197.9807
aF186.9818
aF158.9846
aa(lp81
F199.9805
aF179.9825
aF217.9787
aF232.9772
aF177.9827
aF217.9787
aF198.9806
aF208.9796
aF179.9825
aF201.9803
aa(lp82
F220.9784
aF226.9778
aF245.9759
aF205.9799
aF200.9804
aF209.9795
aF255.9749
aF194.981
aF240.9764
aF215.9789
aa(lp83
F227.9777
aF231.9773
aF225.9779
aF203.9801
aF196.9808
aF219.9785
aF249.9755
aF216.9788
aF204.98
aF203.9801
aa(lp84
F274.973
aF236.9768
aF329.9675
aF232.9772
aF239.9765
aF258.9746
aF312.9692
aF238.9766
aF180.9824
aF259.9745
aa(lp85
F382.9622
aF335.9669
aF267.9737
aF269.9735
aF298.9706
aF266.9738
aF288.9716
aF279.9725
aF360.9644
aF256.9748
aa(lp86
F305.9699
aF323.9681
aF328.9676
aF345.9659
aF308.9696
aF315.9689
aF306.9698
aF327.9677
aF289.9715
aF272.9732
aa(lp87
F460.9544
aF285.9719
aF365.9639
aF353.9651
aF316.9688
aF282.9722
aF336.9668
aF305.9699
aF302.9702
aF402.9602
aa(lp88
F311.9693
aF322.9682
aF391.9613
aF334.967
aF387.9617
aF370.9634
aF546.9458
aF386.9618
aF456.9548
aF430.9574
aasS'random_soj_99'
p89
(lp90
(lp91
F63.064
aF64.248
aF71.0528
aF60.6688
aF57.896
aF64.4762
aF61.0142
aF59.5084
aF63.0437
aF63.9062
aa(lp92
F69.5375
aF67.2374
aF69.3692
aF64.5584
aF69.827
aF66.2465
aF67.0266
aF66.5791
aF64.8158
aF65.9472
aa(lp93
F76.7705
aF67.3392
aF71.318
aF68.3456
aF69.603
aF74.4278
aF70.8542
aF68.6424
aF67.0443
aF69.087
aa(lp94
F68.105
aF72.053
aF70.8086
aF70.64
aF72.9293
aF72.7936
aF71.636
aF70.7084
aF70.6717
aF69.4742
aa(lp95
F89.1104
aF74.8015
aF70.6198
aF73.933
aF69.7024
aF74.2185
aF76.124
aF75.8075
aF70.3292
aF71.7646
aa(lp96
F73.442
aF75.6968
aF79.276
aF80.457
aF75.3961
aF77.9368
aF78.0528
aF82.9966
aF80.4078
aF77.725
aa(lp97
F85.031
aF81.772
aF74.2695
aF84.278
aF88.19
aF78.7484
aF81.2114
aF81.6527
aF79.9892
aF80.4848
aa(lp98
F82.409
aF81.934
aF83.8172
aF81.442
aF83.7912
aF78.3952
aF84.6666
aF83.984
aF82.904
aF82.597
aa(lp99
F89.5721
aF81.6389
aF85.9813
aF85.4898
aF89.5052
aF86.1484
aF89.4056
aF86.751
aF84.639
aF84.8192
aa(lp100
F93.2
aF92.131
aF90.7175
aF91.3962
aF91.7894
aF94.2068
aF93.5105
aF97.3474
aF97.778
aF87.2295
aa(lp101
F98.7872
aF98.5394
aF94.6486
aF92.8436
aF100.6304
aF95.9
aF100.8328
aF98.9486
aF97.2161
aF103.0185
aa(lp102
F105.7
aF104.216
aF105.1728
aF106.9984
aF102.2261
aF101.4425
aF102.4246
aF102.6194
aF104.008
aF95.5212
aa(lp103
F106.8095
aF107.025
aF108.2624
aF107.0984
aF101.707
aF106.5158
aF106.6948
aF110.672
aF105.5025
aF107.3612
aa(lp104
F111.6176
aF120.1292
aF118.7038
aF112.2335
aF117.798
aF114.7775
aF117.0213
aF109.424
aF119.5544
aF118.2859
aa(lp105
F126.9587
aF128.1248
aF119.5443
aF121.9125
aF122.0816
aF122.2395
aF123.678
aF122.4904
aF112.4
aF122.1712
aa(lp106
F132.224
aF129.1432
aF138.9975
aF134.8688
aF140.313
aF129.841
aF142.984
aF128.1308
aF122.4976
aF134.438
aa(lp107
F155.2928
aF151.6661
aF142.7331
aF142.853
aF160.4966
aF153.9994
aF146.2332
aF142.6925
aF143.306
aF146.2712
aa(lp108
F153.4532
aF178.7593
aF172.9616
aF165.3382
aF170.2848
aF181.0882
aF159.5938
aF157.779
aF161.579
aF144.0384
aa(lp109
F228.3488
aF166.9684
aF204.9218
aF189.7257
aF190.484
aF166.7126
aF193.3436
aF176.2389
aF185.0516
aF176.8564
aa(lp110
F199.638
aF196.0862
aF222.2618
aF188.249
aF199.6023
aF203.2256
aF240.9868
aF213.763
aF222.5476
aF213.1436
aasS'random_soj_99.9'
p111
(lp112
(lp113
F80.905
aF79.536
aF89.0996
aF85.1944
aF69.536
aF98.8644
aF79.5216
aF75.7366
aF80.933
aF82.3016
aa(lp114
F94.35
aF87.2406
aF88.5461
aF79.8522
aF94.397
aF83.8235
aF84.9589
aF83.1954
aF84.0336
aF88.3209
aa(lp115
F100.6448
aF94.5216
aF95.93
aF88.3796
aF92.857
aF104.0333
aF98.0741
aF88.1888
aF85.396
aF88.8185
aa(lp116
F89.2205
aF96.0108
aF92.2964
aF88.9
aF97.157
aF94.7232
aF93.032
aF94.9436
aF95.5129
aF90.4154
aa(lp117
F116.24
aF107.3527
aF92.4616
aF97.481
aF90.6056
aF95.85
aF99.836
aF102.173
aF92.0156
aF93.1268
aa(lp118
F95.2556
aF100.0292
aF107.5635
aF104.6496
aF97.5957
aF98.806
aF100.1196
aF115.4488
aF111.0644
aF104.275
aa(lp119
F114.964
aF109.533
aF94.3146
aF114.2664
aF114.0917
aF106.9304
aF103.974
aF106.6126
aF106.1192
aF109.5296
aa(lp120
F109.5845
aF107.0305
aF107.9644
aF107.6972
aF109.1212
aF104.9808
aF117.1822
aF107.9744
aF109.7456
aF108.7463
aa(lp121
F119.7026
aF105.0782
aF114.3844
aF113.0101
aF113.888
aF111.8116
aF118.1336
aF114.388
aF111.268
aF111.6188
aa(lp122
F122.6875
aF123.8684
aF116.5235
aF123.4531
aF121.6514
aF125.4118
aF122.7947
aF127.9857
aF131.063
aF114.6925
aa(lp123
F132.7884
aF139.8872
aF130.1482
aF128.7548
aF136.2424
aF130.82
aF140.3126
aF131.3312
aF128.2528
aF138.856
aa(lp124
F139.71
aF138.2844
aF146.5596
aF144.0816
aF137.7854
aF133.4397
aF137.5324
aF140.6211
aF129.9976
aF126.5214
aa(lp125
F142.2215
aF139.295
aF151.2032
aF150.2816
aF134.1445
aF148.1999
aF141.2074
aF148.2692
aF144.2475
aF138.1523
aa(lp126
F146.9984
aF163.4858
aF168.4221
aF153.8807
aF162.9956
aF157.52
aF163.9583
aF142.294
aF160.76
aF156.6246
aa(lp127
F163.7314
aF182.6956
aF164.1863
aF162.7075
aF160.3472
aF164.573
aF162.976
aF163.8092
aF148.84
aF167.0059
aa(lp128
F189.653
aF177.4224
aF191.355
aF181.13
aF185.339
aF180.9458
aF206.6476
aF175.703
aF155.1984
aF186.0245
aa(lp129
F269.9402
aF225.9094
aF201.5136
aF192.938
aF228.2342
aF207.526
aF205.5324
aF191.8625
aF202.5088
aF191.3036
aa(lp130
F208.1449
aF250.4386
aF261.5756
aF234.7999
aF226.8896
aF257.4698
aF226.668
aF213.4965
aF215.957
aF192.5196
aa(lp131
F332.9096
aF224.7982
aF293.3307
aF282.455
aF263.5856
aF222.8408
aF269.0728
aF240.8034
aF244.294
aF247.5412
aa(lp132
F256.0646
aF266.0462
aF289.8707
aF251.906
aF297.4588
aF274.8518
aF369.1698
aF310.3708
aF355.1192
aF296.2136
aasS'random_99.99'
p133
(lp134
(lp135
F127.8817115
aF146.6948339
aF129.7085281
aF121.7453259
aF116.9708043
aF130.9964008
aF116.248881
aF107.3777612
aF134.8040228
aF126.0678933
aa(lp136
F155.0499954
aF128.7396257
aF123.1651823
aF127.3637636
aF158.1686843
aF136.985802
aF132.837216
aF114.4940499
aF140.0334955
aF141.1303931
aa(lp137
F137.1017886
aF145.1789832
aF173.8241184
aF140.0294976
aF141.1933822
aF160.6404347
aF155.0749912
aF135.0619941
aF134.2540747
aF124.7160313
aa(lp138
F138.6156372
aF128.7686225
aF152.0352951
aF132.6512337
aF172.0222961
aF145.1219883
aF155.2309757
aF134.4180574
aF160.683431
aF160.0924894
aa(lp139
F152.1512839
aF171.0683923
aF153.499152
aF181.6893295
aF138.9886014
aF147.9167089
aF146.4908495
aF160.5804411
aF145.4209568
aF135.455954
aa(lp140
F158.3706635
aF136.4688522
aF186.7598223
aF146.8688134
aF159.7265275
aF153.9831028
aF180.465453
aF274.8720103
aF197.7347267
aF155.3189672
aa(lp141
F212.6842316
aF203.3401643
aF143.4841507
aF178.6046387
aF149.8885097
aF166.543844
aF172.2132772
aF230.243475
aF190.210479
aF175.1369848
aa(lp142
F172.9182072
aF177.7577234
aF190.0004991
aF180.0614925
aF182.4312551
aF166.2398747
aF203.9691012
aF175.0659917
aF176.367862
aF158.055693
aa(lp143
F191.4243557
aF162.7782207
aF186.0968896
aF181.3593624
aF189.5365446
aF182.18928
aF185.4349559
aF179.4985499
aF189.8285166
aF173.4241562
aa(lp144
F203.9461053
aF207.6757308
aF199.5005494
aF205.9889008
aF191.1403847
aF191.6513333
aF185.3989586
aF190.9674014
aF243.5291459
aF178.3556631
aa(lp145
F194.3010693
aF219.2495734
aF207.1667839
aF189.9815002
aF267.5387441
aF215.8309179
aF253.4001578
aF218.7736208
aF183.7151277
aF269.7135268
aa(lp146
F223.5881391
aF242.939204
aF207.9926987
aF229.2415736
aF207.9097072
aF201.7123275
aF216.9558025
aF227.6037401
aF213.842114
aF188.5346475
aa(lp147
F227.7227261
aF208.4296553
aF246.4898491
aF263.2111764
aF204.8350152
aF240.4264555
aF227.1037888
aF238.4076579
aF207.4157565
aF221.6833295
aa(lp148
F251.3533622
aF253.6601315
aF276.0308946
aF234.8690122
aF223.5721423
aF240.0614949
aF283.7621212
aF225.4249553
aF268.4346558
aF244.668031
aa(lp149
F247.8437134
aF252.2712709
aF256.2818701
aF233.5641414
aF221.8813101
aF247.391759
aF278.0106963
aF236.544844
aF234.7680235
aF231.1633816
aa(lp150
F305.9529017
aF265.3549624
aF356.5688398
aF256.4198562
aF260.9104069
aF288.9716
aF342.2932673
aF266.7278256
aF211.4063573
aF289.9715002
aa(lp151
F412.0872888
aF364.9250041
aF299.1625819
aF303.0441932
aF326.2738714
aF285.4399537
aF318.0866894
aF307.3377635
aF385.6579309
aF275.6149358
aa(lp152
F334.6310362
aF352.1632808
aF357.9936989
aF364.4080561
aF339.6935277
aF341.4283541
aF333.8661104
aF356.6568325
aF313.0651906
aF303.1801804
aa(lp153
F472.6402319
aF318.2436725
aF396.0348965
aF377.1287837
aF331.2313757
aF314.37006
aF365.187978
aF333.9980975
aF330.7144265
aF433.7651212
aa(lp154
F340.1304839
aF350.8834095
aF409.7725196
aF366.0608908
aF416.0138945
aF399.5815382
aF575.7339217
aF414.0500914
aF483.584137
aF458.9795975
aasS'random_95'
p155
(lp156
(lp157
F64.0798195
aF62.8173558
aF63.2707168
aF63.1997144
aF62.6940507
aF62.2677648
aF63.055585
aF63.9959656
aF62.3782696
aF62.7740657
aa(lp158
F63.912055
aF65.4079583
aF63.9466876
aF63.5509376
aF64.8960713
aF64.41
aF64.762416
aF63.8717376
aF64.178719
aF64.7820772
aa(lp159
F65.4960006
aF65.7738112
aF65.0559696
aF66.4009104
aF65.5873566
aF65.9878454
aF66.5680976
aF64.9341813
aF66.0084907
aF66.3446814
aa(lp160
F67.0979316
aF66.29938
aF66.9968584
aF68.0920546
aF66.2532013
aF67.4271118
aF68.5708133
aF68.2554862
aF67.783208
aF66.113764
aa(lp161
F69.0494672
aF68.2335139
aF68.316176
aF69.5169955
aF68.0966088
aF68.9440903
aF69.384775
aF68.3939586
aF70.1494048
aF69.051814
aa(lp162
F70.477182
aF71.071695
aF71.1496503
aF71.7933262
aF71.79631
aF71.2589512
aF71.86707
aF70.9378371
aF70.2996671
aF71.6915008
aa(lp163
F71.583722
aF72.4840514
aF72.0079134
aF74.1764192
aF71.1772001
aF72.93598
aF73.2644696
aF72.163025
aF71.935373
aF73.0117544
aa(lp164
F76.5275352
aF75.0137832
aF76.0164542
aF74.47376
aF75.802151
aF74.8094237
aF74.5672048
aF74.8020632
aF74.019726
aF75.10706
aa(lp165
F79.1856697
aF76.1340844
aF78.1045744
aF77.1211464
aF80.206755
aF76.84388
aF78.812369
aF78.654422
aF77.375511
aF77.8187474
aa(lp166
F79.9225455
aF79.3311564
aF81.0463954
aF80.4693968
aF82.259495
aF83.776474
aF81.0294596
aF79.6919776
aF83.2773021
aF80.1767984
aa(lp167
F83.6321971
aF84.5619658
aF82.1099893
aF81.9426682
aF85.2702863
aF84.4472707
aF85.491728
aF84.6832784
aF86.5434326
aF84.4276
aa(lp168
F90.5864235
aF87.146792
aF87.3420728
aF90.1978936
aF87.9386736
aF88.5954525
aF88.308175
aF87.8115681
aF88.86029
aF84.9164325
aa(lp169
F90.4709543
aF92.1800395
aF90.6199405
aF90.3996452
aF89.7625368
aF88.540886
aF92.0596928
aF95.1805323
aF92.007563
aF88.9298465
aa(lp170
F93.4989776
aF98.6299025
aF97.2436762
aF95.5169686
aF97.1472055
aF97.7851246
aF97.0577976
aF96.3973262
aF99.5683338
aF98.912542
aa(lp171
F102.4155526
aF103.1053397
aF100.9288283
aF103.407273
aF101.7843338
aF102.672989
aF102.5844238
aF100.132848
aF96.702235
aF102.6908696
aa(lp172
F108.9294299
aF106.55164
aF112.3460906
aF111.1641236
aF112.7775441
aF108.6316
aF113.9903537
aF106.828416
aF107.6767898
aF111.6767514
aa(lp173
F118.6816704
aF120.18888
aF116.9174524
aF118.3612604
aF123.4460196
aF119.2656262
aF115.3192438
aF116.9687595
aF113.7303496
aF116.7210176
aa(lp174
F124.1571732
aF133.5364784
aF133.6905095
aF125.6327284
aF136.3493052
aF137.6351378
aF126.0038384
aF124.234825
aF127.3461274
aF120.2071148
aa(lp175
F160.5567006
aF139.45763
aF159.5369285
aF143.819799
aF141.9778114
aF138.13582
aF149.200066
aF142.3081325
aF144.882609
aF140.731402
aa(lp176
F159.17706
aF158.6294105
aF170.8571988
aF151.2111508
aF147.964929
aF160.6008774
aF173.0465152
aF164.3030884
aF162.47127
aF168.358195
aasS'random_50'
p177
(lp178
(lp179
F38.5443165
aF38.055013
aF38.1523102
aF37.4349757
aF37.8507924
aF37.8757136
aF37.626432
aF37.9996524
aF37.81243
aF38.0400776
aa(lp180
F38.3442166
aF38.5186044
aF37.8886591
aF38.478554
aF38.5377516
aF38.370346
aF38.222832
aF38.2704038
aF38.088025
aF38.1669808
aa(lp181
F38.425842
aF38.6232696
aF38.6869104
aF38.4914496
aF38.4879346
aF38.6707439
aF38.5616768
aF38.4281571
aF38.7619583
aF38.4097356
aa(lp182
F39.1162284
aF38.9822375
aF39.0281386
aF38.8444613
aF39.2095872
aF38.8012087
aF39.1682582
aF39.1475788
aF39.10511
aF38.892661
aa(lp183
F39.3229452
aF39.3527236
aF39.273488
aF39.2650995
aF39.3432132
aF39.4329688
aF39.6262735
aF39.2832567
aF39.75992
aF39.293888
aa(lp184
F39.620144
aF39.7930788
aF39.8658286
aF40.0011556
aF39.8455975
aF39.7066816
aF39.791154
aF39.818713
aF39.7707599
aF39.882096
aa(lp185
F40.0988276
aF40.2708746
aF40.3761122
aF40.4434133
aF40.2259193
aF40.187768
aF40.3874448
aF40.222575
aF40.097774
aF40.4446616
aa(lp186
F40.8932136
aF41.0479876
aF40.9387478
aF40.7368075
aF41.1286164
aF40.6237877
aF40.9382328
aF41.0916126
aF40.514936
aF40.696924
aa(lp187
F41.9716469
aF41.1040384
aF41.4853456
aF41.5813824
aF41.9856216
aF41.31528
aF41.6234789
aF41.7998108
aF41.9058664
aF41.5372022
aa(lp188
F42.1027208
aF41.7520596
aF42.7092628
aF42.1603216
aF42.5902907
aF42.5790671
aF42.4569464
aF41.918221
aF42.5583534
aF42.2089874
aa(lp189
F43.2340833
aF42.9729352
aF42.7694587
aF42.834091
aF43.2871022
aF43.3582578
aF43.632621
aF43.271768
aF43.1316159
aF43.261774
aa(lp190
F44.5473681
aF44.052236
aF43.8363869
aF44.2910528
aF43.964176
aF44.076585
aF43.8146225
aF44.0931245
aF44.414882
aF43.4030775
aa(lp191
F44.8094593
aF44.9803355
aF44.9505886
aF44.8726384
aF45.0365544
aF44.55976
aF45.216272
aF45.9287013
aF45.2248345
aF44.570333
aa(lp192
F45.6770078
aF46.1076305
aF46.746316
aF46.5759424
aF46.765207
aF46.5205015
aF46.2347452
aF46.6203936
aF47.2224084
aF46.636153
aa(lp193
F47.9407088
aF47.4895938
aF46.974933
aF47.9980266
aF48.3404202
aF48.324667
aF48.3046682
aF47.38348
aF46.3837
aF48.4745648
aa(lp194
F49.9066636
aF49.1908072
aF50.4641386
aF50.2406962
aF50.8678352
aF49.7016
aF50.7078085
aF49.5850032
aF49.9185152
aF50.60168
aa(lp195
F52.0781472
aF52.3006126
aF52.3447229
aF51.653642
aF53.0201284
aF52.7958952
aF51.3203774
aF52.050994
aF50.7640582
aF52.1187722
aa(lp196
F55.3287588
aF55.8349088
aF56.5223049
aF54.8591893
aF56.6182866
aF56.144768
aF54.2058416
aF53.477815
aF54.7899904
aF53.5006696
aa(lp197
F61.2680243
aF58.695335
aF62.6384555
aF59.8598262
aF58.1333604
aF58.9913
aF60.225726
aF59.22932
aF58.953716
aF59.8191064
aa(lp198
F64.0583682
aF64.4740695
aF65.7296
aF61.8408808
aF60.3691085
aF64.8665506
aF66.7096423
aF64.9770076
aF65.022202
aF68.1548775
aasS'random_x'
p199
(lp200
(lp201
I5
aI5
aI5
aI5
aI5
aI5
aI5
aI5
aI5
aI5
aa(lp202
I10
aI10
aI10
aI10
aI10
aI10
aI10
aI10
aI10
aI10
aa(lp203
I15
aI15
aI15
aI15
aI15
aI15
aI15
aI15
aI15
aI15
aa(lp204
I20
aI20
aI20
aI20
aI20
aI20
aI20
aI20
aI20
aI20
aa(lp205
I25
aI25
aI25
aI25
aI25
aI25
aI25
aI25
aI25
aI25
aa(lp206
I30
aI30
aI30
aI30
aI30
aI30
aI30
aI30
aI30
aI30
aa(lp207
I35
aI35
aI35
aI35
aI35
aI35
aI35
aI35
aI35
aI35
aa(lp208
I40
aI40
aI40
aI40
aI40
aI40
aI40
aI40
aI40
aI40
aa(lp209
I45
aI45
aI45
aI45
aI45
aI45
aI45
aI45
aI45
aI45
aa(lp210
I50
aI50
aI50
aI50
aI50
aI50
aI50
aI50
aI50
aI50
aa(lp211
I55
aI55
aI55
aI55
aI55
aI55
aI55
aI55
aI55
aI55
aa(lp212
I60
aI60
aI60
aI60
aI60
aI60
aI60
aI60
aI60
aI60
aa(lp213
I65
aI65
aI65
aI65
aI65
aI65
aI65
aI65
aI65
aI65
aa(lp214
I70
aI70
aI70
aI70
aI70
aI70
aI70
aI70
aI70
aI70
aa(lp215
I75
aI75
aI75
aI75
aI75
aI75
aI75
aI75
aI75
aI75
aa(lp216
I80
aI80
aI80
aI80
aI80
aI80
aI80
aI80
aI80
aI80
aa(lp217
I85
aI85
aI85
aI85
aI85
aI85
aI85
aI85
aI85
aI85
aa(lp218
I90
aI90
aI90
aI90
aI90
aI90
aI90
aI90
aI90
aI90
aa(lp219
I95
aI95
aI95
aI95
aI95
aI95
aI95
aI95
aI95
aI95
aa(lp220
I100
aI100
aI100
aI100
aI100
aI100
aI100
aI100
aI100
aI100
aasS'random_soj_50'
p221
(lp222
(lp223
F30.9255
aF31.096
aF33.7064
aF29.4376
aF28.456
aF30.5584
aF29.0096
aF28.8502
aF29.9975
aF30.3704
aa(lp224
F32.7625
aF30.4552
aF31.9951
aF30.709
aF32.5688
aF31.5335
aF31.7594
aF32.0382
aF30.97
aF31.0224
aa(lp225
F36.119
aF31.8464
aF32.916
aF31.2774
aF32.027
aF32.9027
aF32.5028
aF32.2314
aF31.3711
aF31.486
aa(lp226
F31.8065
aF33.2735
aF32.3052
aF31.51
aF33.4672
aF32.0032
aF32.288
aF31.9076
aF32.813
aF32.531
aa(lp227
F38.5808
aF33.3316
aF32.2108
aF33.1155
aF32.1572
aF32.692
aF34.364
aF34.7405
aF31.73
aF32.0684
aa(lp228
F32.5232
aF33.5768
aF34.729
aF35.0852
aF33.5877
aF33.8672
aF34.3336
aF36.218
aF35.4707
aF34.0
aa(lp229
F36.2465
aF35.226
aF32.8386
aF34.7986
aF39.2771
aF33.7496
aF35.0472
aF35.7911
aF34.5464
aF34.9952
aa(lp230
F33.8495
aF34.8298
aF34.9068
aF35.2068
aF35.3364
aF33.2752
aF35.5214
aF35.5568
aF34.8368
aF34.6164
aa(lp231
F36.5297
aF34.5152
aF35.4114
aF35.9026
aF36.2624
aF35.3252
aF35.8408
aF35.566
aF35.938
aF34.9322
aa(lp232
F37.62
aF37.2714
aF36.977
aF36.9704
aF36.9002
aF36.8054
aF36.7628
aF39.3405
aF38.054
aF36.117
aa(lp233
F38.7173
aF37.9592
aF37.2991
aF36.902
aF38.8256
aF37.724
aF38.899
aF38.294
aF36.7817
aF38.9575
aa(lp234
F39.371
aF39.7892
aF39.8166
aF39.3392
aF38.984
aF38.1662
aF38.3242
aF38.8715
aF39.3434
aF37.2014
aa(lp235
F39.8465
aF39.3875
aF40.2302
aF40.2032
aF39.6519
aF40.784
aF40.114
aF40.7612
aF39.7725
aF40.9722
aa(lp236
F40.6616
aF41.6966
aF42.114
aF41.3408
aF42.436
aF41.1825
aF42.1229
aF40.872
aF42.8072
aF41.6507
aa(lp237
F44.4264
aF43.9986
aF41.907
aF42.4319
aF43.3616
aF43.4205
aF43.857
aF43.796
aF41.0
aF43.2478
aa(lp238
F45.284
aF44.3704
aF47.0225
aF46.0172
aF47.112
aF44.9796
aF46.734
aF44.8502
aF43.2976
aF45.8
aa(lp239
F48.6968
aF48.4934
aF47.3167
aF46.4725
aF48.9236
aF49.6448
aF47.0036
aF47.79
aF47.7912
aF48.8732
aa(lp240
F50.9326
aF51.7016
aF52.2716
aF52.2967
aF51.8768
aF52.272
aF50.1792
aF49.5094
aF51.056
aF48.5768
aa(lp241
F59.8568
aF53.1634
aF58.1753
aF56.4426
aF55.7936
aF53.511
aF55.8956
aF54.6048
aF54.3488
aF55.8644
aa(lp242
F59.0934
aF59.6642
aF63.05
aF56.942
aF56.5901
aF60.5222
aF63.5902
aF61.0012
aF61.6808
aF64.2566
aas.