(dp0
S'random_99.9'
p1
(lp2
(lp3
F120.926878
aF113.608124
aF104.7452434
aF102.4350664
aF108.5038064
aF112.890388
aF102.8013088
aF100.2807104
aF112.0941344
aF100.7789256
aa(lp4
F109.0808872
aF106.7244089
aF108.508213
aF112.583698
aF109.176448
aF108.8835648
aF108.5594176
aF107.0877938
aF107.3479585
aF120.9017528
aa(lp5
F101.8711604
aF107.6415224
aF109.1869573
aF111.242356
aF106.88064
aF111.7499992
aF113.5462064
aF105.6623119
aF106.201342
aF107.702819
aa(lp6
F110.0713808
aF121.4102752
aF115.642576
aF114.242234
aF122.052732
aF110.9822
aF122.9078308
aF104.48207
aF107.0463038
aF121.8951792
aa(lp7
F123.4144912
aF122.620484
aF116.8550712
aF123.5613055
aF113.5560212
aF122.47068
aF117.3345728
aF120.5412896
aF119.934704
aF123.5822134
aa(lp8
F123.9941525
aF123.4200569
aF126.7337916
aF120.4153733
aF124.8427995
aF130.7324023
aF122.216973
aF122.1180344
aF126.0478416
aF116.8955592
aa(lp9
F124.443927
aF131.3326406
aF125.8707376
aF129.4428392
aF138.6726576
aF133.2172544
aF121.2495892
aF127.3983729
aF128.8683767
aF127.6201696
aa(lp10
F139.900364
aF124.8104451
aF141.592279
aF132.3480156
aF134.810009
aF129.1275078
aF128.4800304
aF135.8782354
aF127.6304024
aF133.0258101
aa(lp11
F150.2125286
aF133.3631192
aF142.0562642
aF136.962933
aF135.2240465
aF137.296175
aF135.3529904
aF140.868615
aF147.7901936
aF134.6776445
aa(lp12
F133.5939998
aF141.0340132
aF144.5664614
aF147.9127008
aF147.7610882
aF141.267238
aF153.9222928
aF144.8099357
aF141.006405
aF147.4988352
aa(lp13
F152.3424043
aF153.9089975
aF145.5981052
aF157.0760856
aF154.969487
aF158.865727
aF148.4865318
aF148.3044955
aF155.9488132
aF170.1682826
aa(lp14
F161.9638322
aF149.4101217
aF157.0037323
aF160.097579
aF163.6094348
aF159.6470629
aF166.708433
aF156.1180726
aF159.645662
aF151.1346936
aa(lp15
F167.1817477
aF158.5570099
aF172.835657
aF168.0983735
aF170.029088
aF167.7616625
aF163.8169109
aF169.7856447
aF167.3439728
aF184.251519
aa(lp16
F166.1933156
aF186.5935186
aF188.7659205
aF193.9284362
aF176.4289485
aF173.780164
aF181.8149254
aF177.5979657
aF188.9323962
aF183.2938435
aa(lp17
F205.2372
aF204.20486
aF191.3593448
aF191.78465
aF180.637797
aF189.84488
aF194.8625425
aF188.033434
aF192.1853211
aF187.28772
aa(lp18
F196.5287552
aF217.0290437
aF211.175278
aF222.6862946
aF226.8973267
aF211.0471048
aF252.8731098
aF212.616773
aF242.5307776
aF220.0688376
aa(lp19
F235.66426
aF211.7486146
aF224.6111245
aF220.9672118
aF207.1959995
aF243.957627
aF251.4606809
aF250.4323122
aF231.5150224
aF243.0905456
aa(lp20
F253.724951
aF251.6187862
aF255.5397692
aF268.8219534
aF269.0257114
aF0.0
aF311.8183496
aF255.538187
aF294.6234125
aF227.368916
aa(lp21
F359.977072
aF262.0079597
aF265.9165761
aF323.0927278
aF311.5011006
aF297.3706488
aF355.1027749
aF255.0273208
aF297.6660708
aF397.7257704
aa(lp22
F407.525068
aF315.4881619
aF369.91944
aF353.3355625
aF373.6948799
aF333.080989
aF440.0878287
aF320.6667888
aF499.647172
aF321.8569676
aasS'random_99'
p23
(lp24
(lp25
F82.5580798
aF81.10946
aF77.4801237
aF79.5698086
aF82.2836712
aF80.5012478
aF82.0239016
aF79.329565
aF80.2893158
aF82.337823
aa(lp26
F82.7352536
aF80.4416012
aF84.1745634
aF79.6412176
aF81.4746336
aF81.5324244
aF79.032376
aF81.2021879
aF81.3973543
aF82.2861648
aa(lp27
F83.1096125
aF84.3933744
aF86.0234911
aF83.902568
aF85.1695575
aF83.4620062
aF83.1228548
aF83.1945026
aF82.5557915
aF86.859032
aa(lp28
F86.7182576
aF86.0057522
aF87.555428
aF86.014196
aF88.2623562
aF86.206802
aF87.3582622
aF85.1828252
aF85.0841924
aF86.0454224
aa(lp29
F92.8214296
aF88.898872
aF90.5034744
aF90.7364209
aF89.3623904
aF90.1316928
aF91.8860032
aF89.497775
aF89.4509408
aF88.8388646
aa(lp30
F93.235781
aF94.678355
aF94.4745866
aF92.9881973
aF91.6507769
aF94.3963609
aF91.330163
aF92.8131884
aF90.9968744
aF91.5158747
aa(lp31
F94.4209746
aF97.1706974
aF96.071774
aF96.1851542
aF94.8173888
aF97.3057052
aF94.2864946
aF94.9517495
aF95.4317864
aF95.9591332
aa(lp32
F98.0337752
aF96.718407
aF99.8804724
aF96.2236468
aF102.9268214
aF98.9533066
aF98.8521596
aF101.8194814
aF101.1813512
aF98.7337589
aa(lp33
F101.914296
aF100.143518
aF104.7002756
aF101.7437118
aF101.6511719
aF101.679475
aF103.7040728
aF102.94098
aF105.7906862
aF102.2092934
aa(lp34
F104.2576148
aF104.4660718
aF105.2030734
aF108.4567188
aF108.1871993
aF105.973147
aF111.375352
aF107.4698051
aF104.9596852
aF109.6041903
aa(lp35
F114.9845962
aF115.280875
aF109.9057037
aF114.1423971
aF114.8964749
aF115.93289
aF111.6498074
aF110.1674735
aF114.1275412
aF116.5992812
aa(lp36
F121.4332652
aF117.5885424
aF119.1388648
aF118.279782
aF121.4658564
aF117.0231369
aF120.654579
aF116.8241152
aF119.3592674
aF115.7242116
aa(lp37
F123.8452614
aF119.332849
aF125.9833515
aF126.1628657
aF123.315176
aF124.7713247
aF121.7209973
aF125.5372418
aF125.4645365
aF129.60492
aa(lp38
F127.631503
aF131.3396332
aF132.2419215
aF135.5065364
aF132.4168466
aF128.299312
aF129.3327901
aF135.4814706
aF132.8793091
aF132.3208246
aa(lp39
F145.696377
aF148.4015666
aF133.7871096
aF142.7154184
aF137.623995
aF142.0745482
aF142.800075
aF136.096088
aF143.2649003
aF140.0145
aa(lp40
F144.601664
aF160.6257792
aF154.44346
aF154.1061524
aF159.5442958
aF150.1073936
aF167.9061023
aF147.1376369
aF166.0302844
aF148.7832792
aa(lp41
F164.6280579
aF159.5017619
aF164.0604826
aF166.4805441
aF156.2134994
aF169.0629102
aF176.2370318
aF172.3865469
aF170.9729632
aF176.9924176
aa(lp42
F177.5859781
aF182.4307528
aF179.6052092
aF184.8916023
aF178.5553615
aF0.0
aF208.1853224
aF175.5784842
aF193.9360872
aF167.2711075
aa(lp43
F225.8385871
aF191.9306412
aF205.330512
aF220.4490352
aF199.1971606
aF207.0831264
aF207.6982381
aF195.5987508
aF212.4834824
aF232.061979
aa(lp44
F276.9221424
aF229.2846508
aF238.844672
aF250.4161875
aF273.7575081
aF233.772829
aF273.9594838
aF244.5969216
aF365.993182
aF241.0225211
aasS'random_soj_95'
p45
(lp46
(lp47
F50.4127
aF50.854
aF51.3647
aF51.8468
aF48.7658
aF48.9022
aF48.0928
aF46.4876
aF48.953
aF49.3874
aa(lp48
F51.1671
aF51.0358
aF51.569
aF49.4664
aF55.6937
aF50.0715
aF51.216
aF49.1094
aF52.0106
aF50.8762
aa(lp49
F51.4607
aF47.823
aF52.424
aF50.8874
aF55.8068
aF52.9508
aF53.3
aF52.2512
aF57.811
aF51.86
aa(lp50
F56.1926
aF57.0428
aF67.775
aF53.2325
aF57.7904
aF55.4738
aF57.3366
aF53.6685
aF52.9467
aF56.7716
aa(lp51
F54.7313
aF57.5952
aF57.7799
aF59.69
aF55.949
aF58.1102
aF62.2797
aF58.4711
aF57.353
aF57.0421
aa(lp52
F61.0852
aF61.3625
aF62.3342
aF56.5456
aF57.1397
aF64.2222
aF64.133
aF58.312
aF58.6393
aF59.3114
aa(lp53
F59.2163
aF63.6866
aF61.6979
aF62.2964
aF61.6904
aF61.1393
aF60.1502
aF61.5355
aF61.742
aF62.3254
aa(lp54
F65.277
aF65.0138
aF66.2148
aF62.5358
aF64.6894
aF62.1389
aF62.512
aF66.3377
aF64.563
aF64.5972
aa(lp55
F68.27
aF65.3744
aF70.4975
aF65.6632
aF65.42
aF65.3925
aF66.462
aF64.943
aF66.5216
aF68.1297
aa(lp56
F67.647
aF67.4416
aF69.2096
aF70.6884
aF72.1968
aF69.2712
aF70.8648
aF72.0208
aF69.6282
aF74.2415
aa(lp57
F75.278
aF76.5819
aF71.198
aF72.9005
aF76.058
aF78.8733
aF73.046
aF72.7352
aF70.152
aF76.3195
aa(lp58
F79.1096
aF77.5412
aF75.8663
aF78.44
aF79.776
aF78.8738
aF79.3904
aF74.4725
aF79.3424
aF75.3988
aa(lp59
F83.8975
aF78.5765
aF81.8757
aF83.155
aF81.7002
aF83.2292
aF78.6698
aF82.0614
aF84.6199
aF83.3972
aa(lp60
F82.8302
aF89.9546
aF86.184
aF88.4252
aF86.22
aF81.8342
aF88.2416
aF89.2155
aF87.1513
aF87.956
aa(lp61
F93.7099
aF96.8528
aF90.3335
aF92.344
aF91.8287
aF94.3925
aF94.1854
aF93.956
aF94.9668
aF91.7422
aa(lp62
F95.616
aF104.096
aF100.1552
aF100.2803
aF104.457
aF101.7091
aF107.9216
aF99.615
aF109.6808
aF98.6803
aa(lp63
F107.1548
aF105.0782
aF110.2238
aF111.2656
aF105.9665
aF109.0744
aF117.1266
aF113.1276
aF120.2816
aF114.9176
aa(lp64
F121.802
aF117.7245
aF118.2308
aF126.2146
aF116.734
aF0.0
aF139.5203
aF123.0518
aF130.5815
aF116.8116
aa(lp65
F145.4686
aF129.1136
aF137.8184
aF148.8494
aF135.8609
aF134.5553
aF140.2221
aF134.195
aF144.5222
aF148.7968
aa(lp66
F178.3963
aF150.8816
aF157.5952
aF161.6996
aF173.5472
aF155.2951
aF160.1432
aF164.3408
aF216.4042
aF160.5488
aasS'random_soj_99.99'
p67
(lp68
(lp69
F107.9897
aF105.9899
aF115.9889
aF95.9909
aF97.9907
aF101.9903
aF96.9908
aF88.9916
aF95.9909
aF91.9913
aa(lp70
F105.9899
aF110.9894
aF99.9905
aF92.9912
aF115.9889
aF113.9891
aF113.9891
aF90.9914
aF121.9883
aF107.9897
aa(lp71
F121.9883
aF89.9915
aF100.9904
aF121.9883
aF103.9901
aF128.9876
aF109.9895
aF100.9904
aF114.989
aF104.99
aa(lp72
F127.9877
aF128.9876
aF154.985
aF113.9891
aF145.9859
aF121.9883
aF155.9849
aF113.9891
aF111.9893
aF150.9854
aa(lp73
F117.9887
aF132.9872
aF135.9869
aF154.985
aF115.9889
aF147.9857
aF141.9863
aF141.9863
aF130.9874
aF125.9879
aa(lp74
F128.9876
aF139.9865
aF158.9846
aF132.9872
aF127.9877
aF155.9849
aF142.9862
aF144.986
aF125.9879
aF121.9883
aa(lp75
F131.9873
aF161.9843
aF151.9853
aF137.9867
aF160.9844
aF151.9853
aF130.9874
aF149.9855
aF144.986
aF146.9858
aa(lp76
F162.9842
aF130.9874
aF176.9828
aF137.9867
aF153.9851
aF151.9853
aF134.987
aF175.9829
aF138.9866
aF150.9854
aa(lp77
F184.982
aF156.9848
aF229.9775
aF156.9848
aF154.985
aF149.9855
aF162.9842
aF163.9841
aF172.9832
aF161.9843
aa(lp78
F162.9842
aF156.9848
aF160.9844
aF198.9806
aF180.9824
aF165.9839
aF171.9833
aF191.9813
aF186.9818
aF227.9777
aa(lp79
F225.9779
aF225.9779
aF169.9835
aF195.9809
aF199.9805
aF183.9821
aF169.9835
aF173.9831
aF164.984
aF209.9795
aa(lp80
F192.9812
aF187.9817
aF163.9841
aF204.98
aF212.9792
aF290.9714
aF193.9811
aF181.9823
aF196.9808
aF161.9843
aa(lp81
F213.9791
aF185.9819
aF191.9813
aF207.9797
aF182.9822
aF205.9799
aF203.9801
aF218.9786
aF203.9801
aF256.9748
aa(lp82
F217.9787
aF222.9782
aF219.9785
aF232.9772
aF204.98
aF226.9778
aF212.9792
aF219.9785
aF231.9773
aF227.9777
aa(lp83
F267.9737
aF303.9701
aF219.9785
aF216.9788
aF243.9761
aF265.9739
aF293.9711
aF319.9685
aF257.9747
aF222.9782
aa(lp84
F239.9765
aF244.976
aF240.9764
aF247.9757
aF275.9729
aF261.9743
aF306.9698
aF302.9702
aF283.9721
aF263.9741
aa(lp85
F288.9716
aF262.9742
aF302.9702
aF260.9744
aF281.9723
aF338.9666
aF365.9639
aF296.9708
aF333.9671
aF316.9688
aa(lp86
F328.9676
aF305.9699
aF288.9716
aF303.9701
aF326.9678
aF0.0
aF415.9589
aF457.9547
aF391.9613
aF282.9722
aa(lp87
F462.9542
aF342.9662
aF301.9703
aF398.9606
aF463.9541
aF361.9643
aF537.9467
aF301.9703
aF385.9619
aF522.9482
aa(lp88
F543.9461
aF397.9607
aF426.9578
aF406.9598
aF392.9612
aF495.9509
aF513.9491
aF390.9614
aF578.9426
aF400.9604
aasS'random_soj_99'
p89
(lp90
(lp91
F66.0378
aF64.287
aF62.6867
aF66.6343
aF63.5621
aF62.8314
aF62.9048
aF58.13
aF62.7759
aF63.377
aa(lp92
F65.7313
aF63.8088
aF66.0755
aF61.0736
aF71.0672
aF63.0098
aF63.533
aF61.5278
aF66.0857
aF65.0902
aa(lp93
F64.9625
aF61.848
aF67.5056
aF64.1786
aF71.9339
aF68.1036
aF67.3595
aF65.4992
aF72.067
aF67.4
aa(lp94
F72.7361
aF72.0964
aF87.305
aF66.8684
aF74.4002
aF70.4381
aF74.2033
aF68.0347
aF68.3226
aF72.3498
aa(lp95
F72.1107
aF73.9152
aF75.3863
aF77.615
aF72.2216
aF75.4704
aF81.4186
aF75.2125
aF74.2496
aF72.5059
aa(lp96
F78.2344
aF79.925
aF80.8142
aF73.9792
aF73.5233
aF85.0149
aF82.9148
aF75.686
aF75.3857
aF76.5689
aa(lp97
F77.1614
aF83.2802
aF81.734
aF80.6637
aF79.6928
aF81.2783
aF77.2106
aF80.3275
aF79.928
aF81.9356
aa(lp98
F85.4694
aF84.758
aF87.0784
aF80.0918
aF86.5477
aF81.7046
aF80.647
aF88.1231
aF83.5508
aF84.1758
aa(lp99
F89.24
aF85.712
aF93.695
aF85.3928
aF86.435
aF85.4315
aF88.0764
aF86.5352
aF88.2944
aF88.6182
aa(lp100
F87.8552
aF87.9768
aF91.5644
aF93.2506
aF94.5312
aF90.3461
aF96.182
aF94.5917
aF90.9404
aF98.5039
aa(lp101
F101.4886
aF103.345
aF93.9845
aF97.0047
aF100.8815
aF105.777
aF96.6245
aF94.2827
aF95.176
aF103.523
aa(lp102
F105.9936
aF101.9168
aF102.0536
aF103.76
aF107.1904
aF105.7006
aF106.2851
aF99.5888
aF105.6656
aF99.7338
aa(lp103
F110.6286
aF103.283
aF110.1127
aF111.3923
aF108.1866
aF110.3843
aF105.6343
aF111.2724
aF114.1515
aF115.88
aa(lp104
F109.157
aF120.5836
aF115.4455
aF120.9608
aF116.56
aF109.2956
aF119.1712
aF119.767
aF118.9767
aF117.3474
aa(lp105
F130.6614
aF136.2909
aF119.079
aF128.0872
aF123.783
aF128.8706
aF128.981
aF126.086
aF129.7037
aF124.355
aa(lp106
F129.9025
aF144.392
aF138.34
aF138.4556
aF144.3482
aF136.0186
aF151.1982
aF134.9578
aF150.8612
aF134.1374
aa(lp107
F150.4364
aF143.3138
aF150.3644
aF150.7408
aF142.4474
aF156.0014
aF164.4898
aF159.4972
aF162.1962
aF162.4976
aa(lp108
F166.6436
aF165.0116
aF161.7112
aF171.8121
aF164.551
aF0.0
aF199.3619
aF165.2261
aF184.8776
aF154.147
aa(lp109
F212.4282
aF177.6504
aF187.952
aF214.2928
aF187.5443
aF191.4968
aF196.7201
aF178.8341
aF199.2338
aF220.747
aa(lp110
F262.4264
aF216.7484
aF222.4144
aF234.0998
aF255.6092
aF222.1693
aF260.2126
aF228.5712
aF349.1704
aF224.1068
aasS'random_soj_99.9'
p111
(lp112
(lp113
F96.258
aF89.6178
aF84.4094
aF85.5532
aF83.4362
aF87.644
aF78.5264
aF73.1408
aF87.1912
aF77.3144
aa(lp114
F86.3151
aF84.2986
aF84.8475
aF85.828
aF95.021
aF83.7416
aF86.8808
aF80.7316
aF86.8415
aF95.1147
aa(lp115
F79.3652
aF78.508
aF85.3808
aF84.6887
aF90.0608
aF90.8576
aF91.646
aF82.8848
aF92.516
aF83.3
aa(lp116
F92.0963
aF101.4224
aF115.31
aF88.4286
aF102.572
aF90.41
aF104.0862
aF83.2075
aF85.6887
aF102.1484
aa(lp117
F95.4904
aF101.6144
aF97.0799
aF105.425
aF91.5023
aF102.24
aF103.8044
aF101.0096
aF99.248
aF100.4811
aa(lp118
F103.766
aF103.9415
aF108.1492
aF95.4832
aF99.7715
aF117.5403
aF110.7908
aF99.276
aF104.0748
aF97.5704
aa(lp119
F101.393
aF112.2938
aF106.8416
aF108.2612
aF116.1656
aF110.9576
aF99.0212
aF107.5005
aF107.634
aF108.7168
aa(lp120
F121.683
aF109.1894
aF123.164
aF109.8306
aF113.0995
aF106.3418
aF104.528
aF117.3641
aF105.1516
aF113.1422
aa(lp121
F131.234
aF113.8928
aF126.9275
aF114.668
aF114.725
aF115.0695
aF114.7152
aF118.1126
aF123.0032
aF116.5485
aa(lp122
F112.3452
aF118.4832
aF125.5724
aF126.9096
aF128.8688
aF120.1794
aF132.6548
aF127.2419
aF121.935
aF132.3776
aa(lp123
F134.2629
aF137.7989
aF124.262
aF133.1992
aF135.845
aF144.7811
aF128.2715
aF126.6631
aF129.736
aF150.8165
aa(lp124
F141.1496
aF129.3119
aF134.2511
aF140.22
aF144.1728
aF144.0246
aF146.6177
aF132.8294
aF141.128
aF130.0348
aa(lp125
F149.1473
aF137.0033
aF150.8226
aF148.2165
aF148.9308
aF148.2125
aF141.9319
aF150.2846
aF152.1008
aF164.516
aa(lp126
F141.9164
aF171.1378
aF164.5085
aF172.8764
aF155.1
aF147.7682
aF167.3648
aF156.8115
aF168.9394
aF162.3265
aa(lp127
F183.84
aF187.39
aF170.077
aF171.95
aF162.3098
aF172.04
aF175.8279
aF174.0605
aF173.8269
aF166.1456
aa(lp128
F176.362
aF194.912
aF188.962
aF199.8374
aF205.0793
aF191.0423
aF227.4532
aF194.826
aF220.1648
aF198.1622
aa(lp129
F215.16
aF190.0892
aF205.703
aF199.9184
aF188.7895
aF224.939
aF234.5599
aF231.5336
aF219.5409
aF223.0256
aa(lp130
F237.956
aF227.4089
aF229.8712
aF249.6418
aF247.7236
aF0.0
aF298.4951
aF240.3335
aF280.7375
aF209.3856
aa(lp131
F338.424
aF242.3774
aF243.2831
aF314.0142
aF293.1143
aF274.8206
aF336.1529
aF233.0366
aF278.9771
aF378.1672
aa(lp132
F386.073
aF298.1387
aF344.288
aF330.1778
aF348.8068
aF316.4413
aF417.8499
aF299.5566
aF476.5984
aF299.1488
aasS'random_99.99'
p133
(lp134
(lp135
F135.8219227
aF134.613042
aF144.3820679
aF115.0500018
aF127.7057304
aF131.6173381
aF127.3597636
aF122.4042758
aF123.5571458
aF120.1984887
aa(lp136
F134.2630728
aF140.9614031
aF128.1376854
aF122.1162892
aF133.4251632
aF148.7886198
aF142.8422152
aF120.9174077
aF151.2913717
aF137.4607528
aa(lp137
F157.3937591
aF123.6661387
aF129.4145599
aF160.962404
aF123.5641425
aF159.1535842
aF136.5248468
aF129.0605937
aF132.1872805
aF136.1368907
aa(lp138
F153.3651632
aF154.6890298
aF155.433956
aF147.707729
aF174.1250879
aF150.155486
aF184.6480366
aF143.6351356
aF140.3074682
aF180.6494352
aa(lp139
F152.8542136
aF160.814417
aF164.1160872
aF182.0582951
aF144.2820716
aF177.7337249
aF160.7404256
aF169.8515138
aF158.6386352
aF155.2599726
aa(lp140
F154.3790615
aF166.5568439
aF186.7268258
aF168.2496743
aF160.5234461
aF173.6811309
aF157.8897095
aF178.9016084
aF152.8202168
aF146.4038609
aa(lp141
F162.3502647
aF189.8405141
aF179.4495533
aF165.2649722
aF192.5632424
aF182.8602132
aF160.7674234
aF178.1286859
aF173.9461043
aF172.8622126
aa(lp142
F187.6487336
aF149.8745121
aF203.8021183
aF166.5498442
aF183.9051082
aF185.0289963
aF166.2688716
aF204.1550826
aF169.0595924
aF177.8267157
aa(lp143
F212.0292978
aF184.1600822
aF257.8927082
aF187.8717138
aF183.0021989
aF179.255575
aF192.7002284
aF195.9649025
aF208.2686711
aF187.4957491
aa(lp144
F194.2540733
aF187.1857798
aF185.5549434
aF232.3962588
aF207.8217161
aF195.455953
aF199.8005188
aF218.8486139
aF216.6558334
aF254.4470529
aa(lp145
F256.8838093
aF252.7712225
aF199.4965491
aF231.5473437
aF228.4776503
aF202.015297
aF197.0387942
aF204.0370955
aF198.6026383
aF237.1817798
aa(lp146
F221.7193259
aF217.5597431
aF191.9703013
aF234.374061
aF242.0182972
aF323.0811911
aF220.790419
aF214.2220767
aF223.0961882
aF188.4716526
aa(lp147
F240.1224859
aF215.5299457
aF220.2044785
aF236.1568823
aF209.069592
aF233.4121571
aF235.7769211
aF247.6997277
aF224.5960391
aF288.1366857
aa(lp148
F255.7279273
aF243.2531734
aF252.6712305
aF261.5613426
aF233.3911603
aF267.418756
aF231.4883491
aF249.4135563
aF259.6545329
aF257.6937283
aa(lp149
F299.4365535
aF331.5173474
aF247.6937284
aF242.1582836
aF271.8153165
aF293.7901183
aF326.1588825
aF345.993898
aF285.4819493
aF251.57634
aa(lp150
F267.6297344
aF272.9232051
aF269.4675516
aF276.4698503
aF305.5209451
aF289.6055368
aF341.4743497
aF330.8964071
aF312.9642027
aF293.3441628
aa(lp151
F316.6748301
aF293.1591821
aF331.0393933
aF288.6146363
aF309.7095263
aF367.8387138
aF392.5292449
aF321.3283641
aF352.3212656
aF345.6789288
aa(lp152
F350.8964071
aF338.7296242
aF321.3813606
aF327.4087563
aF355.2229747
aF0.0
aF434.6140344
aF487.2187734
aF411.4483511
aF307.4287545
aa(lp153
F492.5552401
aF370.9114061
aF330.1774793
aF410.5284454
aF493.2381722
aF391.7973164
aF568.4336527
aF330.6074364
aF411.9483012
aF550.0884874
aa(lp154
F574.2800676
aF421.2133759
aF458.830614
aF435.5849375
aF421.0423941
aF522.180277
aF541.3633583
aF418.6186352
aF606.9917955
aF431.5273433
aasS'random_95'
p155
(lp156
(lp157
F62.7198157
aF63.87532
aF63.2693817
aF61.6977336
aF62.7627376
aF62.3187594
aF62.3232976
aF63.0798238
aF62.282786
aF63.8276526
aa(lp158
F64.0942312
aF64.0573367
aF65.3701692
aF64.1946724
aF63.6956656
aF64.463127
aF63.455552
aF64.4629067
aF63.7995094
aF64.0050288
aa(lp159
F65.5216139
aF64.8222294
aF66.480094
aF66.185512
aF65.85369
aF64.6238986
aF65.51072
aF66.0738086
aF66.0713195
aF66.4871798
aa(lp160
F66.7627616
aF67.8319294
aF67.96814
aF68.161175
aF68.3399024
aF67.643396
aF67.2931444
aF66.909546
aF65.6389958
aF67.3037808
aa(lp161
F70.0799464
aF69.030547
aF69.1166712
aF69.5790654
aF68.943356
aF69.1597214
aF70.1285664
aF69.3516386
aF68.846744
aF69.6338474
aa(lp162
F72.5758355
aF72.4637175
aF72.6655466
aF70.7525939
aF70.9329821
aF71.1676102
aF70.5197925
aF71.2302128
aF70.5369256
aF70.6607022
aa(lp163
F72.1869957
aF74.1002942
aF72.2919219
aF74.0507624
aF73.1711184
aF72.9377892
aF73.1957782
aF72.5126759
aF73.4842721
aF72.7757338
aa(lp164
F74.689316
aF74.0158677
aF75.7639703
aF74.8979908
aF76.6795508
aF74.9903819
aF76.3530416
aF76.4447138
aF77.931782
aF75.5555126
aa(lp165
F77.796233
aF76.1695016
aF78.6244298
aF78.0082242
aF76.7118308
aF77.598125
aF78.024524
aF77.006575
aF79.4444318
aF78.3918689
aa(lp166
F80.0503655
aF79.8505816
aF79.3279656
aF82.0087032
aF82.4469302
aF81.040624
aF81.8418528
aF81.6567824
aF80.1735966
aF82.4617455
aa(lp167
F85.108426
aF85.2753225
aF83.0440108
aF85.5501465
aF86.4453068
aF86.319281
aF84.2047192
aF84.789236
aF83.8458424
aF85.7860758
aa(lp168
F90.4393022
aF89.2743516
aF88.3421059
aF89.239008
aF90.225566
aF87.1863887
aF89.944816
aF87.1339525
aF89.4552896
aF87.2857416
aa(lp169
F93.7707275
aF90.5937295
aF93.4858865
aF94.006145
aF92.948072
aF93.9105668
aF90.4490878
aF92.4055523
aF92.8745609
aF93.1077873
aa(lp170
F96.6416458
aF97.8632602
aF98.530632
aF98.8934266
aF97.7690217
aF95.835484
aF95.6509018
aF100.7469729
aF97.1744349
aF99.012724
aa(lp171
F104.3240445
aF105.3327872
aF101.3359804
aF102.729568
aF101.9481555
aF103.9218225
aF104.130605
aF101.312048
aF104.7512892
aF103.12314
aa(lp172
F106.2801536
aF115.6371421
aF111.6499488
aF111.4539737
aF115.303483
aF112.1090216
aF119.6852224
aF108.4824575
aF120.5734696
aF109.3051524
aa(lp173
F117.1251303
aF116.7936341
aF120.1392577
aF122.7437187
aF116.0796365
aF118.0807992
aF125.3903406
aF122.1487377
aF126.7213376
aF125.0338376
aa(lp174
F129.7094045
aF129.997371
aF131.1652878
aF135.7199598
aF126.542791
aF0.0
aF145.6274088
aF130.6795196
aF136.9056805
aF126.651401
aa(lp175
F154.5516133
aF139.3818008
aF150.4355704
aF153.0878446
aF144.2170578
aF145.3827844
aF147.9701001
aF146.65566
aF154.0400056
aF156.3439776
aa(lp176
F188.1645308
aF159.5226592
aF169.131776
aF172.860625
aF185.7610296
aF163.326103
aF168.4999016
aF175.7658944
aF226.7401735
aF172.5585176
aasS'random_50'
p177
(lp178
(lp179
F38.0429506
aF38.41285
aF38.2751943
aF38.1505874
aF38.027224
aF38.0838828
aF38.2542988
aF38.0369326
aF38.1831974
aF38.3301231
aa(lp180
F38.3820304
aF38.182436
aF39.053869
aF38.3255152
aF38.8179472
aF38.6219076
aF38.5602032
aF38.4497855
aF38.4779221
aF38.3716968
aa(lp181
F38.8195571
aF38.6562016
aF39.1491943
aF39.204432
aF38.605155
aF39.002839
aF38.743958
aF38.879199
aF38.5463215
aF38.9314312
aa(lp182
F38.9734352
aF39.882566
aF39.279232
aF39.619175
aF39.3694751
aF39.224984
aF39.2343136
aF39.0836952
aF39.2519858
aF39.2176656
aa(lp183
F39.4425256
aF39.781256
aF39.6302528
aF39.6046697
aF39.5405036
aF39.5847502
aF39.6494656
aF39.7424234
aF40.0070144
aF39.714294
aa(lp184
F40.2489215
aF40.4261712
aF40.8606966
aF40.3867919
aF39.8562899
aF40.1284662
aF40.1834405
aF40.0296824
aF40.1722328
aF39.7667687
aa(lp185
F40.1813955
aF40.7702165
aF40.2597807
aF40.6808828
aF40.7955008
aF40.3345848
aF40.5004948
aF40.3603922
aF40.9431539
aF40.2753274
aa(lp186
F41.3166032
aF40.6357461
aF41.3686293
aF40.8415644
aF41.5579474
aF41.6655332
aF41.531826
aF41.2705854
aF41.588948
aF41.4881573
aa(lp187
F41.9193204
aF41.3552162
aF41.8754444
aF42.0941274
aF41.501255
aF42.051125
aF41.7765644
aF41.485225
aF42.5068205
aF41.689309
aa(lp188
F42.4051592
aF41.897905
aF41.9146904
aF42.9620628
aF42.933893
aF42.394261
aF42.606716
aF42.5202194
aF42.2430494
aF42.671121
aa(lp189
F43.6697245
aF43.227905
aF42.8584514
aF43.975836
aF43.8691283
aF43.603177
aF43.6420696
aF43.3281625
aF43.5154213
aF43.2466694
aa(lp190
F44.3384915
aF44.4435495
aF44.2879687
aF44.989677
aF44.7398928
aF44.0535203
aF44.473649
aF43.8436448
aF45.1773356
aF44.0409198
aa(lp191
F45.919534
aF45.8112334
aF45.600549
aF45.6207989
aF45.51988
aF46.3744919
aF44.9605759
aF45.050295
aF45.197447
aF45.4548204
aa(lp192
F46.646682
aF47.3270416
aF47.0348415
aF46.8089046
aF46.356857
aF46.234324
aF46.679656
aF46.799727
aF46.4949059
aF46.7255767
aa(lp193
F48.110676
aF48.5172632
aF47.8656456
aF48.3952956
aF47.753967
aF48.3534317
aF48.117685
aF48.215234
aF48.3693822
aF48.25464
aa(lp194
F49.2312704
aF50.6327147
aF50.3954544
aF50.6386457
aF50.5952833
aF50.7138992
aF51.6106655
aF49.2937511
aF52.1726663
aF50.5061016
aa(lp195
F51.9488694
aF52.2127202
aF53.6541964
aF53.0541078
aF52.0543928
aF52.003629
aF53.1508342
aF52.4864859
aF54.4390512
aF52.6325376
aa(lp196
F56.0265275
aF55.402458
aF55.6104006
aF56.7551385
aF54.8810272
aF0.0
aF57.2471696
aF56.0247428
aF56.2989118
aF55.393003
aa(lp197
F58.9334494
aF58.6190635
aF62.1418699
aF62.4483136
aF59.3543414
aF58.770204
aF59.0540607
aF61.4692824
aF61.3281392
aF60.4563142
aa(lp198
F66.9554512
aF62.6633785
aF64.970906
aF65.0751875
aF66.5185202
aF65.155849
aF62.5575441
aF68.0519552
aF66.535999
aF66.7272449
aasS'random_x'
p199
(lp200
(lp201
I5
aI5
aI5
aI5
aI5
aI5
aI5
aI5
aI5
aI5
aa(lp202
I10
aI10
aI10
aI10
aI10
aI10
aI10
aI10
aI10
aI10
aa(lp203
I15
aI15
aI15
aI15
aI15
aI15
aI15
aI15
aI15
aI15
aa(lp204
I20
aI20
aI20
aI20
aI20
aI20
aI20
aI20
aI20
aI20
aa(lp205
I25
aI25
aI25
aI25
aI25
aI25
aI25
aI25
aI25
aI25
aa(lp206
I30
aI30
aI30
aI30
aI30
aI30
aI30
aI30
aI30
aI30
aa(lp207
I35
aI35
aI35
aI35
aI35
aI35
aI35
aI35
aI35
aI35
aa(lp208
I40
aI40
aI40
aI40
aI40
aI40
aI40
aI40
aI40
aI40
aa(lp209
I45
aI45
aI45
aI45
aI45
aI45
aI45
aI45
aI45
aI45
aa(lp210
I50
aI50
aI50
aI50
aI50
aI50
aI50
aI50
aI50
aI50
aa(lp211
I55
aI55
aI55
aI55
aI55
aI55
aI55
aI55
aI55
aI55
aa(lp212
I60
aI60
aI60
aI60
aI60
aI60
aI60
aI60
aI60
aI60
aa(lp213
I65
aI65
aI65
aI65
aI65
aI65
aI65
aI65
aI65
aI65
aa(lp214
I70
aI70
aI70
aI70
aI70
aI70
aI70
aI70
aI70
aI70
aa(lp215
I75
aI75
aI75
aI75
aI75
aI75
aI75
aI75
aI75
aI75
aa(lp216
I80
aI80
aI80
aI80
aI80
aI80
aI80
aI80
aI80
aI80
aa(lp217
I85
aI85
aI85
aI85
aI85
aI85
aI85
aI85
aI85
aI85
aa(lp218
I90
aI90
aI90
aI90
aI90
aI90
aI90
aI90
aI90
aI90
aa(lp219
I95
aI95
aI95
aI95
aI95
aI95
aI95
aI95
aI95
aI95
aa(lp220
I100
aI100
aI100
aI100
aI100
aI100
aI100
aI100
aI100
aI100
aasS'random_soj_50'
p221
(lp222
(lp223
F30.9766
aF31.0075
aF31.4513
aF32.3637
aF30.017
aF30.3364
aF29.9964
aF28.5452
aF30.4527
aF30.1169
aa(lp224
F31.0782
aF30.864
aF31.2675
aF30.0272
aF34.1819
aF30.4842
aF31.5306
aF29.811
aF31.7579
aF30.9457
aa(lp225
F30.9623
aF29.072
aF31.3328
aF30.6464
aF33.0566
aF32.342
aF31.9325
aF31.208
aF34.007
aF30.84
aa(lp226
F33.1547
aF33.892
aF39.17
aF31.4325
aF33.6371
aF32.5652
aF33.7504
aF31.7922
aF32.0817
aF33.4262
aa(lp227
F31.3177
aF33.5696
aF33.5056
aF34.295
aF32.5169
aF33.6286
aF35.4688
aF33.8659
aF33.7028
aF32.951
aa(lp228
F34.2516
aF34.592
aF35.3842
aF32.7376
aF32.5643
aF36.4382
aF36.7538
aF33.196
aF33.7859
aF33.7469
aa(lp229
F33.3845
aF35.3795
aF34.7087
aF34.6058
aF34.7648
aF34.1942
aF33.7028
aF34.609
aF34.778
aF34.8342
aa(lp230
F36.4104
aF35.9834
aF36.4588
aF34.4994
aF35.4407
aF34.9292
aF34.445
aF36.1391
aF34.882
aF35.8206
aa(lp231
F37.076
aF35.8408
aF37.805
aF35.8104
aF35.75
aF35.8125
aF35.9522
aF35.369
aF35.996
aF36.557
aa(lp232
F36.2208
aF35.78
aF36.8864
aF37.3786
aF37.912
aF36.6043
aF37.231
aF37.7998
aF37.0138
aF38.673
aa(lp233
F38.9235
aF39.0782
aF37.109
aF37.852
aF38.9105
aF40.0661
aF38.198
aF37.5325
aF36.824
aF38.7635
aa(lp234
F39.122
aF38.9465
aF38.4059
aF39.86
aF39.8608
aF40.0922
aF39.5681
aF37.8512
aF40.3664
aF38.3939
aa(lp235
F41.366
aF40.0778
aF40.2682
aF40.6671
aF40.333
aF41.4011
aF39.4469
aF40.31
aF41.417
aF40.9856
aa(lp236
F40.358
aF43.7168
aF41.4855
aF42.1412
aF41.2
aF39.8762
aF43.272
aF41.765
aF41.9783
aF41.8173
aa(lp237
F43.5032
aF44.8268
aF42.969
aF43.7748
aF43.2878
aF44.1761
aF43.7838
aF44.9105
aF44.1138
aF43.2372
aa(lp238
F44.574
aF45.872
aF45.4976
aF45.8483
aF46.1107
aF46.2742
aF46.827
aF45.4982
aF47.7149
aF45.8702
aa(lp239
F47.7704
aF47.2604
aF49.4616
aF48.3664
aF47.7688
aF48.253
aF49.8362
aF48.8292
aF51.8167
aF48.6176
aa(lp240
F52.79
aF50.451
aF50.4116
aF52.9895
aF50.8528
aF0.0
aF54.9776
aF52.9274
aF53.8394
aF51.3148
aa(lp241
F55.6548
aF54.517
aF57.1829
aF60.7904
aF56.0867
aF54.623
aF56.1147
aF56.4998
aF57.7304
aF57.6806
aa(lp242
F63.6432
aF59.4305
aF60.7462
aF61.079
aF62.3464
aF62.1033
aF59.6157
aF63.8264
aF63.6628
aF62.3012
aas.