(dp0
S'random_99.9'
p1
(lp2
(lp3
F124.9087022
aF99.0587149
aF100.6104372
aF104.2029316
aF115.4645248
aF106.3391466
aF116.338189
aF112.0342745
aF107.4101362
aF99.0416493
aa(lp4
F109.0943009
aF112.9984455
aF117.2759978
aF112.8941464
aF115.458588
aF102.677148
aF106.2412584
aF110.630894
aF111.1984835
aF107.8644208
aa(lp5
F118.7996594
aF120.1243978
aF100.5243332
aF117.2341392
aF114.4435221
aF105.5491885
aF121.644489
aF116.4417344
aF111.316741
aF103.9979047
aa(lp6
F114.7754568
aF107.3055728
aF112.819226
aF114.7799194
aF117.5512874
aF113.625782
aF114.8875024
aF114.8051124
aF114.8364843
aF107.479206
aa(lp7
F120.942342
aF115.8772937
aF119.098731
aF113.276096
aF115.3367694
aF121.2721928
aF125.5559732
aF114.5783054
aF121.8633936
aF111.3058373
aa(lp8
F127.6807967
aF116.1498014
aF116.2081989
aF121.1460205
aF129.7182691
aF119.011932
aF123.0921104
aF125.3775361
aF115.491632
aF117.3045485
aa(lp9
F134.6900444
aF121.7191426
aF124.954416
aF130.1956966
aF129.9298085
aF118.7857302
aF130.142114
aF134.6121376
aF129.0774452
aF124.4341596
aa(lp10
F134.404147
aF131.3036036
aF141.7912733
aF145.9703038
aF140.8639034
aF137.214233
aF128.9304584
aF132.0051632
aF129.8230832
aF142.3441162
aa(lp11
F151.714746
aF135.716494
aF137.2153832
aF138.720534
aF147.9797242
aF144.0649198
aF138.127978
aF132.9588669
aF143.8224686
aF140.991871
aa(lp12
F151.9624749
aF138.9681332
aF136.3312732
aF144.9427112
aF143.7476664
aF143.4344829
aF153.5820468
aF156.0605936
aF146.6335155
aF150.7055024
aa(lp13
F147.7402875
aF143.2548683
aF148.9465865
aF157.8110035
aF148.5729233
aF152.8479384
aF150.6657692
aF158.559188
aF152.5566729
aF142.4520336
aa(lp14
F151.560621
aF158.4256032
aF157.1867721
aF155.468819
aF162.0892475
aF153.4623384
aF155.0151305
aF160.059038
aF156.0461146
aF156.5131426
aa(lp15
F178.947572
aF0.0
aF172.4394448
aF166.7050895
aF161.801145
aF173.9027369
aF166.859809
aF165.388009
aF164.3547166
aF165.7895452
aa(lp16
F176.4155704
aF177.020759
aF179.4104032
aF184.7143415
aF176.8274016
aF184.3752476
aF179.0325548
aF176.24372
aF168.5383952
aF186.0799222
aa(lp17
F182.940622
aF193.8440535
aF183.521431
aF189.31891
aF191.881213
aF184.6048671
aF182.4351052
aF192.1590786
aF182.379254
aF198.7826428
aa(lp18
F180.6767286
aF226.9608757
aF212.8590582
aF201.235187
aF200.2450364
aF202.5976749
aF206.4741584
aF212.2809683
aF243.0947045
aF200.107052
aa(lp19
F211.002835
aF210.2019049
aF210.6035674
aF219.9733744
aF229.0234952
aF238.9245416
aF217.286133
aF210.9917996
aF214.5515951
aF201.4454034
aa(lp20
F229.228699
aF248.8206349
aF250.8146051
aF225.2072995
aF263.2243101
aF242.3966882
aF240.4524726
aF220.690477
aF244.414442
aF227.3148774
aa(lp21
F301.4492618
aF261.593377
aF279.7835514
aF432.9179765
aF394.37943
aF266.0556556
aF260.356611
aF270.0320732
aF327.5320885
aF272.073059
aa(lp22
F323.0387056
aF296.7260052
aF274.22865
aF264.7185468
aF319.9550108
aF298.4596144
aF268.9434708
aF267.2224716
aF329.840984
aF298.8894454
aasS'random_99'
p23
(lp24
(lp25
F81.2095532
aF80.9964999
aF79.6743888
aF78.7435548
aF81.2731183
aF79.1658708
aF83.794822
aF80.564816
aF80.8914436
aF81.563896
aa(lp26
F83.4295531
aF82.8521565
aF85.5190895
aF84.8119972
aF80.327625
aF80.740332
aF81.8673716
aF81.336272
aF83.5471625
aF83.2092944
aa(lp27
F88.1289568
aF86.8444566
aF80.4485162
aF90.0124404
aF85.3719614
aF84.1115822
aF84.3820332
aF84.0171488
aF86.829054
aF81.3868118
aa(lp28
F89.1354432
aF86.4881888
aF88.326732
aF87.7538452
aF84.8101238
aF87.9064996
aF86.8733932
aF90.7323708
aF87.1122752
aF85.599475
aa(lp29
F90.437252
aF90.2905779
aF90.487855
aF87.901296
aF89.6677578
aF89.677625
aF92.6866268
aF90.0977976
aF90.9345348
aF85.7617508
aa(lp30
F93.2322789
aF92.6391649
aF92.84365
aF90.2644666
aF96.1542148
aF92.2105652
aF92.934888
aF93.8153958
aF89.9563844
aF89.8147488
aa(lp31
F99.6860468
aF96.5629688
aF96.64637
aF95.8385458
aF97.4499315
aF94.643198
aF95.1864968
aF98.0714154
aF97.0018543
aF96.1090938
aa(lp32
F100.2468798
aF100.3914344
aF100.7633513
aF101.3588704
aF104.5482986
aF103.1468498
aF100.0897048
aF97.553
aF97.0195094
aF101.976791
aa(lp33
F109.941794
aF105.632908
aF104.3250308
aF103.986582
aF105.0443914
aF106.2408126
aF102.971885
aF101.674662
aF106.262324
aF105.4315345
aa(lp34
F110.5414646
aF107.029279
aF108.2973922
aF107.8606628
aF111.7828544
aF106.8574317
aF109.557834
aF112.416666
aF112.1116725
aF107.862688
aa(lp35
F112.0737755
aF111.3490853
aF111.4101686
aF115.7493179
aF111.7721525
aF113.3420725
aF112.4698478
aF114.7635655
aF114.7978098
aF110.8503052
aa(lp36
F115.863667
aF119.8804898
aF121.9738524
aF116.7347576
aF120.030344
aF116.608384
aF116.2962314
aF117.805622
aF120.1379082
aF116.0326525
aa(lp37
F127.829084
aF0.0
aF128.6429372
aF124.270891
aF123.2517474
aF126.9846255
aF129.462313
aF125.5672252
aF124.15594
aF126.2762518
aa(lp38
F135.5152206
aF128.390122
aF131.2011872
aF133.6298642
aF135.8463814
aF140.4644456
aF134.5478684
aF133.14572
aF129.0820144
aF138.5198852
aa(lp39
F142.4940955
aF142.3160785
aF140.200912
aF141.915345
aF143.42257
aF138.0761679
aF138.432232
aF142.1955426
aF136.4327259
aF148.0414428
aa(lp40
F140.7037872
aF154.9308149
aF154.2923106
aF150.051716
aF150.3446348
aF146.8349959
aF153.8893936
aF155.2533528
aF160.5461755
aF148.252
aa(lp41
F161.85405
aF164.343679
aF160.0807597
aF165.5569392
aF167.3590976
aF167.1274806
aF163.602463
aF163.4122238
aF163.4512069
aF153.6149928
aa(lp42
F173.245576
aF181.7023366
aF183.4179753
aF173.5799355
aF197.1849341
aF181.4054216
aF179.823523
aF163.991302
aF179.328715
aF177.9659239
aa(lp43
F220.8752354
aF197.0301973
aF195.1387935
aF205.088017
aF234.8341043
aF195.4659688
aF195.5452215
aF201.7473124
aF205.971553
aF196.083169
aa(lp44
F230.7916143
aF218.5772478
aF209.231625
aF204.7650529
aF229.8029138
aF230.6737951
aF210.4948986
aF201.0083506
aF223.4138024
aF226.2718456
aasS'random_soj_95'
p45
(lp46
(lp47
F50.991
aF49.9428
aF49.2126
aF50.97
aF50.9408
aF51.2779
aF49.6688
aF49.669
aF48.9546
aF49.5278
aa(lp48
F52.3432
aF53.625
aF57.1256
aF52.011
aF50.5544
aF51.4994
aF51.368
aF51.5913
aF52.1316
aF49.9568
aa(lp49
F62.3034
aF56.267
aF50.6094
aF54.2422
aF56.1766
aF52.593
aF56.5034
aF54.2541
aF52.3018
aF52.7855
aa(lp50
F56.2616
aF53.576
aF55.4825
aF57.947
aF53.653
aF54.8612
aF56.5942
aF56.4318
aF55.5672
aF53.0843
aa(lp51
F58.6204
aF55.8357
aF60.094
aF54.31
aF58.6112
aF62.564
aF58.3286
aF57.2184
aF60.0912
aF57.5504
aa(lp52
F59.51
aF64.2968
aF60.0044
aF58.2253
aF60.5696
aF57.932
aF59.7178
aF59.8624
aF60.66
aF60.5646
aa(lp53
F66.8748
aF62.2858
aF62.8115
aF62.4427
aF60.0291
aF59.8728
aF61.9066
aF63.0308
aF62.512
aF64.7369
aa(lp54
F64.5497
aF63.9332
aF64.4027
aF65.1916
aF67.1918
aF64.9808
aF69.0058
aF63.48
aF66.8576
aF66.7355
aa(lp55
F69.0089
aF68.4386
aF67.2656
aF70.2536
aF70.8596
aF68.3138
aF67.2193
aF66.1536
aF69.6256
aF67.6952
aa(lp56
F71.264
aF68.3919
aF68.14
aF69.4028
aF72.7202
aF71.267
aF70.037
aF71.589
aF73.1835
aF69.0916
aa(lp57
F73.012
aF72.7114
aF75.4832
aF79.8538
aF72.8135
aF74.0726
aF73.4502
aF76.8848
aF75.1911
aF72.1268
aa(lp58
F78.5454
aF78.8944
aF80.9368
aF77.9432
aF76.552
aF76.8768
aF79.2207
aF78.3
aF75.9491
aF74.714
aa(lp59
F88.6128
aF0.0
aF86.3405
aF81.736
aF80.5384
aF83.0106
aF85.1396
aF83.9186
aF79.4282
aF80.53
aa(lp60
F96.1304
aF89.2756
aF87.6919
aF91.982
aF91.112
aF90.6728
aF88.1978
aF86.3792
aF86.294
aF93.4772
aa(lp61
F102.7548
aF97.8341
aF93.726
aF93.6812
aF95.134
aF93.3044
aF92.7845
aF96.3541
aF92.9717
aF98.1275
aa(lp62
F96.1854
aF102.8175
aF103.8992
aF98.8213
aF100.854
aF99.1408
aF100.7259
aF102.3596
aF107.2934
aF99.6944
aa(lp63
F107.3948
aF110.2766
aF111.02
aF111.6625
aF112.0179
aF111.3448
aF111.4448
aF110.576
aF115.9025
aF104.072
aa(lp64
F114.9644
aF122.1068
aF123.2915
aF119.4843
aF130.419
aF121.5131
aF125.932
aF118.792
aF124.4
aF128.585
aa(lp65
F146.8519
aF133.716
aF132.9743
aF142.9608
aF155.5595
aF132.737
aF130.294
aF139.3988
aF135.8608
aF135.1225
aa(lp66
F165.398
aF147.0296
aF145.019
aF144.0067
aF154.0286
aF155.692
aF145.0028
aF142.2686
aF154.3915
aF153.9578
aasS'random_soj_99.99'
p67
(lp68
(lp69
F114.989
aF102.9902
aF101.9903
aF104.99
aF106.9898
aF107.9897
aF103.9901
aF99.9905
aF90.9914
aF98.9906
aa(lp70
F128.9876
aF129.9875
aF152.9852
aF110.9894
aF118.9886
aF113.9891
aF109.9895
aF105.9899
aF113.9891
aF100.9904
aa(lp71
F158.9846
aF142.9862
aF101.9903
aF123.9881
aF122.9882
aF95.9909
aF121.9883
aF123.9881
aF95.9909
aF109.9895
aa(lp72
F128.9876
aF100.9904
aF131.9873
aF115.9889
aF114.989
aF115.9889
aF141.9863
aF123.9881
aF128.9876
aF103.9901
aa(lp73
F152.9852
aF111.9893
aF134.987
aF104.99
aF148.9856
aF139.9865
aF133.9871
aF108.9896
aF132.9872
aF140.9864
aa(lp74
F142.9862
aF128.9876
aF136.9868
aF135.9869
aF140.9864
aF124.988
aF141.9863
aF140.9864
aF125.9879
aF146.9858
aa(lp75
F167.9837
aF147.9857
aF149.9855
aF137.9867
aF131.9873
aF117.9887
aF143.9861
aF152.9852
aF162.9842
aF177.9827
aa(lp76
F151.9853
aF138.9866
aF151.9853
aF152.9852
aF166.9838
aF146.9858
aF162.9842
aF140.9864
aF172.9832
aF157.9847
aa(lp77
F161.9843
aF142.9862
aF148.9856
aF163.9841
aF217.9787
aF163.9841
aF147.9857
aF152.9852
aF173.9831
aF155.9849
aa(lp78
F169.9835
aF147.9857
aF144.986
aF168.9836
aF181.9823
aF189.9815
aF167.9837
aF174.983
aF165.9839
aF167.9837
aa(lp79
F200.9804
aF170.9834
aF196.9808
aF258.9746
aF163.9841
aF170.9834
aF186.9818
aF212.9792
aF201.9803
aF160.9844
aa(lp80
F227.9777
aF188.9816
aF188.9816
aF220.9784
aF176.9828
aF171.9833
aF255.9749
aF204.98
aF187.9817
aF184.982
aa(lp81
F236.9768
aF0.0
aF261.9743
aF224.978
aF192.9812
aF197.9807
aF230.9774
aF210.9794
aF183.9821
aF179.9825
aa(lp82
F220.9784
aF240.9764
aF233.9771
aF289.9715
aF211.9793
aF223.9781
aF193.9811
aF200.9804
aF208.9796
aF256.9748
aa(lp83
F290.9714
aF223.9781
aF224.978
aF205.9799
aF245.9759
aF232.9772
aF219.9785
aF275.9729
aF253.9751
aF229.9775
aa(lp84
F218.9786
aF279.9725
aF276.9728
aF245.9759
aF224.978
aF252.9752
aF231.9773
aF241.9763
aF367.9637
aF260.9744
aa(lp85
F232.9772
aF238.9766
aF229.9775
aF269.9735
aF275.9729
aF311.9693
aF268.9736
aF244.976
aF269.9735
aF244.976
aa(lp86
F270.9734
aF280.9724
aF295.9709
aF291.9713
aF291.9713
aF301.9703
aF284.972
aF284.972
aF379.9625
aF279.9725
aa(lp87
F377.9627
aF284.972
aF395.9609
aF525.9479
aF459.9545
aF346.9658
aF309.9695
aF337.9667
aF452.9552
aF369.9635
aa(lp88
F424.958
aF336.9668
aF334.967
aF353.9651
aF415.9589
aF377.9627
aF298.9706
aF298.9706
aF513.9491
aF413.9591
aasS'random_soj_99'
p89
(lp90
(lp91
F64.554
aF64.7506
aF62.8896
aF63.29
aF64.2722
aF64.7606
aF65.0138
aF63.064
aF62.0524
aF63.656
aa(lp92
F66.9132
aF69.3625
aF73.746
aF67.8156
aF63.425
aF64.6012
aF64.9235
aF65.2364
aF66.8575
aF64.4432
aa(lp93
F82.8624
aF73.0754
aF62.9478
aF72.5563
aF73.2748
aF66.6798
aF72.3218
aF69.0458
aF67.5898
aF66.257
aa(lp94
F73.5968
aF68.1296
aF72.183
aF74.3972
aF68.382
aF70.6121
aF73.1027
aF74.2223
aF71.0672
aF67.6175
aa(lp95
F76.6912
aF72.9771
aF77.865
aF69.52
aF75.9488
aF80.9375
aF75.6146
aF73.3488
aF78.1904
aF72.2928
aa(lp96
F77.0222
aF82.8844
aF77.6
aF74.7706
aF80.6704
aF74.852
aF77.5415
aF78.7392
aF77.9388
aF76.7952
aa(lp97
F89.3851
aF82.3916
aF82.5025
aF79.3337
aF79.9681
aF77.207
aF80.2268
aF82.8776
aF81.9934
aF84.3378
aa(lp98
F85.0121
aF84.2208
aF85.2767
aF85.7488
aF89.1914
aF86.4796
aF90.1146
aF81.5
aF87.0344
aF87.773
aa(lp99
F93.1869
aF92.0504
aF88.3616
aF91.973
aF93.1394
aF91.1303
aF86.367
aF85.808
aF92.204
aF89.8167
aa(lp100
F94.001
aF90.0135
aF89.084
aF92.6088
aF97.5356
aF93.1895
aF93.1015
aF96.29
aF97.0115
aF91.716
aa(lp101
F97.2572
aF95.1878
aF97.8896
aF105.0506
aF95.2325
aF97.545
aF97.8382
aF101.6992
aF101.1754
aF94.7156
aa(lp102
F103.343
aF105.4088
aF108.1136
aF103.3232
aF102.4208
aF100.023
aF104.3458
aF103.46
aF103.1063
aF98.15
aa(lp103
F118.3784
aF0.0
aF116.5123
aF109.676
aF106.7268
aF110.4745
aF113.9094
aF110.8428
aF107.03
aF108.005
aa(lp104
F129.1352
aF119.1296
aF117.6909
aF123.617
aF123.0314
aF123.5666
aF116.3966
aF114.27
aF113.6096
aF126.3128
aa(lp105
F139.4486
aF130.4651
aF124.328
aF124.4141
aF128.151
aF122.8988
aF121.96
aF130.0123
aF123.4493
aF131.855
aa(lp106
F125.5248
aF140.5475
aF140.6192
aF132.9228
aF133.414
aF133.0424
aF135.6612
aF140.1848
aF149.5829
aF133.0
aa(lp107
F144.764
aF147.038
aF146.5025
aF150.114
aF152.4782
aF153.0047
aF149.276
aF147.704
aF157.6665
aF137.288
aa(lp108
F156.088
aF165.7976
aF168.4547
aF158.6885
aF178.7211
aF165.0236
aF167.12
aF158.104
aF171.125
aF170.3025
aa(lp109
F205.2637
aF179.132
aF182.3185
aF194.7482
aF222.5355
aF180.5144
aF181.0155
aF186.7181
aF193.7872
aF182.1345
aa(lp110
F220.166
aF201.2452
aF194.75
aF190.0049
aF213.0482
aF214.7379
aF191.3666
aF188.6324
aF213.0792
aF212.1176
aasS'random_soj_99.9'
p111
(lp112
(lp113
F98.709
aF78.9606
aF79.1274
aF83.43
aF90.8432
aF86.6687
aF89.8331
aF87.2605
aF81.9958
aF77.0698
aa(lp114
F87.1748
aF94.2875
aF100.8744
aF89.9272
aF90.6824
aF81.8668
aF83.939
aF88.3553
aF88.6357
aF83.1824
aa(lp115
F111.6142
aF100.7582
aF78.3708
aF94.2024
aF97.9722
aF83.3965
aF103.9235
aF95.3329
aF86.3267
aF84.3905
aa(lp116
F94.5032
aF84.2576
aF91.9315
aF97.0634
aF94.386
aF90.9695
aF96.4064
aF93.6669
aF93.3748
aF84.6158
aa(lp117
F102.2952
aF93.3713
aF102.253
aF89.27
aF97.4624
aF109.274
aF102.0854
aF93.0152
aF104.5328
aF93.5768
aa(lp118
F105.1466
aF103.7784
aF96.9116
aF100.0405
aF108.5368
aF96.32
aF102.4207
aF104.9464
aF99.864
aF100.069
aa(lp119
F120.5833
aF103.6557
aF106.442
aF107.4499
aF106.3079
aF96.6543
aF109.389
aF113.4544
aF108.8376
aF109.0076
aa(lp120
F113.7065
aF109.8952
aF119.6747
aF123.1336
aF119.9066
aF114.766
aF115.9318
aF109.9784
aF116.2832
aF122.2286
aa(lp121
F128.2921
aF118.0772
aF115.9664
aF122.501
aF130.9682
aF123.3119
aF115.5676
aF111.9596
aF124.5506
aF119.8506
aa(lp122
F128.9315
aF116.6258
aF111.904
aF124.1952
aF125.2361
aF124.8615
aF130.2003
aF133.384
aF126.6677
aF127.8368
aa(lp123
F127.99
aF122.2458
aF130.664
aF143.049
aF126.3329
aF131.2928
aF130.8348
aF140.2832
aF134.2517
aF121.5008
aa(lp124
F135.009
aF139.0992
aF139.1544
aF137.408
aF138.042
aF131.4023
aF138.9085
aF140.34
aF133.7039
aF132.116
aa(lp125
F165.5672
aF0.0
aF156.0132
aF146.922
aF139.89
aF151.0431
aF146.6342
aF145.801
aF141.4517
aF141.57
aa(lp126
F168.0368
aF164.1112
aF160.7429
aF170.7275
aF160.0016
aF162.0011
aF154.6502
aF151.02
aF148.1468
aF169.5308
aa(lp127
F179.0024
aF177.5501
aF162.564
aF165.7598
aF171.2659
aF164.1212
aF160.531
aF175.5403
aF164.858
aF176.855
aa(lp128
F161.0274
aF205.6675
aF193.8224
aF178.0621
aF177.502
aF183.3864
aF181.8103
aF191.4953
aF226.3211
aF179.336
aa(lp129
F188.5628
aF187.9178
aF192.605
aF199.298
aF208.4939
aF218.5492
aF198.116
aF190.568
aF206.9035
aF179.864
aa(lp130
F206.362
aF226.8764
aF230.2049
aF205.7565
aF238.4171
aF220.3547
aF223.344
aF212.704
aF233.15
aF217.465
aa(lp131
F280.0129
aF237.68
aF261.2614
aF410.8069
aF373.55
aF245.5628
aF240.887
aF249.7883
aF307.9824
aF252.5795
aa(lp132
F308.072
aF273.0568
aF255.14
aF245.5308
aF296.4812
aF277.7376
aF244.3748
aF250.6664
aF314.472
aF280.0934
aasS'random_99.99'
p133
(lp134
(lp135
F145.7379262
aF129.6025433
aF130.0884934
aF131.4573588
aF136.2418747
aF132.7842246
aF134.901019
aF128.5906445
aF119.3715646
aF127.6037521
aa(lp136
F162.0572933
aF156.1768815
aF178.2776749
aF139.6435378
aF151.941307
aF143.490151
aF139.6325412
aF132.976202
aF143.3891605
aF131.2943693
aa(lp137
F169.3315722
aF170.8904098
aF131.2693737
aF154.6920348
aF143.8901101
aF121.7003301
aF142.9452042
aF151.7873216
aF123.947107
aF135.9179073
aa(lp138
F157.0677924
aF128.9036087
aF162.4972492
aF137.3457649
aF143.4921501
aF145.2349764
aF169.6805308
aF152.3432676
aF159.0965891
aF132.417257
aa(lp139
F181.335367
aF139.2355757
aF157.500749
aF133.473152
aF176.8118186
aF155.5159478
aF165.1689818
aF134.4630542
aF155.2719714
aF168.2046779
aa(lp140
F174.0290969
aF144.5160471
aF164.6940297
aF165.0749909
aF168.8026193
aF154.8020188
aF171.0513936
aF168.7816211
aF145.9169077
aF172.7202277
aa(lp141
F187.8727116
aF174.1630826
aF176.443854
aF167.5107478
aF161.5953395
aF145.2709718
aF171.6123386
aF181.8533133
aF193.7761209
aF203.6291367
aa(lp142
F179.9705014
aF166.3298663
aF180.3294667
aF181.5923391
aF196.5248462
aF176.0188979
aF181.4933496
aF169.5175472
aF193.4141582
aF184.2350749
aa(lp143
F191.806318
aF164.508049
aF176.5568428
aF185.9189094
aF246.7358247
aF191.8683122
aF177.1577835
aF182.0362953
aF201.2223761
aF183.7751215
aa(lp144
F200.6424341
aF176.6048378
aF176.9718013
aF197.5237466
aF209.2295752
aF218.6396349
aF198.4186572
aF205.0049982
aF192.4002585
aF198.3236666
aa(lp145
F232.4482535
aF200.7244259
aF224.8990103
aF286.1328839
aF193.1251857
aF199.3105677
aF215.6599322
aF241.0743905
aF229.8735111
aF189.0355948
aa(lp146
F256.3638613
aF215.4959486
aF213.7111269
aF250.4384537
aF208.0676915
aF201.1233864
aF286.1588817
aF234.117086
aF219.7445238
aF219.5185477
aa(lp147
F256.303868
aF0.0
aF289.9235052
aF255.6339355
aF223.5151466
aF228.1866793
aF263.246173
aF239.6325346
aF214.0230958
aF211.0093987
aa(lp148
F232.0772902
aF260.1214855
aF261.4173568
aF314.0170959
aF234.4440543
aF255.1829796
aF224.7700214
aF234.8340144
aF238.0356944
aF282.3092682
aa(lp149
F297.4367545
aF244.6530335
aF254.2350745
aF235.431955
aF275.850913
aF262.3242651
aF250.2544722
aF302.3762598
aF281.2623713
aF258.6826294
aa(lp150
F245.9249054
aF309.1505819
aF304.3920579
aF278.242673
aF253.9800996
aF279.6765307
aF263.6371344
aF268.3866593
aF395.4619515
aF291.4693508
aa(lp151
F260.842415
aF267.4787503
aF251.5593427
aF298.1676808
aF303.3071672
aF341.2563714
aF295.1709818
aF271.3853597
aF280.0084971
aF274.5930381
aa(lp152
F301.1773793
aF308.2656709
aF322.5942391
aF319.7735199
aF322.4692503
aF332.3612618
aF306.9088063
aF295.7369235
aF398.4716495
aF292.7202251
aa(lp153
F407.0317934
aF313.7441233
aF424.2120759
aF554.3320615
aF485.6649297
aF376.0968866
aF335.1389835
aF365.5009468
aF481.8553105
aF398.696627
aa(lp154
F445.6969259
aF366.2758702
aF360.1454825
aF381.7993171
aF449.0545901
aF406.2988663
aF329.1425826
aF318.7816189
aF539.2225727
aF441.8963071
aasS'random_95'
p155
(lp156
(lp157
F63.8565578
aF62.1744262
aF62.0400828
aF63.1695964
aF64.1183512
aF62.4428722
aF63.674272
aF63.143561
aF63.4753294
aF63.1553023
aa(lp158
F64.9741806
aF63.817965
aF66.0630022
aF64.739857
aF63.739228
aF64.093834
aF64.4920608
aF64.046174
aF64.849998
aF64.1495681
aa(lp159
F66.1978438
aF66.637593
aF64.3878626
aF66.9809976
aF65.2454963
aF66.046577
aF65.7301116
aF65.7718976
aF66.848814
aF64.5888777
aa(lp160
F67.8752184
aF67.702978
aF67.61443
aF68.139427
aF66.2651077
aF68.0070112
aF67.0280072
aF68.7074328
aF67.8486502
aF66.892751
aa(lp161
F68.907359
aF68.7848493
aF69.639738
aF68.359488
aF68.9813522
aF69.1915808
aF71.2222388
aF70.0188618
aF69.6840944
aF68.0685944
aa(lp162
F71.782245
aF71.7237678
aF71.5552401
aF70.0449733
aF71.9435402
aF71.0870732
aF71.3299616
aF71.0814826
aF69.83258
aF70.6440099
aa(lp163
F74.4297664
aF72.7771044
aF73.362102
aF75.1982518
aF72.8629465
aF73.1239392
aF73.2267716
aF74.3535507
aF73.723924
aF73.6039749
aa(lp164
F75.8888286
aF75.9650126
aF75.8660653
aF76.8278803
aF78.5374382
aF77.2542704
aF76.5087704
aF75.75304
aF74.3905076
aF77.3297785
aa(lp165
F81.171514
aF78.340747
aF79.1897328
aF79.2748224
aF79.7570276
aF79.4238196
aF79.9189915
aF78.1628204
aF80.0447936
aF79.239532
aa(lp166
F83.5796544
aF81.0800326
aF82.568137
aF80.6171018
aF83.1472848
aF81.5397882
aF82.187772
aF83.3540506
aF84.3742525
aF81.0279288
aa(lp167
F83.936355
aF84.8457539
aF85.7481887
aF87.8581467
aF85.2439895
aF85.8648003
aF84.2389958
aF86.597432
aF85.1349507
aF84.1995756
aa(lp168
F87.9094326
aF89.5454224
aF91.1442837
aF87.8928551
aF89.48636
aF89.4239344
aF88.1498131
aF88.97981
aF88.2672274
aF88.1017579
aa(lp169
F95.584728
aF0.0
aF95.190042
aF92.438976
aF92.8099612
aF95.2222694
aF96.584542
aF94.8979474
aF91.9216636
aF93.9322108
aa(lp170
F100.8146462
aF96.1142795
aF97.6085952
aF99.3263132
aF100.464112
aF102.8838048
aF101.7557972
aF100.4372112
aF97.875816
aF102.3853498
aa(lp171
F104.972119
aF106.6059935
aF105.5295415
aF106.67954
aF106.31338
aF104.6722677
aF105.1480074
aF105.2582142
aF102.6151971
aF110.0109134
aa(lp172
F107.6700906
aF113.1971817
aF113.8704756
aF111.384011
aF113.4920428
aF109.2844628
aF114.0822352
aF113.2135956
aF115.054673
aF110.9793908
aa(lp173
F119.920235
aF123.1054003
aF121.1961976
aF123.01478
aF122.8187272
aF121.4934704
aF122.0193824
aF122.1996797
aF120.1066365
aF116.2997232
aa(lp174
F127.4519738
aF133.6913713
aF134.1250585
aF130.5781189
aF143.750189
aF133.4439586
aF135.4085903
aF123.167896
aF130.297992
aF134.3144006
aa(lp175
F157.9116998
aF146.9481899
aF142.2305793
aF150.479148
aF164.0746227
aF143.618549
aF140.638782
aF150.5157152
aF144.3090295
aF145.370745
aa(lp176
F173.3189879
aF159.5772844
aF155.7067525
aF155.0989907
aF166.0302974
aF167.142148
aF159.3726588
aF151.5203559
aF161.8121255
aF164.1405418
aasS'random_50'
p177
(lp178
(lp179
F38.3829798
aF37.8838612
aF37.989891
aF37.735502
aF38.1696331
aF37.5308422
aF38.062759
aF38.1978065
aF38.477545
aF38.1083468
aa(lp180
F38.461271
aF38.207226
aF38.2562167
aF38.2058608
aF38.305645
aF38.306996
aF38.4223652
aF37.682294
aF38.3196765
aF38.4334629
aa(lp181
F38.336295
aF38.6665158
aF38.4155635
aF38.6668392
aF38.4379893
aF38.7973605
aF38.7731184
aF38.3526464
aF38.614832
aF38.6129609
aa(lp182
F38.8134948
aF39.1286402
aF39.1999868
aF39.1942633
aF38.8561556
aF39.0482772
aF39.0797748
aF39.0511116
aF38.9994454
aF38.76895
aa(lp183
F39.389717
aF39.1171463
aF39.549515
aF39.335856
aF39.291893
aF39.4183292
aF39.7144394
aF39.4408822
aF39.3864368
aF39.3090542
aa(lp184
F39.9537077
aF39.6600036
aF39.9180758
aF39.6436924
aF39.8701296
aF39.8063276
aF39.6947696
aF39.8632992
aF39.675058
aF39.7158887
aa(lp185
F40.5047844
aF39.9742658
aF40.630388
aF40.7273356
aF40.0072175
aF40.3119794
aF40.503782
aF40.4835202
aF40.1380051
aF40.3925373
aa(lp186
F40.9791216
aF40.8096803
aF40.9046651
aF40.9762533
aF41.0917592
aF40.8267974
aF41.013816
aF40.8237456
aF40.6448438
aF40.9956008
aa(lp187
F41.883268
aF41.493937
aF41.7012508
aF41.574012
aF41.6325795
aF41.730527
aF41.750011
aF41.4078632
aF41.5623257
aF41.444383
aa(lp188
F42.373869
aF42.156163
aF42.1683907
aF42.2835824
aF42.2159856
aF42.0143532
aF42.1094904
aF42.3503606
aF42.749381
aF42.1677948
aa(lp189
F42.583218
aF42.8593094
aF43.1981192
aF43.6315214
aF43.2316576
aF42.8805527
aF43.0935824
aF43.297609
aF43.2156411
aF42.9351172
aa(lp190
F43.6401819
aF43.8849358
aF44.5763976
aF43.8813392
aF44.239022
aF44.2930408
aF44.0603187
aF43.976714
aF43.8329696
aF43.6740446
aa(lp191
F45.47152
aF0.0
aF45.4096264
aF44.8916195
aF45.0821356
aF45.3801463
aF46.06693
aF45.6675382
aF45.0544472
aF45.0453259
aa(lp192
F47.7418436
aF45.723142
aF46.0914064
aF46.2948776
aF46.6334998
aF46.9381904
aF47.7323984
aF46.834792
aF46.6268016
aF47.3931904
aa(lp193
F48.411322
aF48.343432
aF48.4002955
aF48.951815
aF48.455548
aF48.5444508
aF48.3170948
aF48.2165106
aF47.9103711
aF49.2483264
aa(lp194
F49.1924964
aF50.2012966
aF49.6746132
aF50.198858
aF50.5189312
aF49.2640423
aF50.9701712
aF49.7588493
aF50.2732115
aF49.985244
aa(lp195
F52.55493
aF53.1237001
aF53.4379372
aF53.1471264
aF53.039808
aF53.2946696
aF53.5364304
aF53.3078639
aF52.2019764
aF52.184325
aa(lp196
F55.3255693
aF56.56447
aF57.422485
aF55.2462396
aF58.7879918
aF57.0002616
aF56.8747766
aF53.9949025
aF55.5713925
aF56.8523698
aa(lp197
F61.3354466
aF61.3579775
aF58.9693167
aF60.819516
aF63.5596254
aF58.628863
aF58.3946805
aF61.969056
aF58.3725505
aF59.852589
aa(lp198
F67.6292961
aF64.62817
aF62.8640075
aF65.1875913
aF64.1539868
aF66.6473632
aF64.5517638
aF63.6218948
aF65.0552852
aF66.7490677
aasS'random_x'
p199
(lp200
(lp201
I5
aI5
aI5
aI5
aI5
aI5
aI5
aI5
aI5
aI5
aa(lp202
I10
aI10
aI10
aI10
aI10
aI10
aI10
aI10
aI10
aI10
aa(lp203
I15
aI15
aI15
aI15
aI15
aI15
aI15
aI15
aI15
aI15
aa(lp204
I20
aI20
aI20
aI20
aI20
aI20
aI20
aI20
aI20
aI20
aa(lp205
I25
aI25
aI25
aI25
aI25
aI25
aI25
aI25
aI25
aI25
aa(lp206
I30
aI30
aI30
aI30
aI30
aI30
aI30
aI30
aI30
aI30
aa(lp207
I35
aI35
aI35
aI35
aI35
aI35
aI35
aI35
aI35
aI35
aa(lp208
I40
aI40
aI40
aI40
aI40
aI40
aI40
aI40
aI40
aI40
aa(lp209
I45
aI45
aI45
aI45
aI45
aI45
aI45
aI45
aI45
aI45
aa(lp210
I50
aI50
aI50
aI50
aI50
aI50
aI50
aI50
aI50
aI50
aa(lp211
I55
aI55
aI55
aI55
aI55
aI55
aI55
aI55
aI55
aI55
aa(lp212
I60
aI60
aI60
aI60
aI60
aI60
aI60
aI60
aI60
aI60
aa(lp213
I65
aI65
aI65
aI65
aI65
aI65
aI65
aI65
aI65
aI65
aa(lp214
I70
aI70
aI70
aI70
aI70
aI70
aI70
aI70
aI70
aI70
aa(lp215
I75
aI75
aI75
aI75
aI75
aI75
aI75
aI75
aI75
aI75
aa(lp216
I80
aI80
aI80
aI80
aI80
aI80
aI80
aI80
aI80
aI80
aa(lp217
I85
aI85
aI85
aI85
aI85
aI85
aI85
aI85
aI85
aI85
aa(lp218
I90
aI90
aI90
aI90
aI90
aI90
aI90
aI90
aI90
aI90
aa(lp219
I95
aI95
aI95
aI95
aI95
aI95
aI95
aI95
aI95
aI95
aa(lp220
I100
aI100
aI100
aI100
aI100
aI100
aI100
aI100
aI100
aI100
aasS'random_soj_50'
p221
(lp222
(lp223
F31.081
aF30.8328
aF30.5595
aF30.85
aF30.7754
aF31.1929
aF30.1361
aF30.4885
aF30.155
aF30.3048
aa(lp224
F31.412
aF32.45
aF33.3716
aF31.1184
aF30.821
aF31.2036
aF31.0295
aF30.7853
aF31.2363
aF30.4112
aa(lp225
F36.185
aF33.0002
aF30.6565
aF31.7274
aF33.4026
aF31.3445
aF33.6416
aF32.0249
aF30.6984
aF31.9535
aa(lp226
F32.5652
aF31.4384
aF32.5717
aF33.6713
aF31.884
aF31.9397
aF33.3453
aF32.4771
aF32.3544
aF31.235
aa(lp227
F33.8452
aF32.1887
aF34.445
aF31.72
aF33.728
aF35.861
aF32.9543
aF32.6536
aF34.2864
aF33.5872
aa(lp228
F33.5246
aF35.8016
aF33.8552
aF33.3484
aF33.9408
aF32.876
aF33.6193
aF33.9408
aF34.766
aF34.3798
aa(lp229
F36.6383
aF34.5581
aF35.131
aF34.2334
aF33.3845
aF33.4421
aF34.607
aF34.6888
aF34.4038
aF35.8113
aa(lp230
F35.2232
aF34.7346
aF35.0909
aF35.1476
aF35.5208
aF34.7348
aF37.232
aF34.6072
aF36.7688
aF35.7224
aa(lp231
F35.9918
aF36.5606
aF35.8016
aF37.118
aF37.2695
aF36.2435
aF35.5162
aF35.4288
aF36.4847
aF35.7738
aa(lp232
F36.515
aF35.9595
aF35.254
aF36.7504
aF37.2494
aF37.042
aF36.2634
aF36.739
aF37.4254
aF36.3286
aa(lp233
F37.3792
aF37.1044
aF38.3312
aF39.8996
aF37.3088
aF37.3534
aF37.9056
aF38.7376
aF38.4703
aF37.1516
aa(lp234
F39.2751
aF38.9848
aF39.8864
aF39.2144
aF38.2304
aF38.4501
aF39.8639
aF39.02
aF38.0864
aF37.436
aa(lp235
F42.352
aF0.0
aF41.4426
aF40.002
aF39.4792
aF39.9137
aF40.934
aF40.6998
aF39.2964
aF39.0025
aa(lp236
F45.6512
aF42.6656
aF41.6858
aF43.076
aF42.5498
aF41.7044
aF41.7416
aF40.672
aF41.4344
aF43.5056
aa(lp237
F47.4424
aF44.5952
aF43.302
aF43.3307
aF43.6564
aF43.5776
aF42.969
aF44.3763
aF43.6697
aF44.24
aa(lp238
F44.2476
aF45.865
aF45.5824
aF44.8614
aF45.216
aF44.9528
aF45.3379
aF45.2663
aF47.0717
aF45.192
aa(lp239
F47.3624
aF47.8922
aF49.19
aF48.513
aF48.631
aF49.0852
aF49.1408
aF48.512
aF50.474
aF47.0
aa(lp240
F50.1934
aF51.92
aF53.015
aF50.8052
aF53.6178
aF52.1636
aF53.104
aF52.18
aF53.1875
aF54.555
aa(lp241
F57.2573
aF56.1
aF55.3217
aF57.9336
aF60.419
aF54.419
aF54.3185
aF57.614
aF55.1312
aF55.8445
aa(lp242
F64.682
aF59.78
aF58.757
aF60.7353
aF59.7452
aF62.2928
aF59.0078
aF59.9192
aF62.2116
aF62.7917
aas.